; ModuleID = '4lgtvwhg4wiywm68'
source_filename = "4lgtvwhg4wiywm68"
target datalayout = "e-m:e-p270:32:32-p271:32:32-p272:64:64-i64:64-f80:128-n8:16:32:64-S128"
target triple = "x86_64-unknown-linux-gnu"

%"alloc::collections::btree::map::IntoIter<std::ffi::os_str::OsString, core::option::Option<std::ffi::os_str::OsString>>" = type { %"alloc::collections::btree::navigate::LazyLeafRange<alloc::collections::btree::node::marker::Dying, std::ffi::os_str::OsString, core::option::Option<std::ffi::os_str::OsString>>", i64 }
%"alloc::collections::btree::navigate::LazyLeafRange<alloc::collections::btree::node::marker::Dying, std::ffi::os_str::OsString, core::option::Option<std::ffi::os_str::OsString>>" = type { %"core::option::Option<alloc::collections::btree::navigate::LazyLeafHandle<alloc::collections::btree::node::marker::Dying, std::ffi::os_str::OsString, core::option::Option<std::ffi::os_str::OsString>>>", %"core::option::Option<alloc::collections::btree::navigate::LazyLeafHandle<alloc::collections::btree::node::marker::Dying, std::ffi::os_str::OsString, core::option::Option<std::ffi::os_str::OsString>>>" }
%"core::option::Option<alloc::collections::btree::navigate::LazyLeafHandle<alloc::collections::btree::node::marker::Dying, std::ffi::os_str::OsString, core::option::Option<std::ffi::os_str::OsString>>>" = type { i64, [3 x i64] }
%"alloc::collections::btree::map::BTreeMap<std::ffi::os_str::OsString, core::option::Option<std::ffi::os_str::OsString>>" = type { { i64, i64* }, i64 }
%"core::mem::manually_drop::ManuallyDrop<alloc::collections::btree::map::BTreeMap<std::ffi::os_str::OsString, core::option::Option<std::ffi::os_str::OsString>>>" = type { %"alloc::collections::btree::map::BTreeMap<std::ffi::os_str::OsString, core::option::Option<std::ffi::os_str::OsString>>" }
%"alloc::collections::btree::node::Handle<alloc::collections::btree::node::NodeRef<alloc::collections::btree::node::marker::Dying, std::ffi::os_str::OsString, core::option::Option<std::ffi::os_str::OsString>, alloc::collections::btree::node::marker::LeafOrInternal>, alloc::collections::btree::node::marker::KV>" = type { %"core::marker::PhantomData<alloc::collections::btree::node::marker::KV>", { i64, i64* }, i64 }
%"core::marker::PhantomData<alloc::collections::btree::node::marker::KV>" = type {}
%"core::option::Option<alloc::collections::btree::node::Handle<alloc::collections::btree::node::NodeRef<alloc::collections::btree::node::marker::Dying, std::ffi::os_str::OsString, core::option::Option<std::ffi::os_str::OsString>, alloc::collections::btree::node::marker::LeafOrInternal>, alloc::collections::btree::node::marker::KV>>" = type { [1 x i64], {}*, [1 x i64] }
%"core::option::Option<alloc::collections::btree::node::Handle<alloc::collections::btree::node::NodeRef<alloc::collections::btree::node::marker::Dying, std::ffi::os_str::OsString, core::option::Option<std::ffi::os_str::OsString>, alloc::collections::btree::node::marker::LeafOrInternal>, alloc::collections::btree::node::marker::KV>>::Some" = type { %"alloc::collections::btree::node::Handle<alloc::collections::btree::node::NodeRef<alloc::collections::btree::node::marker::Dying, std::ffi::os_str::OsString, core::option::Option<std::ffi::os_str::OsString>, alloc::collections::btree::node::marker::LeafOrInternal>, alloc::collections::btree::node::marker::KV>" }
%"std::ffi::os_str::OsStr" = type { %"std::sys::unix::os_str::Slice" }
%"std::sys::unix::os_str::Slice" = type { [0 x i8] }
%"alloc::string::String" = type { %"alloc::vec::Vec<u8>" }
%"alloc::vec::Vec<u8>" = type { { i8*, i64 }, i64 }
%"std::path::Path" = type { %"std::ffi::os_str::OsStr" }
%"std::process::Command" = type { %"std::sys::unix::process::process_common::Command" }
%"std::sys::unix::process::process_common::Command" = type { { i8*, i64 }, %"alloc::vec::Vec<std::ffi::c_str::CString>", %"std::sys::unix::process::process_common::Argv", %"std::sys_common::process::CommandEnv", { i8*, i64 }, %"alloc::vec::Vec<alloc::boxed::Box<dyn core::ops::function::FnMut() -> core::result::Result<(), std::io::error::Error> + core::marker::Send + core::marker::Sync>>", { i32*, i64 }, { i32, i32 }, { i32, i32 }, { i32, i32 }, { i32, i32 }, { i32, i32 }, i8, i8, [6 x i8] }
%"alloc::vec::Vec<std::ffi::c_str::CString>" = type { { i64*, i64 }, i64 }
%"std::sys::unix::process::process_common::Argv" = type { %"alloc::vec::Vec<*const i8>" }
%"alloc::vec::Vec<*const i8>" = type { { i64*, i64 }, i64 }
%"std::sys_common::process::CommandEnv" = type { %"alloc::collections::btree::map::BTreeMap<std::ffi::os_str::OsString, core::option::Option<std::ffi::os_str::OsString>>", i8, i8, [6 x i8] }
%"alloc::vec::Vec<alloc::boxed::Box<dyn core::ops::function::FnMut() -> core::result::Result<(), std::io::error::Error> + core::marker::Send + core::marker::Sync>>" = type { { i64*, i64 }, i64 }
%"core::fmt::Formatter" = type { { i64, i64 }, { i64, i64 }, { {}*, [3 x i64]* }, i32, i32, i8, [7 x i8] }
%"core::fmt::Opaque" = type {}
%"core::fmt::Arguments" = type { { [0 x { [0 x i8]*, i64 }]*, i64 }, { i64*, i64 }, { [0 x { i8*, i64* }]*, i64 } }
%"core::panic::location::Location" = type { { [0 x i8]*, i64 }, i32, i32 }
%"core::mem::maybe_uninit::MaybeUninit<std::ffi::os_str::OsString>" = type { [3 x i64] }
%"std::ffi::os_str::OsString" = type { %"std::sys::unix::os_str::Buf" }
%"std::sys::unix::os_str::Buf" = type { %"alloc::vec::Vec<u8>" }
%"core::mem::maybe_uninit::MaybeUninit<core::option::Option<std::ffi::os_str::OsString>>" = type { [3 x i64] }
%"core::option::Option<std::ffi::os_str::OsString>" = type { {}*, [2 x i64] }
%"core::mem::manually_drop::ManuallyDrop<alloc::collections::btree::mem::replace::PanicGuard>" = type { %"alloc::collections::btree::mem::replace::PanicGuard" }
%"alloc::collections::btree::mem::replace::PanicGuard" = type {}
%"std::io::error::Repr" = type { i8, [15 x i8] }
%"std::io::error::Repr::Custom" = type { [1 x i64], %"std::io::error::Custom"* }
%"std::io::error::Custom" = type { { {}*, [3 x i64]* }, i8, [7 x i8] }
%"std::io::error::Error" = type { %"std::io::error::Repr" }
%"core::mem::maybe_uninit::MaybeUninit<alloc::collections::btree::map::BTreeMap<std::ffi::os_str::OsString, core::option::Option<std::ffi::os_str::OsString>>>" = type { [3 x i64] }
%"core::mem::manually_drop::ManuallyDrop<alloc::collections::btree::node::Handle<alloc::collections::btree::node::NodeRef<alloc::collections::btree::node::marker::Dying, std::ffi::os_str::OsString, core::option::Option<std::ffi::os_str::OsString>, alloc::collections::btree::node::marker::LeafOrInternal>, alloc::collections::btree::node::marker::KV>>" = type { %"alloc::collections::btree::node::Handle<alloc::collections::btree::node::NodeRef<alloc::collections::btree::node::marker::Dying, std::ffi::os_str::OsString, core::option::Option<std::ffi::os_str::OsString>, alloc::collections::btree::node::marker::LeafOrInternal>, alloc::collections::btree::node::marker::KV>" }
%"core::mem::maybe_uninit::MaybeUninit<alloc::collections::btree::node::Handle<alloc::collections::btree::node::NodeRef<alloc::collections::btree::node::marker::Dying, std::ffi::os_str::OsString, core::option::Option<std::ffi::os_str::OsString>, alloc::collections::btree::node::marker::LeafOrInternal>, alloc::collections::btree::node::marker::KV>>" = type { [3 x i64] }
%"core::mem::manually_drop::ManuallyDrop<core::option::Option<alloc::collections::btree::navigate::LazyLeafHandle<alloc::collections::btree::node::marker::Dying, std::ffi::os_str::OsString, core::option::Option<std::ffi::os_str::OsString>>>>" = type { %"core::option::Option<alloc::collections::btree::navigate::LazyLeafHandle<alloc::collections::btree::node::marker::Dying, std::ffi::os_str::OsString, core::option::Option<std::ffi::os_str::OsString>>>" }
%"core::mem::maybe_uninit::MaybeUninit<core::option::Option<alloc::collections::btree::navigate::LazyLeafHandle<alloc::collections::btree::node::marker::Dying, std::ffi::os_str::OsString, core::option::Option<std::ffi::os_str::OsString>>>>" = type { [4 x i64] }
%"alloc::collections::btree::node::Handle<alloc::collections::btree::node::NodeRef<alloc::collections::btree::node::marker::Dying, std::ffi::os_str::OsString, core::option::Option<std::ffi::os_str::OsString>, alloc::collections::btree::node::marker::Leaf>, alloc::collections::btree::node::marker::Edge>" = type { %"core::marker::PhantomData<alloc::collections::btree::node::marker::Edge>", { i64, i64* }, i64 }
%"core::marker::PhantomData<alloc::collections::btree::node::marker::Edge>" = type {}
%"core::mem::manually_drop::ManuallyDrop<alloc::collections::btree::node::Handle<alloc::collections::btree::node::NodeRef<alloc::collections::btree::node::marker::Dying, std::ffi::os_str::OsString, core::option::Option<std::ffi::os_str::OsString>, alloc::collections::btree::node::marker::Leaf>, alloc::collections::btree::node::marker::Edge>>" = type { %"alloc::collections::btree::node::Handle<alloc::collections::btree::node::NodeRef<alloc::collections::btree::node::marker::Dying, std::ffi::os_str::OsString, core::option::Option<std::ffi::os_str::OsString>, alloc::collections::btree::node::marker::Leaf>, alloc::collections::btree::node::marker::Edge>" }
%"core::mem::maybe_uninit::MaybeUninit<alloc::collections::btree::node::Handle<alloc::collections::btree::node::NodeRef<alloc::collections::btree::node::marker::Dying, std::ffi::os_str::OsString, core::option::Option<std::ffi::os_str::OsString>, alloc::collections::btree::node::marker::Leaf>, alloc::collections::btree::node::marker::Edge>>" = type { [3 x i64] }
%"std::sys::unix::process::process_common::Stdio::Fd" = type { [1 x i32], i32 }
%"core::option::Option<std::ffi::os_str::OsString>::Some" = type { %"std::ffi::os_str::OsString" }
%"core::ptr::metadata::PtrRepr<[u8]>" = type { [2 x i64] }
%"core::ptr::metadata::PtrRepr<[*const i8]>" = type { [2 x i64] }
%"core::ptr::metadata::PtrRepr<[alloc::boxed::Box<dyn core::ops::function::FnMut() -> core::result::Result<(), std::io::error::Error> + core::marker::Send + core::marker::Sync>]>" = type { [2 x i64] }
%"core::ptr::metadata::PtrRepr<[std::ffi::c_str::CString]>" = type { [2 x i64] }
%"alloc::collections::btree::node::LeafNode<std::ffi::os_str::OsString, core::option::Option<std::ffi::os_str::OsString>>" = type { i64*, [11 x %"core::mem::maybe_uninit::MaybeUninit<std::ffi::os_str::OsString>"], [11 x %"core::mem::maybe_uninit::MaybeUninit<core::option::Option<std::ffi::os_str::OsString>>"], i16, i16, [2 x i16] }
%"alloc::collections::btree::node::InternalNode<std::ffi::os_str::OsString, core::option::Option<std::ffi::os_str::OsString>>" = type { %"alloc::collections::btree::node::LeafNode<std::ffi::os_str::OsString, core::option::Option<std::ffi::os_str::OsString>>", [12 x i8*] }
%"core::option::Option<alloc::collections::btree::node::Handle<alloc::collections::btree::node::NodeRef<alloc::collections::btree::node::marker::Dying, std::ffi::os_str::OsString, core::option::Option<std::ffi::os_str::OsString>, alloc::collections::btree::node::marker::Internal>, alloc::collections::btree::node::marker::Edge>>" = type { [1 x i64], {}*, [1 x i64] }
%"alloc::collections::btree::node::Handle<alloc::collections::btree::node::NodeRef<alloc::collections::btree::node::marker::Dying, std::ffi::os_str::OsString, core::option::Option<std::ffi::os_str::OsString>, alloc::collections::btree::node::marker::Internal>, alloc::collections::btree::node::marker::Edge>" = type { %"core::marker::PhantomData<alloc::collections::btree::node::marker::Edge>", { i64, i64* }, i64 }
%"core::option::Option<alloc::collections::btree::node::Handle<alloc::collections::btree::node::NodeRef<alloc::collections::btree::node::marker::Dying, std::ffi::os_str::OsString, core::option::Option<std::ffi::os_str::OsString>, alloc::collections::btree::node::marker::Internal>, alloc::collections::btree::node::marker::Edge>>::Some" = type { %"alloc::collections::btree::node::Handle<alloc::collections::btree::node::NodeRef<alloc::collections::btree::node::marker::Dying, std::ffi::os_str::OsString, core::option::Option<std::ffi::os_str::OsString>, alloc::collections::btree::node::marker::Internal>, alloc::collections::btree::node::marker::Edge>" }
%"core::result::Result<alloc::collections::btree::node::Handle<alloc::collections::btree::node::NodeRef<alloc::collections::btree::node::marker::Dying, std::ffi::os_str::OsString, core::option::Option<std::ffi::os_str::OsString>, alloc::collections::btree::node::marker::Internal>, alloc::collections::btree::node::marker::Edge>, alloc::collections::btree::node::NodeRef<alloc::collections::btree::node::marker::Dying, std::ffi::os_str::OsString, core::option::Option<std::ffi::os_str::OsString>, alloc::collections::btree::node::marker::LeafOrInternal>>" = type { i64, [3 x i64] }
%"core::result::Result<alloc::collections::btree::node::Handle<alloc::collections::btree::node::NodeRef<alloc::collections::btree::node::marker::Dying, std::ffi::os_str::OsString, core::option::Option<std::ffi::os_str::OsString>, alloc::collections::btree::node::marker::Internal>, alloc::collections::btree::node::marker::Edge>, alloc::collections::btree::node::NodeRef<alloc::collections::btree::node::marker::Dying, std::ffi::os_str::OsString, core::option::Option<std::ffi::os_str::OsString>, alloc::collections::btree::node::marker::LeafOrInternal>>::Err" = type { [1 x i64], { i64, i64* } }
%"core::result::Result<alloc::collections::btree::node::Handle<alloc::collections::btree::node::NodeRef<alloc::collections::btree::node::marker::Dying, std::ffi::os_str::OsString, core::option::Option<std::ffi::os_str::OsString>, alloc::collections::btree::node::marker::Internal>, alloc::collections::btree::node::marker::Edge>, alloc::collections::btree::node::NodeRef<alloc::collections::btree::node::marker::Dying, std::ffi::os_str::OsString, core::option::Option<std::ffi::os_str::OsString>, alloc::collections::btree::node::marker::LeafOrInternal>>::Ok" = type { [1 x i64], %"alloc::collections::btree::node::Handle<alloc::collections::btree::node::NodeRef<alloc::collections::btree::node::marker::Dying, std::ffi::os_str::OsString, core::option::Option<std::ffi::os_str::OsString>, alloc::collections::btree::node::marker::Internal>, alloc::collections::btree::node::marker::Edge>" }
%"core::option::Option<(alloc::collections::btree::node::Handle<alloc::collections::btree::node::NodeRef<alloc::collections::btree::node::marker::Dying, std::ffi::os_str::OsString, core::option::Option<std::ffi::os_str::OsString>, alloc::collections::btree::node::marker::Leaf>, alloc::collections::btree::node::marker::Edge>, alloc::collections::btree::node::Handle<alloc::collections::btree::node::NodeRef<alloc::collections::btree::node::marker::Dying, std::ffi::os_str::OsString, core::option::Option<std::ffi::os_str::OsString>, alloc::collections::btree::node::marker::LeafOrInternal>, alloc::collections::btree::node::marker::KV>)>" = type { [1 x i64], {}*, [4 x i64] }
%"core::option::Option<(alloc::collections::btree::node::Handle<alloc::collections::btree::node::NodeRef<alloc::collections::btree::node::marker::Dying, std::ffi::os_str::OsString, core::option::Option<std::ffi::os_str::OsString>, alloc::collections::btree::node::marker::Leaf>, alloc::collections::btree::node::marker::Edge>, alloc::collections::btree::node::Handle<alloc::collections::btree::node::NodeRef<alloc::collections::btree::node::marker::Dying, std::ffi::os_str::OsString, core::option::Option<std::ffi::os_str::OsString>, alloc::collections::btree::node::marker::LeafOrInternal>, alloc::collections::btree::node::marker::KV>)>::Some" = type { { %"alloc::collections::btree::node::Handle<alloc::collections::btree::node::NodeRef<alloc::collections::btree::node::marker::Dying, std::ffi::os_str::OsString, core::option::Option<std::ffi::os_str::OsString>, alloc::collections::btree::node::marker::Leaf>, alloc::collections::btree::node::marker::Edge>", %"alloc::collections::btree::node::Handle<alloc::collections::btree::node::NodeRef<alloc::collections::btree::node::marker::Dying, std::ffi::os_str::OsString, core::option::Option<std::ffi::os_str::OsString>, alloc::collections::btree::node::marker::LeafOrInternal>, alloc::collections::btree::node::marker::KV>" } }
%"core::result::Result<std::process::ExitStatus, std::io::error::Error>" = type { i32, [5 x i32] }
%"core::result::Result<std::process::ExitStatus, std::io::error::Error>::Ok" = type { [1 x i32], i32 }
%"core::result::Result<std::process::ExitStatus, std::io::error::Error>::Err" = type { [1 x i64], %"std::io::error::Error" }
%"alloc::alloc::Global" = type {}
%"alloc::collections::btree::node::Handle<alloc::collections::btree::node::NodeRef<alloc::collections::btree::node::marker::Dying, std::ffi::os_str::OsString, core::option::Option<std::ffi::os_str::OsString>, alloc::collections::btree::node::marker::Internal>, alloc::collections::btree::node::marker::KV>" = type { %"core::marker::PhantomData<alloc::collections::btree::node::marker::KV>", { i64, i64* }, i64 }
%"alloc::collections::btree::node::Handle<alloc::collections::btree::node::NodeRef<alloc::collections::btree::node::marker::Dying, std::ffi::os_str::OsString, core::option::Option<std::ffi::os_str::OsString>, alloc::collections::btree::node::marker::Leaf>, alloc::collections::btree::node::marker::KV>" = type { %"core::marker::PhantomData<alloc::collections::btree::node::marker::KV>", { i64, i64* }, i64 }
%"alloc::collections::btree::node::Handle<alloc::collections::btree::node::NodeRef<alloc::collections::btree::node::marker::Dying, std::ffi::os_str::OsString, core::option::Option<std::ffi::os_str::OsString>, alloc::collections::btree::node::marker::LeafOrInternal>, alloc::collections::btree::node::marker::Edge>" = type { %"core::marker::PhantomData<alloc::collections::btree::node::marker::Edge>", { i64, i64* }, i64 }
%"core::result::Result<alloc::collections::btree::node::Handle<alloc::collections::btree::node::NodeRef<alloc::collections::btree::node::marker::Dying, std::ffi::os_str::OsString, core::option::Option<std::ffi::os_str::OsString>, alloc::collections::btree::node::marker::LeafOrInternal>, alloc::collections::btree::node::marker::KV>, alloc::collections::btree::node::Handle<alloc::collections::btree::node::NodeRef<alloc::collections::btree::node::marker::Dying, std::ffi::os_str::OsString, core::option::Option<std::ffi::os_str::OsString>, alloc::collections::btree::node::marker::LeafOrInternal>, alloc::collections::btree::node::marker::Edge>>" = type { i64, [3 x i64] }
%"core::result::Result<alloc::collections::btree::node::Handle<alloc::collections::btree::node::NodeRef<alloc::collections::btree::node::marker::Dying, std::ffi::os_str::OsString, core::option::Option<std::ffi::os_str::OsString>, alloc::collections::btree::node::marker::LeafOrInternal>, alloc::collections::btree::node::marker::KV>, alloc::collections::btree::node::Handle<alloc::collections::btree::node::NodeRef<alloc::collections::btree::node::marker::Dying, std::ffi::os_str::OsString, core::option::Option<std::ffi::os_str::OsString>, alloc::collections::btree::node::marker::LeafOrInternal>, alloc::collections::btree::node::marker::Edge>>::Err" = type { [1 x i64], %"alloc::collections::btree::node::Handle<alloc::collections::btree::node::NodeRef<alloc::collections::btree::node::marker::Dying, std::ffi::os_str::OsString, core::option::Option<std::ffi::os_str::OsString>, alloc::collections::btree::node::marker::LeafOrInternal>, alloc::collections::btree::node::marker::Edge>" }
%"core::result::Result<alloc::collections::btree::node::Handle<alloc::collections::btree::node::NodeRef<alloc::collections::btree::node::marker::Dying, std::ffi::os_str::OsString, core::option::Option<std::ffi::os_str::OsString>, alloc::collections::btree::node::marker::LeafOrInternal>, alloc::collections::btree::node::marker::KV>, alloc::collections::btree::node::Handle<alloc::collections::btree::node::NodeRef<alloc::collections::btree::node::marker::Dying, std::ffi::os_str::OsString, core::option::Option<std::ffi::os_str::OsString>, alloc::collections::btree::node::marker::LeafOrInternal>, alloc::collections::btree::node::marker::Edge>>::Ok" = type { [1 x i64], %"alloc::collections::btree::node::Handle<alloc::collections::btree::node::NodeRef<alloc::collections::btree::node::marker::Dying, std::ffi::os_str::OsString, core::option::Option<std::ffi::os_str::OsString>, alloc::collections::btree::node::marker::LeafOrInternal>, alloc::collections::btree::node::marker::KV>" }
%"alloc::collections::btree::node::ForceResult<alloc::collections::btree::node::Handle<alloc::collections::btree::node::NodeRef<alloc::collections::btree::node::marker::Dying, std::ffi::os_str::OsString, core::option::Option<std::ffi::os_str::OsString>, alloc::collections::btree::node::marker::Leaf>, alloc::collections::btree::node::marker::KV>, alloc::collections::btree::node::Handle<alloc::collections::btree::node::NodeRef<alloc::collections::btree::node::marker::Dying, std::ffi::os_str::OsString, core::option::Option<std::ffi::os_str::OsString>, alloc::collections::btree::node::marker::Internal>, alloc::collections::btree::node::marker::KV>>" = type { i64, [3 x i64] }
%"alloc::collections::btree::node::ForceResult<alloc::collections::btree::node::NodeRef<alloc::collections::btree::node::marker::Dying, std::ffi::os_str::OsString, core::option::Option<std::ffi::os_str::OsString>, alloc::collections::btree::node::marker::Leaf>, alloc::collections::btree::node::NodeRef<alloc::collections::btree::node::marker::Dying, std::ffi::os_str::OsString, core::option::Option<std::ffi::os_str::OsString>, alloc::collections::btree::node::marker::Internal>>" = type { i64, [2 x i64] }
%"alloc::collections::btree::node::ForceResult<alloc::collections::btree::node::NodeRef<alloc::collections::btree::node::marker::Dying, std::ffi::os_str::OsString, core::option::Option<std::ffi::os_str::OsString>, alloc::collections::btree::node::marker::Leaf>, alloc::collections::btree::node::NodeRef<alloc::collections::btree::node::marker::Dying, std::ffi::os_str::OsString, core::option::Option<std::ffi::os_str::OsString>, alloc::collections::btree::node::marker::Internal>>::Leaf" = type { [1 x i64], { i64, i64* } }
%"alloc::collections::btree::node::ForceResult<alloc::collections::btree::node::Handle<alloc::collections::btree::node::NodeRef<alloc::collections::btree::node::marker::Dying, std::ffi::os_str::OsString, core::option::Option<std::ffi::os_str::OsString>, alloc::collections::btree::node::marker::Leaf>, alloc::collections::btree::node::marker::KV>, alloc::collections::btree::node::Handle<alloc::collections::btree::node::NodeRef<alloc::collections::btree::node::marker::Dying, std::ffi::os_str::OsString, core::option::Option<std::ffi::os_str::OsString>, alloc::collections::btree::node::marker::Internal>, alloc::collections::btree::node::marker::KV>>::Leaf" = type { [1 x i64], %"alloc::collections::btree::node::Handle<alloc::collections::btree::node::NodeRef<alloc::collections::btree::node::marker::Dying, std::ffi::os_str::OsString, core::option::Option<std::ffi::os_str::OsString>, alloc::collections::btree::node::marker::Leaf>, alloc::collections::btree::node::marker::KV>" }
%"alloc::collections::btree::node::ForceResult<alloc::collections::btree::node::NodeRef<alloc::collections::btree::node::marker::Dying, std::ffi::os_str::OsString, core::option::Option<std::ffi::os_str::OsString>, alloc::collections::btree::node::marker::Leaf>, alloc::collections::btree::node::NodeRef<alloc::collections::btree::node::marker::Dying, std::ffi::os_str::OsString, core::option::Option<std::ffi::os_str::OsString>, alloc::collections::btree::node::marker::Internal>>::Internal" = type { [1 x i64], { i64, i64* } }
%"alloc::collections::btree::node::ForceResult<alloc::collections::btree::node::Handle<alloc::collections::btree::node::NodeRef<alloc::collections::btree::node::marker::Dying, std::ffi::os_str::OsString, core::option::Option<std::ffi::os_str::OsString>, alloc::collections::btree::node::marker::Leaf>, alloc::collections::btree::node::marker::KV>, alloc::collections::btree::node::Handle<alloc::collections::btree::node::NodeRef<alloc::collections::btree::node::marker::Dying, std::ffi::os_str::OsString, core::option::Option<std::ffi::os_str::OsString>, alloc::collections::btree::node::marker::Internal>, alloc::collections::btree::node::marker::KV>>::Internal" = type { [1 x i64], %"alloc::collections::btree::node::Handle<alloc::collections::btree::node::NodeRef<alloc::collections::btree::node::marker::Dying, std::ffi::os_str::OsString, core::option::Option<std::ffi::os_str::OsString>, alloc::collections::btree::node::marker::Internal>, alloc::collections::btree::node::marker::KV>" }
%"alloc::collections::btree::navigate::LazyLeafHandle<alloc::collections::btree::node::marker::Dying, std::ffi::os_str::OsString, core::option::Option<std::ffi::os_str::OsString>>" = type { i64, [3 x i64] }
%"alloc::collections::btree::navigate::LazyLeafHandle<alloc::collections::btree::node::marker::Dying, std::ffi::os_str::OsString, core::option::Option<std::ffi::os_str::OsString>>::Root" = type { [1 x i64], { i64, i64* } }
%"core::option::Option<alloc::collections::btree::navigate::LazyLeafHandle<alloc::collections::btree::node::marker::Dying, std::ffi::os_str::OsString, core::option::Option<std::ffi::os_str::OsString>>>::Some" = type { %"alloc::collections::btree::navigate::LazyLeafHandle<alloc::collections::btree::node::marker::Dying, std::ffi::os_str::OsString, core::option::Option<std::ffi::os_str::OsString>>" }
%"alloc::collections::btree::navigate::LazyLeafHandle<alloc::collections::btree::node::marker::Dying, std::ffi::os_str::OsString, core::option::Option<std::ffi::os_str::OsString>>::Edge" = type { [1 x i64], %"alloc::collections::btree::node::Handle<alloc::collections::btree::node::NodeRef<alloc::collections::btree::node::marker::Dying, std::ffi::os_str::OsString, core::option::Option<std::ffi::os_str::OsString>, alloc::collections::btree::node::marker::Leaf>, alloc::collections::btree::node::marker::Edge>" }
%"core::option::Option<alloc::collections::btree::node::Handle<alloc::collections::btree::node::NodeRef<alloc::collections::btree::node::marker::Dying, std::ffi::os_str::OsString, core::option::Option<std::ffi::os_str::OsString>, alloc::collections::btree::node::marker::Leaf>, alloc::collections::btree::node::marker::Edge>>" = type { [1 x i64], {}*, [1 x i64] }
%"core::ops::control_flow::ControlFlow<core::option::Option<core::convert::Infallible>, alloc::collections::btree::navigate::LazyLeafHandle<alloc::collections::btree::node::marker::Dying, std::ffi::os_str::OsString, core::option::Option<std::ffi::os_str::OsString>>>" = type { i64, [3 x i64] }
%"core::ops::control_flow::ControlFlow<core::option::Option<core::convert::Infallible>, alloc::collections::btree::navigate::LazyLeafHandle<alloc::collections::btree::node::marker::Dying, std::ffi::os_str::OsString, core::option::Option<std::ffi::os_str::OsString>>>::Continue" = type { %"alloc::collections::btree::navigate::LazyLeafHandle<alloc::collections::btree::node::marker::Dying, std::ffi::os_str::OsString, core::option::Option<std::ffi::os_str::OsString>>" }
%"core::option::Option<alloc::collections::btree::node::Handle<alloc::collections::btree::node::NodeRef<alloc::collections::btree::node::marker::Dying, std::ffi::os_str::OsString, core::option::Option<std::ffi::os_str::OsString>, alloc::collections::btree::node::marker::Leaf>, alloc::collections::btree::node::marker::Edge>>::Some" = type { %"alloc::collections::btree::node::Handle<alloc::collections::btree::node::NodeRef<alloc::collections::btree::node::marker::Dying, std::ffi::os_str::OsString, core::option::Option<std::ffi::os_str::OsString>, alloc::collections::btree::node::marker::Leaf>, alloc::collections::btree::node::marker::Edge>" }
%"core::option::Option<(core::ptr::non_null::NonNull<u8>, core::alloc::layout::Layout)>" = type { {}*, [2 x i64] }
%"core::option::Option<(core::ptr::non_null::NonNull<u8>, core::alloc::layout::Layout)>::Some" = type { { i8*, { i64, i64 } } }
%"unwind::libunwind::_Unwind_Exception" = type { i64, void (i32, %"unwind::libunwind::_Unwind_Exception"*)*, [6 x i64] }
%"unwind::libunwind::_Unwind_Context" = type { [0 x i8] }

@vtable.0 = private unnamed_addr constant <{ i8*, [16 x i8], i8*, i8*, i8*, [0 x i8] }> <{ i8* bitcast (void (i64**)* @"_ZN4core3ptr85drop_in_place$LT$std..rt..lang_start$LT$$LP$$RP$$GT$..$u7b$$u7b$closure$u7d$$u7d$$GT$17h31dbc2a5520f2ab6E" to i8*), [16 x i8] c"\08\00\00\00\00\00\00\00\08\00\00\00\00\00\00\00", i8* bitcast (i32 (i64**)* @"_ZN4core3ops8function6FnOnce40call_once$u7b$$u7b$vtable.shim$u7d$$u7d$17h8e0590596bc72608E" to i8*), i8* bitcast (i32 (i64**)* @"_ZN3std2rt10lang_start28_$u7b$$u7b$closure$u7d$$u7d$17h95f0280e2046279fE" to i8*), i8* bitcast (i32 (i64**)* @"_ZN3std2rt10lang_start28_$u7b$$u7b$closure$u7d$$u7d$17h95f0280e2046279fE" to i8*), [0 x i8] zeroinitializer }>, align 8
@alloc77 = private unnamed_addr constant <{ [12 x i8] }> <{ [12 x i8] c"invalid args" }>, align 1
@alloc78 = private unnamed_addr constant <{ [75 x i8] }> <{ [75 x i8] c"/rustc/34926f0a1681458588a2d4240c0715ef9eff7d35/library/core/src/fmt/mod.rs" }>, align 1
@alloc79 = private unnamed_addr constant <{ i8*, [16 x i8] }> <{ i8* getelementptr inbounds (<{ [75 x i8] }>, <{ [75 x i8] }>* @alloc78, i32 0, i32 0, i32 0), [16 x i8] c"K\00\00\00\00\00\00\00k\01\00\00\0D\00\00\00" }>, align 8
@alloc80 = private unnamed_addr constant <{ [75 x i8] }> <{ [75 x i8] c"/rustc/34926f0a1681458588a2d4240c0715ef9eff7d35/library/core/src/ptr/mod.rs" }>, align 1
@alloc81 = private unnamed_addr constant <{ i8*, [16 x i8] }> <{ i8* getelementptr inbounds (<{ [75 x i8] }>, <{ [75 x i8] }>* @alloc80, i32 0, i32 0, i32 0), [16 x i8] c"K\00\00\00\00\00\00\00\BE\02\00\00\0D\00\00\00" }>, align 8
@alloc83 = private unnamed_addr constant <{ [43 x i8] }> <{ [43 x i8] c"called `Option::unwrap()` on a `None` value" }>, align 1
@alloc84 = private unnamed_addr constant <{ [43 x i8] }> <{ [43 x i8] c"called `Result::unwrap()` on an `Err` value" }>, align 1
@vtable.1 = private unnamed_addr constant <{ i8*, [16 x i8], i8*, [0 x i8] }> <{ i8* bitcast (void (%"std::io::error::Error"*)* @"_ZN4core3ptr42drop_in_place$LT$std..io..error..Error$GT$17h69c1f2da8cb094e7E" to i8*), [16 x i8] c"\10\00\00\00\00\00\00\00\08\00\00\00\00\00\00\00", i8* bitcast (i1 (%"std::io::error::Error"*, %"core::fmt::Formatter"*)* @"_ZN58_$LT$std..io..error..Error$u20$as$u20$core..fmt..Debug$GT$3fmt17h7ced4ac19d2a5261E" to i8*), [0 x i8] zeroinitializer }>, align 8
@alloc41 = private unnamed_addr constant <{ [0 x i8] }> zeroinitializer, align 8
@alloc93 = private unnamed_addr constant <{ [47 x i8] }> <{ [47 x i8] c"assertion failed: BorrowType::PERMITS_TRAVERSAL" }>, align 1
@alloc96 = private unnamed_addr constant <{ [91 x i8] }> <{ [91 x i8] c"/rustc/34926f0a1681458588a2d4240c0715ef9eff7d35/library/alloc/src/collections/btree/node.rs" }>, align 1
@alloc90 = private unnamed_addr constant <{ i8*, [16 x i8] }> <{ i8* getelementptr inbounds (<{ [91 x i8] }>, <{ [91 x i8] }>* @alloc96, i32 0, i32 0, i32 0), [16 x i8] c"[\00\00\00\00\00\00\00\E5\03\00\00\09\00\00\00" }>, align 8
@alloc92 = private unnamed_addr constant <{ i8*, [16 x i8] }> <{ i8* getelementptr inbounds (<{ [91 x i8] }>, <{ [91 x i8] }>* @alloc96, i32 0, i32 0, i32 0), [16 x i8] c"[\00\00\00\00\00\00\00\EE\03\00\00I\00\00\00" }>, align 8
@alloc95 = private unnamed_addr constant <{ i8*, [16 x i8] }> <{ i8* getelementptr inbounds (<{ [91 x i8] }>, <{ [91 x i8] }>* @alloc96, i32 0, i32 0, i32 0), [16 x i8] c"[\00\00\00\00\00\00\00>\01\00\00\09\00\00\00" }>, align 8
@alloc97 = private unnamed_addr constant <{ i8*, [16 x i8] }> <{ i8* getelementptr inbounds (<{ [91 x i8] }>, <{ [91 x i8] }>* @alloc96, i32 0, i32 0, i32 0), [16 x i8] c"[\00\00\00\00\00\00\00F\01\00\00B\00\00\00" }>, align 8
@alloc100 = private unnamed_addr constant <{ [95 x i8] }> <{ [95 x i8] c"/rustc/34926f0a1681458588a2d4240c0715ef9eff7d35/library/alloc/src/collections/btree/navigate.rs" }>, align 1
@alloc99 = private unnamed_addr constant <{ i8*, [16 x i8] }> <{ i8* getelementptr inbounds (<{ [95 x i8] }>, <{ [95 x i8] }>* @alloc100, i32 0, i32 0, i32 0), [16 x i8] c"_\00\00\00\00\00\00\00?\02\00\00V\00\00\00" }>, align 8
@alloc101 = private unnamed_addr constant <{ i8*, [16 x i8] }> <{ i8* getelementptr inbounds (<{ [95 x i8] }>, <{ [95 x i8] }>* @alloc100, i32 0, i32 0, i32 0), [16 x i8] c"_\00\00\00\00\00\00\00\B8\00\00\00'\00\00\00" }>, align 8
@alloc28 = private unnamed_addr constant <{ [3 x i8] }> <{ [3 x i8] c"out" }>, align 1
@alloc103 = private unnamed_addr constant <{ [7 x i8] }> <{ [7 x i8] c"clang++" }>, align 1
@alloc9 = private unnamed_addr constant <{ [20 x i8] }> <{ [20 x i8] c"src/thread_local.cpp" }>, align 1
@alloc5 = private unnamed_addr constant <{ [3 x i8] }> <{ [3 x i8] c"-O3" }>, align 1
@alloc6 = private unnamed_addr constant <{ [10 x i8] }> <{ [10 x i8] c"-std=c++17" }>, align 1
@alloc7 = private unnamed_addr constant <{ [2 x i8] }> <{ [2 x i8] c"-c" }>, align 1
@alloc8 = private unnamed_addr constant <{ [2 x i8] }> <{ [2 x i8] c"-o" }>, align 1
@alloc10 = private unnamed_addr constant <{ i8*, [8 x i8], i8*, [8 x i8], i8*, [8 x i8], i8*, [8 x i8], i8*, [8 x i8] }> <{ i8* getelementptr inbounds (<{ [20 x i8] }>, <{ [20 x i8] }>* @alloc9, i32 0, i32 0, i32 0), [8 x i8] c"\14\00\00\00\00\00\00\00", i8* getelementptr inbounds (<{ [3 x i8] }>, <{ [3 x i8] }>* @alloc5, i32 0, i32 0, i32 0), [8 x i8] c"\03\00\00\00\00\00\00\00", i8* getelementptr inbounds (<{ [10 x i8] }>, <{ [10 x i8] }>* @alloc6, i32 0, i32 0, i32 0), [8 x i8] c"\0A\00\00\00\00\00\00\00", i8* getelementptr inbounds (<{ [2 x i8] }>, <{ [2 x i8] }>* @alloc7, i32 0, i32 0, i32 0), [8 x i8] c"\02\00\00\00\00\00\00\00", i8* getelementptr inbounds (<{ [2 x i8] }>, <{ [2 x i8] }>* @alloc8, i32 0, i32 0, i32 0), [8 x i8] c"\02\00\00\00\00\00\00\00" }>, align 8
@alloc14 = private unnamed_addr constant <{ [15 x i8] }> <{ [15 x i8] c"/thread_local.o" }>, align 1
@alloc13 = private unnamed_addr constant <{ i8*, [8 x i8], i8*, [8 x i8] }> <{ i8* getelementptr inbounds (<{ [0 x i8] }>, <{ [0 x i8] }>* @alloc41, i32 0, i32 0, i32 0), [8 x i8] zeroinitializer, i8* getelementptr inbounds (<{ [15 x i8] }>, <{ [15 x i8] }>* @alloc14, i32 0, i32 0, i32 0), [8 x i8] c"\0F\00\00\00\00\00\00\00" }>, align 8
@alloc107 = private unnamed_addr constant <{ [47 x i8] }> <{ [47 x i8] c"/home/cj/OOM/allocator/allocator_crate/build.rs" }>, align 1
@alloc105 = private unnamed_addr constant <{ i8*, [16 x i8] }> <{ i8* getelementptr inbounds (<{ [47 x i8] }>, <{ [47 x i8] }>* @alloc107, i32 0, i32 0, i32 0), [16 x i8] c"/\00\00\00\00\00\00\00\0A\00\00\00\06\00\00\00" }>, align 8
@alloc106 = private unnamed_addr constant <{ [2 x i8] }> <{ [2 x i8] c"ar" }>, align 1
@alloc21 = private unnamed_addr constant <{ [4 x i8] }> <{ [4 x i8] c"crus" }>, align 1
@alloc19 = private unnamed_addr constant <{ [17 x i8] }> <{ [17 x i8] c"libthread_local.a" }>, align 1
@alloc20 = private unnamed_addr constant <{ [14 x i8] }> <{ [14 x i8] c"thread_local.o" }>, align 1
@alloc22 = private unnamed_addr constant <{ i8*, [8 x i8], i8*, [8 x i8], i8*, [8 x i8] }> <{ i8* getelementptr inbounds (<{ [4 x i8] }>, <{ [4 x i8] }>* @alloc21, i32 0, i32 0, i32 0), [8 x i8] c"\04\00\00\00\00\00\00\00", i8* getelementptr inbounds (<{ [17 x i8] }>, <{ [17 x i8] }>* @alloc19, i32 0, i32 0, i32 0), [8 x i8] c"\11\00\00\00\00\00\00\00", i8* getelementptr inbounds (<{ [14 x i8] }>, <{ [14 x i8] }>* @alloc20, i32 0, i32 0, i32 0), [8 x i8] c"\0E\00\00\00\00\00\00\00" }>, align 8
@alloc108 = private unnamed_addr constant <{ i8*, [16 x i8] }> <{ i8* getelementptr inbounds (<{ [47 x i8] }>, <{ [47 x i8] }>* @alloc107, i32 0, i32 0, i32 0), [16 x i8] c"/\00\00\00\00\00\00\00\0F\00\00\00\06\00\00\00" }>, align 8
@alloc24 = private unnamed_addr constant <{ [31 x i8] }> <{ [31 x i8] c"cargo:rustc-link-search=native=" }>, align 1
@alloc26 = private unnamed_addr constant <{ [1 x i8] }> <{ [1 x i8] c"\0A" }>, align 1
@alloc25 = private unnamed_addr constant <{ i8*, [8 x i8], i8*, [8 x i8] }> <{ i8* getelementptr inbounds (<{ [31 x i8] }>, <{ [31 x i8] }>* @alloc24, i32 0, i32 0, i32 0), [8 x i8] c"\1F\00\00\00\00\00\00\00", i8* getelementptr inbounds (<{ [1 x i8] }>, <{ [1 x i8] }>* @alloc26, i32 0, i32 0, i32 0), [8 x i8] c"\01\00\00\00\00\00\00\00" }>, align 8
@alloc29 = private unnamed_addr constant <{ i8*, [8 x i8] }> <{ i8* getelementptr inbounds (<{ [3 x i8] }>, <{ [3 x i8] }>* @alloc28, i32 0, i32 0, i32 0), [8 x i8] c"\03\00\00\00\00\00\00\00" }>, align 8
@alloc33 = private unnamed_addr constant <{ [41 x i8] }> <{ [41 x i8] c"cargo:rustc-link-lib=static=thread_local\0A" }>, align 1
@alloc34 = private unnamed_addr constant <{ i8*, [8 x i8] }> <{ i8* getelementptr inbounds (<{ [41 x i8] }>, <{ [41 x i8] }>* @alloc33, i32 0, i32 0, i32 0), [8 x i8] c")\00\00\00\00\00\00\00" }>, align 8
@alloc38 = private unnamed_addr constant <{ [42 x i8] }> <{ [42 x i8] c"cargo:rerun-if-changed=src/thread_local.c\0A" }>, align 1
@alloc39 = private unnamed_addr constant <{ i8*, [8 x i8] }> <{ i8* getelementptr inbounds (<{ [42 x i8] }>, <{ [42 x i8] }>* @alloc38, i32 0, i32 0, i32 0), [8 x i8] c"*\00\00\00\00\00\00\00" }>, align 8

; <alloc::collections::btree::map::BTreeMap<K,V> as core::iter::traits::collect::IntoIterator>::into_iter
; Function Attrs: nonlazybind uwtable
define internal void @"_ZN115_$LT$alloc..collections..btree..map..BTreeMap$LT$K$C$V$GT$$u20$as$u20$core..iter..traits..collect..IntoIterator$GT$9into_iter17habafdac253f91bc9E"(%"alloc::collections::btree::map::IntoIter<std::ffi::os_str::OsString, core::option::Option<std::ffi::os_str::OsString>>"* noalias nocapture sret(%"alloc::collections::btree::map::IntoIter<std::ffi::os_str::OsString, core::option::Option<std::ffi::os_str::OsString>>") dereferenceable(72) %0, %"alloc::collections::btree::map::BTreeMap<std::ffi::os_str::OsString, core::option::Option<std::ffi::os_str::OsString>>"* noalias nocapture dereferenceable(24) %self) unnamed_addr #0 {
start:
  %_2.i = alloca %"alloc::collections::btree::map::BTreeMap<std::ffi::os_str::OsString, core::option::Option<std::ffi::os_str::OsString>>", align 8
  %_17 = alloca %"alloc::collections::btree::navigate::LazyLeafRange<alloc::collections::btree::node::marker::Dying, std::ffi::os_str::OsString, core::option::Option<std::ffi::os_str::OsString>>", align 8
  %_13 = alloca %"alloc::collections::btree::navigate::LazyLeafRange<alloc::collections::btree::node::marker::Dying, std::ffi::os_str::OsString, core::option::Option<std::ffi::os_str::OsString>>", align 8
  %full_range = alloca %"alloc::collections::btree::navigate::LazyLeafRange<alloc::collections::btree::node::marker::Dying, std::ffi::os_str::OsString, core::option::Option<std::ffi::os_str::OsString>>", align 8
  %_4 = alloca { i64, i64* }, align 8
  %_3 = alloca %"alloc::collections::btree::map::BTreeMap<std::ffi::os_str::OsString, core::option::Option<std::ffi::os_str::OsString>>", align 8
  %me = alloca %"core::mem::manually_drop::ManuallyDrop<alloc::collections::btree::map::BTreeMap<std::ffi::os_str::OsString, core::option::Option<std::ffi::os_str::OsString>>>", align 8
  %1 = bitcast %"alloc::collections::btree::map::BTreeMap<std::ffi::os_str::OsString, core::option::Option<std::ffi::os_str::OsString>>"* %_3 to i8*
  %2 = bitcast %"alloc::collections::btree::map::BTreeMap<std::ffi::os_str::OsString, core::option::Option<std::ffi::os_str::OsString>>"* %self to i8*
  call void @llvm.memcpy.p0i8.p0i8.i64(i8* align 8 %1, i8* align 8 %2, i64 24, i1 false)
  call void @llvm.experimental.noalias.scope.decl(metadata !3)
  call void @llvm.experimental.noalias.scope.decl(metadata !6)
  %3 = bitcast %"alloc::collections::btree::map::BTreeMap<std::ffi::os_str::OsString, core::option::Option<std::ffi::os_str::OsString>>"* %_2.i to i8*
  %4 = bitcast %"alloc::collections::btree::map::BTreeMap<std::ffi::os_str::OsString, core::option::Option<std::ffi::os_str::OsString>>"* %_3 to i8*
  call void @llvm.memcpy.p0i8.p0i8.i64(i8* align 8 %3, i8* align 8 %4, i64 24, i1 false), !noalias !3
  %5 = bitcast %"core::mem::manually_drop::ManuallyDrop<alloc::collections::btree::map::BTreeMap<std::ffi::os_str::OsString, core::option::Option<std::ffi::os_str::OsString>>>"* %me to %"alloc::collections::btree::map::BTreeMap<std::ffi::os_str::OsString, core::option::Option<std::ffi::os_str::OsString>>"*
  %6 = bitcast %"alloc::collections::btree::map::BTreeMap<std::ffi::os_str::OsString, core::option::Option<std::ffi::os_str::OsString>>"* %5 to i8*
  %7 = bitcast %"alloc::collections::btree::map::BTreeMap<std::ffi::os_str::OsString, core::option::Option<std::ffi::os_str::OsString>>"* %_2.i to i8*
  call void @llvm.memcpy.p0i8.p0i8.i64(i8* align 8 %6, i8* align 8 %7, i64 24, i1 false), !noalias !6
  br label %bb1

bb1:                                              ; preds = %start
  %_3.i = bitcast %"core::mem::manually_drop::ManuallyDrop<alloc::collections::btree::map::BTreeMap<std::ffi::os_str::OsString, core::option::Option<std::ffi::os_str::OsString>>>"* %me to %"alloc::collections::btree::map::BTreeMap<std::ffi::os_str::OsString, core::option::Option<std::ffi::os_str::OsString>>"*
  br label %bb2

bb2:                                              ; preds = %bb1
  %_5 = bitcast %"alloc::collections::btree::map::BTreeMap<std::ffi::os_str::OsString, core::option::Option<std::ffi::os_str::OsString>>"* %_3.i to { i64, i64* }*
; call core::option::Option<T>::take
  %8 = call { i64, i64* } @"_ZN4core6option15Option$LT$T$GT$4take17h606b20b8c8ffbee5E"({ i64, i64* }* align 8 dereferenceable(16) %_5)
  store { i64, i64* } %8, { i64, i64* }* %_4, align 8
  br label %bb3

bb3:                                              ; preds = %bb2
  %9 = getelementptr inbounds { i64, i64* }, { i64, i64* }* %_4, i32 0, i32 1
  %10 = bitcast i64** %9 to {}**
  %11 = load {}*, {}** %10, align 8
  %12 = icmp eq {}* %11, null
  %_8 = select i1 %12, i64 0, i64 1
  %13 = icmp eq i64 %_8, 1
  br i1 %13, label %bb4, label %bb8

bb4:                                              ; preds = %bb3
  %14 = getelementptr inbounds { i64, i64* }, { i64, i64* }* %_4, i32 0, i32 0
  %root.0 = load i64, i64* %14, align 8
  %15 = getelementptr inbounds { i64, i64* }, { i64, i64* }* %_4, i32 0, i32 1
  %root.1 = load i64*, i64** %15, align 8, !nonnull !8
; call alloc::collections::btree::node::NodeRef<alloc::collections::btree::node::marker::Owned,K,V,Type>::into_dying
  %16 = call { i64, i64* } @"_ZN5alloc11collections5btree4node76NodeRef$LT$alloc..collections..btree..node..marker..Owned$C$K$C$V$C$Type$GT$10into_dying17h98d21bc7683db8dfE"(i64 %root.0, i64* nonnull %root.1)
  %_11.0 = extractvalue { i64, i64* } %16, 0
  %_11.1 = extractvalue { i64, i64* } %16, 1
  br label %bb5

bb8:                                              ; preds = %bb3
; call alloc::collections::btree::navigate::LazyLeafRange<BorrowType,K,V>::none
  call void @"_ZN5alloc11collections5btree8navigate39LazyLeafRange$LT$BorrowType$C$K$C$V$GT$4none17h5edb4c4ab1718d7fE"(%"alloc::collections::btree::navigate::LazyLeafRange<alloc::collections::btree::node::marker::Dying, std::ffi::os_str::OsString, core::option::Option<std::ffi::os_str::OsString>>"* noalias nocapture sret(%"alloc::collections::btree::navigate::LazyLeafRange<alloc::collections::btree::node::marker::Dying, std::ffi::os_str::OsString, core::option::Option<std::ffi::os_str::OsString>>") dereferenceable(64) %_17)
  br label %bb9

bb9:                                              ; preds = %bb8
  %17 = bitcast %"alloc::collections::btree::map::IntoIter<std::ffi::os_str::OsString, core::option::Option<std::ffi::os_str::OsString>>"* %0 to %"alloc::collections::btree::navigate::LazyLeafRange<alloc::collections::btree::node::marker::Dying, std::ffi::os_str::OsString, core::option::Option<std::ffi::os_str::OsString>>"*
  %18 = bitcast %"alloc::collections::btree::navigate::LazyLeafRange<alloc::collections::btree::node::marker::Dying, std::ffi::os_str::OsString, core::option::Option<std::ffi::os_str::OsString>>"* %17 to i8*
  %19 = bitcast %"alloc::collections::btree::navigate::LazyLeafRange<alloc::collections::btree::node::marker::Dying, std::ffi::os_str::OsString, core::option::Option<std::ffi::os_str::OsString>>"* %_17 to i8*
  call void @llvm.memcpy.p0i8.p0i8.i64(i8* align 8 %18, i8* align 8 %19, i64 64, i1 false)
  %20 = getelementptr inbounds %"alloc::collections::btree::map::IntoIter<std::ffi::os_str::OsString, core::option::Option<std::ffi::os_str::OsString>>", %"alloc::collections::btree::map::IntoIter<std::ffi::os_str::OsString, core::option::Option<std::ffi::os_str::OsString>>"* %0, i32 0, i32 1
  store i64 0, i64* %20, align 8
  br label %bb10

bb10:                                             ; preds = %bb7, %bb9
  ret void

bb5:                                              ; preds = %bb4
; call alloc::collections::btree::navigate::<impl alloc::collections::btree::node::NodeRef<alloc::collections::btree::node::marker::Dying,K,V,alloc::collections::btree::node::marker::LeafOrInternal>>::full_range
  call void @"_ZN5alloc11collections5btree8navigate178_$LT$impl$u20$alloc..collections..btree..node..NodeRef$LT$alloc..collections..btree..node..marker..Dying$C$K$C$V$C$alloc..collections..btree..node..marker..LeafOrInternal$GT$$GT$10full_range17h724775f31bc67eaeE"(%"alloc::collections::btree::navigate::LazyLeafRange<alloc::collections::btree::node::marker::Dying, std::ffi::os_str::OsString, core::option::Option<std::ffi::os_str::OsString>>"* noalias nocapture sret(%"alloc::collections::btree::navigate::LazyLeafRange<alloc::collections::btree::node::marker::Dying, std::ffi::os_str::OsString, core::option::Option<std::ffi::os_str::OsString>>") dereferenceable(64) %full_range, i64 %_11.0, i64* nonnull %_11.1)
  br label %bb6

bb6:                                              ; preds = %bb5
  %21 = bitcast %"alloc::collections::btree::navigate::LazyLeafRange<alloc::collections::btree::node::marker::Dying, std::ffi::os_str::OsString, core::option::Option<std::ffi::os_str::OsString>>"* %_13 to i8*
  %22 = bitcast %"alloc::collections::btree::navigate::LazyLeafRange<alloc::collections::btree::node::marker::Dying, std::ffi::os_str::OsString, core::option::Option<std::ffi::os_str::OsString>>"* %full_range to i8*
  call void @llvm.memcpy.p0i8.p0i8.i64(i8* align 8 %21, i8* align 8 %22, i64 64, i1 false)
  %23 = bitcast %"core::mem::manually_drop::ManuallyDrop<alloc::collections::btree::map::BTreeMap<std::ffi::os_str::OsString, core::option::Option<std::ffi::os_str::OsString>>>"* %me to %"alloc::collections::btree::map::BTreeMap<std::ffi::os_str::OsString, core::option::Option<std::ffi::os_str::OsString>>"*
  br label %bb7

bb7:                                              ; preds = %bb6
  %24 = getelementptr inbounds %"alloc::collections::btree::map::BTreeMap<std::ffi::os_str::OsString, core::option::Option<std::ffi::os_str::OsString>>", %"alloc::collections::btree::map::BTreeMap<std::ffi::os_str::OsString, core::option::Option<std::ffi::os_str::OsString>>"* %23, i32 0, i32 1
  %_14 = load i64, i64* %24, align 8
  %25 = bitcast %"alloc::collections::btree::map::IntoIter<std::ffi::os_str::OsString, core::option::Option<std::ffi::os_str::OsString>>"* %0 to %"alloc::collections::btree::navigate::LazyLeafRange<alloc::collections::btree::node::marker::Dying, std::ffi::os_str::OsString, core::option::Option<std::ffi::os_str::OsString>>"*
  %26 = bitcast %"alloc::collections::btree::navigate::LazyLeafRange<alloc::collections::btree::node::marker::Dying, std::ffi::os_str::OsString, core::option::Option<std::ffi::os_str::OsString>>"* %25 to i8*
  %27 = bitcast %"alloc::collections::btree::navigate::LazyLeafRange<alloc::collections::btree::node::marker::Dying, std::ffi::os_str::OsString, core::option::Option<std::ffi::os_str::OsString>>"* %_13 to i8*
  call void @llvm.memcpy.p0i8.p0i8.i64(i8* align 8 %26, i8* align 8 %27, i64 64, i1 false)
  %28 = getelementptr inbounds %"alloc::collections::btree::map::IntoIter<std::ffi::os_str::OsString, core::option::Option<std::ffi::os_str::OsString>>", %"alloc::collections::btree::map::IntoIter<std::ffi::os_str::OsString, core::option::Option<std::ffi::os_str::OsString>>"* %0, i32 0, i32 1
  store i64 %_14, i64* %28, align 8
  br label %bb10
}

; <core::ptr::non_null::NonNull<T> as core::convert::From<core::ptr::unique::Unique<T>>>::from
; Function Attrs: inlinehint nonlazybind uwtable
define internal nonnull i8* @"_ZN119_$LT$core..ptr..non_null..NonNull$LT$T$GT$$u20$as$u20$core..convert..From$LT$core..ptr..unique..Unique$LT$T$GT$$GT$$GT$4from17h4abdbfacce8f7ca0E"(i8* nonnull %unique) unnamed_addr #1 {
start:
; call core::ptr::unique::Unique<T>::as_ptr
  %_2 = call i8* @"_ZN4core3ptr6unique15Unique$LT$T$GT$6as_ptr17hd1ed3c26fb28268cE"(i8* nonnull %unique)
  br label %bb1

bb1:                                              ; preds = %start
; call core::ptr::non_null::NonNull<T>::new_unchecked
  %0 = call nonnull i8* @"_ZN4core3ptr8non_null16NonNull$LT$T$GT$13new_unchecked17haf96db99c0276a0bE"(i8* %_2)
  br label %bb2

bb2:                                              ; preds = %bb1
  ret i8* %0
}

; <<alloc::collections::btree::map::IntoIter<K,V> as core::ops::drop::Drop>::drop::DropGuard<K,V> as core::ops::drop::Drop>::drop
; Function Attrs: nonlazybind uwtable
define internal void @"_ZN166_$LT$$LT$alloc..collections..btree..map..IntoIter$LT$K$C$V$GT$$u20$as$u20$core..ops..drop..Drop$GT$..drop..DropGuard$LT$K$C$V$GT$$u20$as$u20$core..ops..drop..Drop$GT$4drop17h1bf2227fd5ad89dcE"(i64** align 8 dereferenceable(8) %self) unnamed_addr #0 {
start:
  %_7 = alloca %"alloc::collections::btree::node::Handle<alloc::collections::btree::node::NodeRef<alloc::collections::btree::node::marker::Dying, std::ffi::os_str::OsString, core::option::Option<std::ffi::os_str::OsString>, alloc::collections::btree::node::marker::LeafOrInternal>, alloc::collections::btree::node::marker::KV>", align 8
  %kv = alloca %"alloc::collections::btree::node::Handle<alloc::collections::btree::node::NodeRef<alloc::collections::btree::node::marker::Dying, std::ffi::os_str::OsString, core::option::Option<std::ffi::os_str::OsString>, alloc::collections::btree::node::marker::LeafOrInternal>, alloc::collections::btree::node::marker::KV>", align 8
  %_2 = alloca %"core::option::Option<alloc::collections::btree::node::Handle<alloc::collections::btree::node::NodeRef<alloc::collections::btree::node::marker::Dying, std::ffi::os_str::OsString, core::option::Option<std::ffi::os_str::OsString>, alloc::collections::btree::node::marker::LeafOrInternal>, alloc::collections::btree::node::marker::KV>>", align 8
  br label %bb1

bb1:                                              ; preds = %bb4, %start
  %0 = bitcast i64** %self to %"alloc::collections::btree::map::IntoIter<std::ffi::os_str::OsString, core::option::Option<std::ffi::os_str::OsString>>"**
  %_3 = load %"alloc::collections::btree::map::IntoIter<std::ffi::os_str::OsString, core::option::Option<std::ffi::os_str::OsString>>"*, %"alloc::collections::btree::map::IntoIter<std::ffi::os_str::OsString, core::option::Option<std::ffi::os_str::OsString>>"** %0, align 8, !nonnull !8
; call alloc::collections::btree::map::IntoIter<K,V>::dying_next
  call void @"_ZN5alloc11collections5btree3map21IntoIter$LT$K$C$V$GT$10dying_next17h9024bd3ec2a135beE"(%"core::option::Option<alloc::collections::btree::node::Handle<alloc::collections::btree::node::NodeRef<alloc::collections::btree::node::marker::Dying, std::ffi::os_str::OsString, core::option::Option<std::ffi::os_str::OsString>, alloc::collections::btree::node::marker::LeafOrInternal>, alloc::collections::btree::node::marker::KV>>"* noalias nocapture sret(%"core::option::Option<alloc::collections::btree::node::Handle<alloc::collections::btree::node::NodeRef<alloc::collections::btree::node::marker::Dying, std::ffi::os_str::OsString, core::option::Option<std::ffi::os_str::OsString>, alloc::collections::btree::node::marker::LeafOrInternal>, alloc::collections::btree::node::marker::KV>>") dereferenceable(24) %_2, %"alloc::collections::btree::map::IntoIter<std::ffi::os_str::OsString, core::option::Option<std::ffi::os_str::OsString>>"* align 8 dereferenceable(72) %_3)
  br label %bb2

bb2:                                              ; preds = %bb1
  %1 = getelementptr inbounds %"core::option::Option<alloc::collections::btree::node::Handle<alloc::collections::btree::node::NodeRef<alloc::collections::btree::node::marker::Dying, std::ffi::os_str::OsString, core::option::Option<std::ffi::os_str::OsString>, alloc::collections::btree::node::marker::LeafOrInternal>, alloc::collections::btree::node::marker::KV>>", %"core::option::Option<alloc::collections::btree::node::Handle<alloc::collections::btree::node::NodeRef<alloc::collections::btree::node::marker::Dying, std::ffi::os_str::OsString, core::option::Option<std::ffi::os_str::OsString>, alloc::collections::btree::node::marker::LeafOrInternal>, alloc::collections::btree::node::marker::KV>>"* %_2, i32 0, i32 1
  %2 = load {}*, {}** %1, align 8
  %3 = icmp eq {}* %2, null
  %_4 = select i1 %3, i64 0, i64 1
  %4 = icmp eq i64 %_4, 1
  br i1 %4, label %bb3, label %bb5

bb3:                                              ; preds = %bb2
  %5 = bitcast %"core::option::Option<alloc::collections::btree::node::Handle<alloc::collections::btree::node::NodeRef<alloc::collections::btree::node::marker::Dying, std::ffi::os_str::OsString, core::option::Option<std::ffi::os_str::OsString>, alloc::collections::btree::node::marker::LeafOrInternal>, alloc::collections::btree::node::marker::KV>>"* %_2 to %"core::option::Option<alloc::collections::btree::node::Handle<alloc::collections::btree::node::NodeRef<alloc::collections::btree::node::marker::Dying, std::ffi::os_str::OsString, core::option::Option<std::ffi::os_str::OsString>, alloc::collections::btree::node::marker::LeafOrInternal>, alloc::collections::btree::node::marker::KV>>::Some"*
  %6 = bitcast %"core::option::Option<alloc::collections::btree::node::Handle<alloc::collections::btree::node::NodeRef<alloc::collections::btree::node::marker::Dying, std::ffi::os_str::OsString, core::option::Option<std::ffi::os_str::OsString>, alloc::collections::btree::node::marker::LeafOrInternal>, alloc::collections::btree::node::marker::KV>>::Some"* %5 to %"alloc::collections::btree::node::Handle<alloc::collections::btree::node::NodeRef<alloc::collections::btree::node::marker::Dying, std::ffi::os_str::OsString, core::option::Option<std::ffi::os_str::OsString>, alloc::collections::btree::node::marker::LeafOrInternal>, alloc::collections::btree::node::marker::KV>"*
  %7 = bitcast %"alloc::collections::btree::node::Handle<alloc::collections::btree::node::NodeRef<alloc::collections::btree::node::marker::Dying, std::ffi::os_str::OsString, core::option::Option<std::ffi::os_str::OsString>, alloc::collections::btree::node::marker::LeafOrInternal>, alloc::collections::btree::node::marker::KV>"* %kv to i8*
  %8 = bitcast %"alloc::collections::btree::node::Handle<alloc::collections::btree::node::NodeRef<alloc::collections::btree::node::marker::Dying, std::ffi::os_str::OsString, core::option::Option<std::ffi::os_str::OsString>, alloc::collections::btree::node::marker::LeafOrInternal>, alloc::collections::btree::node::marker::KV>"* %6 to i8*
  call void @llvm.memcpy.p0i8.p0i8.i64(i8* align 8 %7, i8* align 8 %8, i64 24, i1 false)
  %9 = bitcast %"alloc::collections::btree::node::Handle<alloc::collections::btree::node::NodeRef<alloc::collections::btree::node::marker::Dying, std::ffi::os_str::OsString, core::option::Option<std::ffi::os_str::OsString>, alloc::collections::btree::node::marker::LeafOrInternal>, alloc::collections::btree::node::marker::KV>"* %_7 to i8*
  %10 = bitcast %"alloc::collections::btree::node::Handle<alloc::collections::btree::node::NodeRef<alloc::collections::btree::node::marker::Dying, std::ffi::os_str::OsString, core::option::Option<std::ffi::os_str::OsString>, alloc::collections::btree::node::marker::LeafOrInternal>, alloc::collections::btree::node::marker::KV>"* %kv to i8*
  call void @llvm.memcpy.p0i8.p0i8.i64(i8* align 8 %9, i8* align 8 %10, i64 24, i1 false)
; call alloc::collections::btree::node::Handle<alloc::collections::btree::node::NodeRef<alloc::collections::btree::node::marker::Dying,K,V,NodeType>,alloc::collections::btree::node::marker::KV>::drop_key_val
  call void @"_ZN5alloc11collections5btree4node173Handle$LT$alloc..collections..btree..node..NodeRef$LT$alloc..collections..btree..node..marker..Dying$C$K$C$V$C$NodeType$GT$$C$alloc..collections..btree..node..marker..KV$GT$12drop_key_val17h7ca9a627ad296dd4E"(%"alloc::collections::btree::node::Handle<alloc::collections::btree::node::NodeRef<alloc::collections::btree::node::marker::Dying, std::ffi::os_str::OsString, core::option::Option<std::ffi::os_str::OsString>, alloc::collections::btree::node::marker::LeafOrInternal>, alloc::collections::btree::node::marker::KV>"* noalias nocapture dereferenceable(24) %_7)
  br label %bb4

bb5:                                              ; preds = %bb2
  ret void

bb4:                                              ; preds = %bb3
  br label %bb1
}

; std::sys_common::backtrace::__rust_begin_short_backtrace
; Function Attrs: noinline nonlazybind uwtable
define internal void @_ZN3std10sys_common9backtrace28__rust_begin_short_backtrace17h614932c81ec0ca6fE(void ()* nonnull %f) unnamed_addr #2 personality i32 (i32, i32, i64, %"unwind::libunwind::_Unwind_Exception"*, %"unwind::libunwind::_Unwind_Context"*)* @rust_eh_personality {
start:
  %0 = alloca { i8*, i32 }, align 8
; call core::ops::function::FnOnce::call_once
  call void @_ZN4core3ops8function6FnOnce9call_once17ha4a287f6c887def8E(void ()* nonnull %f)
  br label %bb1

bb1:                                              ; preds = %start
; invoke core::hint::black_box
  invoke void @_ZN4core4hint9black_box17hb386978651e3fd9aE()
          to label %bb2 unwind label %cleanup

bb2:                                              ; preds = %bb1
  ret void

bb3:                                              ; preds = %cleanup
  br label %bb4

cleanup:                                          ; preds = %bb1
  %1 = landingpad { i8*, i32 }
          cleanup
  %2 = extractvalue { i8*, i32 } %1, 0
  %3 = extractvalue { i8*, i32 } %1, 1
  %4 = getelementptr inbounds { i8*, i32 }, { i8*, i32 }* %0, i32 0, i32 0
  store i8* %2, i8** %4, align 8
  %5 = getelementptr inbounds { i8*, i32 }, { i8*, i32 }* %0, i32 0, i32 1
  store i32 %3, i32* %5, align 8
  br label %bb3

bb4:                                              ; preds = %bb3
  %6 = bitcast { i8*, i32 }* %0 to i8**
  %7 = load i8*, i8** %6, align 8
  %8 = getelementptr inbounds { i8*, i32 }, { i8*, i32 }* %0, i32 0, i32 1
  %9 = load i32, i32* %8, align 8
  %10 = insertvalue { i8*, i32 } undef, i8* %7, 0
  %11 = insertvalue { i8*, i32 } %10, i32 %9, 1
  resume { i8*, i32 } %11
}

; std::rt::lang_start
; Function Attrs: nonlazybind uwtable
define hidden i64 @_ZN3std2rt10lang_start17hc379b5df810145e1E(void ()* nonnull %main, i64 %argc, i8** %argv) unnamed_addr #0 {
start:
  %_8 = alloca i64*, align 8
  %_4 = alloca i64, align 8
  %0 = bitcast i64** %_8 to void ()**
  store void ()* %main, void ()** %0, align 8
  %_5.0 = bitcast i64** %_8 to {}*
; call std::rt::lang_start_internal
  %1 = call i64 @_ZN3std2rt19lang_start_internal17h75965f95c98f11d8E({}* nonnull align 1 %_5.0, [3 x i64]* align 8 dereferenceable(24) bitcast (<{ i8*, [16 x i8], i8*, i8*, i8*, [0 x i8] }>* @vtable.0 to [3 x i64]*), i64 %argc, i8** %argv)
  store i64 %1, i64* %_4, align 8
  br label %bb1

bb1:                                              ; preds = %start
  %v = load i64, i64* %_4, align 8
  ret i64 %v
}

; std::rt::lang_start::{{closure}}
; Function Attrs: inlinehint nonlazybind uwtable
define internal i32 @"_ZN3std2rt10lang_start28_$u7b$$u7b$closure$u7d$$u7d$17h95f0280e2046279fE"(i64** align 8 dereferenceable(8) %_1) unnamed_addr #1 {
start:
  %0 = bitcast i64** %_1 to void ()**
  %_3 = load void ()*, void ()** %0, align 8, !nonnull !8
; call std::sys_common::backtrace::__rust_begin_short_backtrace
  call void @_ZN3std10sys_common9backtrace28__rust_begin_short_backtrace17h614932c81ec0ca6fE(void ()* nonnull %_3)
  br label %bb1

bb1:                                              ; preds = %start
; call <() as std::process::Termination>::report
  %1 = call i32 @"_ZN54_$LT$$LP$$RP$$u20$as$u20$std..process..Termination$GT$6report17h2815b891a5791b02E"()
  br label %bb2

bb2:                                              ; preds = %bb1
  ret i32 %1
}

; std::ffi::os_str::<impl core::convert::AsRef<std::ffi::os_str::OsStr> for alloc::string::String>::as_ref
; Function Attrs: inlinehint nonlazybind uwtable
define internal { %"std::ffi::os_str::OsStr"*, i64 } @"_ZN3std3ffi6os_str103_$LT$impl$u20$core..convert..AsRef$LT$std..ffi..os_str..OsStr$GT$$u20$for$u20$alloc..string..String$GT$6as_ref17h7cfc1b057f04ce29E"(%"alloc::string::String"* align 8 dereferenceable(24) %self) unnamed_addr #1 {
start:
; call <alloc::string::String as core::ops::deref::Deref>::deref
  %0 = call { [0 x i8]*, i64 } @"_ZN65_$LT$alloc..string..String$u20$as$u20$core..ops..deref..Deref$GT$5deref17h787e3f32d3efdbf8E"(%"alloc::string::String"* align 8 dereferenceable(24) %self)
  %_4.0 = extractvalue { [0 x i8]*, i64 } %0, 0
  %_4.1 = extractvalue { [0 x i8]*, i64 } %0, 1
  br label %bb1

bb1:                                              ; preds = %start
; call std::ffi::os_str::<impl core::convert::AsRef<std::ffi::os_str::OsStr> for str>::as_ref
  %1 = call { %"std::ffi::os_str::OsStr"*, i64 } @"_ZN3std3ffi6os_str85_$LT$impl$u20$core..convert..AsRef$LT$std..ffi..os_str..OsStr$GT$$u20$for$u20$str$GT$6as_ref17h2c9aa3aecbe854f4E"([0 x i8]* nonnull align 1 %_4.0, i64 %_4.1)
  %2 = extractvalue { %"std::ffi::os_str::OsStr"*, i64 } %1, 0
  %3 = extractvalue { %"std::ffi::os_str::OsStr"*, i64 } %1, 1
  br label %bb2

bb2:                                              ; preds = %bb1
  %4 = insertvalue { %"std::ffi::os_str::OsStr"*, i64 } undef, %"std::ffi::os_str::OsStr"* %2, 0
  %5 = insertvalue { %"std::ffi::os_str::OsStr"*, i64 } %4, i64 %3, 1
  ret { %"std::ffi::os_str::OsStr"*, i64 } %5
}

; std::ffi::os_str::OsStr::from_inner
; Function Attrs: inlinehint nonlazybind uwtable
define internal { %"std::ffi::os_str::OsStr"*, i64 } @_ZN3std3ffi6os_str5OsStr10from_inner17h6a976826dae816eaE(%"std::sys::unix::os_str::Slice"* nonnull align 1 %inner.0, i64 %inner.1) unnamed_addr #1 {
start:
  %_2.0 = bitcast %"std::sys::unix::os_str::Slice"* %inner.0 to %"std::ffi::os_str::OsStr"*
  %0 = insertvalue { %"std::ffi::os_str::OsStr"*, i64 } undef, %"std::ffi::os_str::OsStr"* %_2.0, 0
  %1 = insertvalue { %"std::ffi::os_str::OsStr"*, i64 } %0, i64 %inner.1, 1
  ret { %"std::ffi::os_str::OsStr"*, i64 } %1
}

; std::ffi::os_str::<impl core::convert::AsRef<std::ffi::os_str::OsStr> for str>::as_ref
; Function Attrs: inlinehint nonlazybind uwtable
define internal { %"std::ffi::os_str::OsStr"*, i64 } @"_ZN3std3ffi6os_str85_$LT$impl$u20$core..convert..AsRef$LT$std..ffi..os_str..OsStr$GT$$u20$for$u20$str$GT$6as_ref17h2c9aa3aecbe854f4E"([0 x i8]* nonnull align 1 %self.0, i64 %self.1) unnamed_addr #1 {
start:
; call std::sys::unix::os_str::Slice::from_str
  %0 = call { %"std::sys::unix::os_str::Slice"*, i64 } @_ZN3std3sys4unix6os_str5Slice8from_str17h3e31e297a5fe9dd3E([0 x i8]* nonnull align 1 %self.0, i64 %self.1)
  %_3.0 = extractvalue { %"std::sys::unix::os_str::Slice"*, i64 } %0, 0
  %_3.1 = extractvalue { %"std::sys::unix::os_str::Slice"*, i64 } %0, 1
  br label %bb1

bb1:                                              ; preds = %start
; call std::ffi::os_str::OsStr::from_inner
  %1 = call { %"std::ffi::os_str::OsStr"*, i64 } @_ZN3std3ffi6os_str5OsStr10from_inner17h6a976826dae816eaE(%"std::sys::unix::os_str::Slice"* nonnull align 1 %_3.0, i64 %_3.1)
  %2 = extractvalue { %"std::ffi::os_str::OsStr"*, i64 } %1, 0
  %3 = extractvalue { %"std::ffi::os_str::OsStr"*, i64 } %1, 1
  br label %bb2

bb2:                                              ; preds = %bb1
  %4 = insertvalue { %"std::ffi::os_str::OsStr"*, i64 } undef, %"std::ffi::os_str::OsStr"* %2, 0
  %5 = insertvalue { %"std::ffi::os_str::OsStr"*, i64 } %4, i64 %3, 1
  ret { %"std::ffi::os_str::OsStr"*, i64 } %5
}

; std::sys::unix::os_str::Slice::from_u8_slice
; Function Attrs: inlinehint nonlazybind uwtable
define internal { %"std::sys::unix::os_str::Slice"*, i64 } @_ZN3std3sys4unix6os_str5Slice13from_u8_slice17h204e18297744c361E([0 x i8]* nonnull align 1 %s.0, i64 %s.1) unnamed_addr #1 {
start:
  %0 = alloca { %"std::sys::unix::os_str::Slice"*, i64 }, align 8
  %1 = bitcast { %"std::sys::unix::os_str::Slice"*, i64 }* %0 to { [0 x i8]*, i64 }*
  %2 = getelementptr inbounds { [0 x i8]*, i64 }, { [0 x i8]*, i64 }* %1, i32 0, i32 0
  store [0 x i8]* %s.0, [0 x i8]** %2, align 8
  %3 = getelementptr inbounds { [0 x i8]*, i64 }, { [0 x i8]*, i64 }* %1, i32 0, i32 1
  store i64 %s.1, i64* %3, align 8
  %4 = getelementptr inbounds { %"std::sys::unix::os_str::Slice"*, i64 }, { %"std::sys::unix::os_str::Slice"*, i64 }* %0, i32 0, i32 0
  %5 = load %"std::sys::unix::os_str::Slice"*, %"std::sys::unix::os_str::Slice"** %4, align 8, !nonnull !8
  %6 = getelementptr inbounds { %"std::sys::unix::os_str::Slice"*, i64 }, { %"std::sys::unix::os_str::Slice"*, i64 }* %0, i32 0, i32 1
  %7 = load i64, i64* %6, align 8
  br label %bb1

bb1:                                              ; preds = %start
  %8 = insertvalue { %"std::sys::unix::os_str::Slice"*, i64 } undef, %"std::sys::unix::os_str::Slice"* %5, 0
  %9 = insertvalue { %"std::sys::unix::os_str::Slice"*, i64 } %8, i64 %7, 1
  ret { %"std::sys::unix::os_str::Slice"*, i64 } %9
}

; std::sys::unix::os_str::Slice::from_str
; Function Attrs: inlinehint nonlazybind uwtable
define internal { %"std::sys::unix::os_str::Slice"*, i64 } @_ZN3std3sys4unix6os_str5Slice8from_str17h3e31e297a5fe9dd3E([0 x i8]* nonnull align 1 %s.0, i64 %s.1) unnamed_addr #1 {
start:
  %0 = alloca { [0 x i8]*, i64 }, align 8
  %1 = getelementptr inbounds { [0 x i8]*, i64 }, { [0 x i8]*, i64 }* %0, i32 0, i32 0
  store [0 x i8]* %s.0, [0 x i8]** %1, align 8
  %2 = getelementptr inbounds { [0 x i8]*, i64 }, { [0 x i8]*, i64 }* %0, i32 0, i32 1
  store i64 %s.1, i64* %2, align 8
  %3 = getelementptr inbounds { [0 x i8]*, i64 }, { [0 x i8]*, i64 }* %0, i32 0, i32 0
  %4 = load [0 x i8]*, [0 x i8]** %3, align 8, !nonnull !8
  %5 = getelementptr inbounds { [0 x i8]*, i64 }, { [0 x i8]*, i64 }* %0, i32 0, i32 1
  %6 = load i64, i64* %5, align 8
  %7 = insertvalue { [0 x i8]*, i64 } undef, [0 x i8]* %4, 0
  %8 = insertvalue { [0 x i8]*, i64 } %7, i64 %6, 1
  %_3.0 = extractvalue { [0 x i8]*, i64 } %8, 0
  %_3.1 = extractvalue { [0 x i8]*, i64 } %8, 1
  br label %bb1

bb1:                                              ; preds = %start
; call std::sys::unix::os_str::Slice::from_u8_slice
  %9 = call { %"std::sys::unix::os_str::Slice"*, i64 } @_ZN3std3sys4unix6os_str5Slice13from_u8_slice17h204e18297744c361E([0 x i8]* nonnull align 1 %_3.0, i64 %_3.1)
  %10 = extractvalue { %"std::sys::unix::os_str::Slice"*, i64 } %9, 0
  %11 = extractvalue { %"std::sys::unix::os_str::Slice"*, i64 } %9, 1
  br label %bb2

bb2:                                              ; preds = %bb1
  %12 = insertvalue { %"std::sys::unix::os_str::Slice"*, i64 } undef, %"std::sys::unix::os_str::Slice"* %10, 0
  %13 = insertvalue { %"std::sys::unix::os_str::Slice"*, i64 } %12, i64 %11, 1
  ret { %"std::sys::unix::os_str::Slice"*, i64 } %13
}

; std::sys::unix::process::process_common::ExitCode::as_i32
; Function Attrs: inlinehint nonlazybind uwtable
define internal i32 @_ZN3std3sys4unix7process14process_common8ExitCode6as_i3217h7fc4ea2fd52c37c3E(i8* align 1 dereferenceable(1) %self) unnamed_addr #1 {
start:
  %_2 = load i8, i8* %self, align 1
  %0 = zext i8 %_2 to i32
  ret i32 %0
}

; std::path::Path::new
; Function Attrs: nonlazybind uwtable
define internal { %"std::path::Path"*, i64 } @_ZN3std4path4Path3new17h42ee6cfa432b08f9E({ [0 x i8]*, i64 }* align 8 dereferenceable(16) %s) unnamed_addr #0 {
start:
; call <&T as core::convert::AsRef<U>>::as_ref
  %0 = call { %"std::ffi::os_str::OsStr"*, i64 } @"_ZN55_$LT$$RF$T$u20$as$u20$core..convert..AsRef$LT$U$GT$$GT$6as_ref17h39452bda5febc3aeE"({ [0 x i8]*, i64 }* align 8 dereferenceable(16) %s)
  %_4.0 = extractvalue { %"std::ffi::os_str::OsStr"*, i64 } %0, 0
  %_4.1 = extractvalue { %"std::ffi::os_str::OsStr"*, i64 } %0, 1
  br label %bb1

bb1:                                              ; preds = %start
  %_2.0 = bitcast %"std::ffi::os_str::OsStr"* %_4.0 to %"std::path::Path"*
  %1 = insertvalue { %"std::path::Path"*, i64 } undef, %"std::path::Path"* %_2.0, 0
  %2 = insertvalue { %"std::path::Path"*, i64 } %1, i64 %_4.1, 1
  ret { %"std::path::Path"*, i64 } %2
}

; std::process::Command::current_dir
; Function Attrs: nonlazybind uwtable
define internal align 8 dereferenceable(200) %"std::process::Command"* @_ZN3std7process7Command11current_dir17h714ef204f1a75e04E(%"std::process::Command"* align 8 dereferenceable(200) %self, { %"std::path::Path"*, i64 }* align 8 dereferenceable(16) %0) unnamed_addr #0 personality i32 (i32, i32, i64, %"unwind::libunwind::_Unwind_Exception"*, %"unwind::libunwind::_Unwind_Context"*)* @rust_eh_personality {
start:
  %1 = alloca { i8*, i32 }, align 8
  %dir = alloca { %"std::path::Path"*, i64 }*, align 8
  store { %"std::path::Path"*, i64 }* %0, { %"std::path::Path"*, i64 }** %dir, align 8
  %_5 = bitcast %"std::process::Command"* %self to %"std::sys::unix::process::process_common::Command"*
; invoke <&T as core::convert::AsRef<U>>::as_ref
  %2 = invoke { %"std::path::Path"*, i64 } @"_ZN55_$LT$$RF$T$u20$as$u20$core..convert..AsRef$LT$U$GT$$GT$6as_ref17h19e63a4dcdc1b1a1E"({ %"std::path::Path"*, i64 }** align 8 dereferenceable(8) %dir)
          to label %bb1 unwind label %cleanup

bb1:                                              ; preds = %start
  %_9.0 = extractvalue { %"std::path::Path"*, i64 } %2, 0
  %_9.1 = extractvalue { %"std::path::Path"*, i64 } %2, 1
; invoke <std::path::Path as core::convert::AsRef<std::ffi::os_str::OsStr>>::as_ref
  %3 = invoke { %"std::ffi::os_str::OsStr"*, i64 } @"_ZN87_$LT$std..path..Path$u20$as$u20$core..convert..AsRef$LT$std..ffi..os_str..OsStr$GT$$GT$6as_ref17hef1c817df61ad700E"(%"std::path::Path"* nonnull align 1 %_9.0, i64 %_9.1)
          to label %bb2 unwind label %cleanup

bb5:                                              ; preds = %cleanup
  br label %bb6

cleanup:                                          ; preds = %bb2, %bb1, %start
  %4 = landingpad { i8*, i32 }
          cleanup
  %5 = extractvalue { i8*, i32 } %4, 0
  %6 = extractvalue { i8*, i32 } %4, 1
  %7 = getelementptr inbounds { i8*, i32 }, { i8*, i32 }* %1, i32 0, i32 0
  store i8* %5, i8** %7, align 8
  %8 = getelementptr inbounds { i8*, i32 }, { i8*, i32 }* %1, i32 0, i32 1
  store i32 %6, i32* %8, align 8
  br label %bb5

bb2:                                              ; preds = %bb1
  %_7.0 = extractvalue { %"std::ffi::os_str::OsStr"*, i64 } %3, 0
  %_7.1 = extractvalue { %"std::ffi::os_str::OsStr"*, i64 } %3, 1
; invoke std::sys::unix::process::process_common::Command::cwd
  invoke void @_ZN3std3sys4unix7process14process_common7Command3cwd17haf50923600ab8befE(%"std::sys::unix::process::process_common::Command"* align 8 dereferenceable(200) %_5, %"std::ffi::os_str::OsStr"* nonnull align 1 %_7.0, i64 %_7.1)
          to label %bb3 unwind label %cleanup

bb3:                                              ; preds = %bb2
  br label %bb4

bb6:                                              ; preds = %bb5
  %9 = bitcast { i8*, i32 }* %1 to i8**
  %10 = load i8*, i8** %9, align 8
  %11 = getelementptr inbounds { i8*, i32 }, { i8*, i32 }* %1, i32 0, i32 1
  %12 = load i32, i32* %11, align 8
  %13 = insertvalue { i8*, i32 } undef, i8* %10, 0
  %14 = insertvalue { i8*, i32 } %13, i32 %12, 1
  resume { i8*, i32 } %14

bb4:                                              ; preds = %bb3
  ret %"std::process::Command"* %self
}

; std::process::Command::arg
; Function Attrs: nonlazybind uwtable
define internal align 8 dereferenceable(200) %"std::process::Command"* @_ZN3std7process7Command3arg17hb12ee4c981eff6ceE(%"std::process::Command"* align 8 dereferenceable(200) %self, %"alloc::string::String"* align 8 dereferenceable(24) %0) unnamed_addr #0 personality i32 (i32, i32, i64, %"unwind::libunwind::_Unwind_Exception"*, %"unwind::libunwind::_Unwind_Context"*)* @rust_eh_personality {
start:
  %1 = alloca { i8*, i32 }, align 8
  %arg = alloca %"alloc::string::String"*, align 8
  store %"alloc::string::String"* %0, %"alloc::string::String"** %arg, align 8
  %_5 = bitcast %"std::process::Command"* %self to %"std::sys::unix::process::process_common::Command"*
; invoke <&T as core::convert::AsRef<U>>::as_ref
  %2 = invoke { %"std::ffi::os_str::OsStr"*, i64 } @"_ZN55_$LT$$RF$T$u20$as$u20$core..convert..AsRef$LT$U$GT$$GT$6as_ref17h4c8d49e292f315ffE"(%"alloc::string::String"** align 8 dereferenceable(8) %arg)
          to label %bb1 unwind label %cleanup

bb1:                                              ; preds = %start
  %_7.0 = extractvalue { %"std::ffi::os_str::OsStr"*, i64 } %2, 0
  %_7.1 = extractvalue { %"std::ffi::os_str::OsStr"*, i64 } %2, 1
; invoke std::sys::unix::process::process_common::Command::arg
  invoke void @_ZN3std3sys4unix7process14process_common7Command3arg17h81c66916bc915c6aE(%"std::sys::unix::process::process_common::Command"* align 8 dereferenceable(200) %_5, %"std::ffi::os_str::OsStr"* nonnull align 1 %_7.0, i64 %_7.1)
          to label %bb2 unwind label %cleanup

bb4:                                              ; preds = %cleanup
  br label %bb5

cleanup:                                          ; preds = %bb1, %start
  %3 = landingpad { i8*, i32 }
          cleanup
  %4 = extractvalue { i8*, i32 } %3, 0
  %5 = extractvalue { i8*, i32 } %3, 1
  %6 = getelementptr inbounds { i8*, i32 }, { i8*, i32 }* %1, i32 0, i32 0
  store i8* %4, i8** %6, align 8
  %7 = getelementptr inbounds { i8*, i32 }, { i8*, i32 }* %1, i32 0, i32 1
  store i32 %5, i32* %7, align 8
  br label %bb4

bb2:                                              ; preds = %bb1
  br label %bb3

bb5:                                              ; preds = %bb4
  %8 = bitcast { i8*, i32 }* %1 to i8**
  %9 = load i8*, i8** %8, align 8
  %10 = getelementptr inbounds { i8*, i32 }, { i8*, i32 }* %1, i32 0, i32 1
  %11 = load i32, i32* %10, align 8
  %12 = insertvalue { i8*, i32 } undef, i8* %9, 0
  %13 = insertvalue { i8*, i32 } %12, i32 %11, 1
  resume { i8*, i32 } %13

bb3:                                              ; preds = %bb2
  ret %"std::process::Command"* %self
}

; std::process::Command::arg
; Function Attrs: nonlazybind uwtable
define internal align 8 dereferenceable(200) %"std::process::Command"* @_ZN3std7process7Command3arg17hcb5cab1230aa7054E(%"std::process::Command"* align 8 dereferenceable(200) %self, %"std::ffi::os_str::OsStr"* nonnull align 1 %0, i64 %1) unnamed_addr #0 personality i32 (i32, i32, i64, %"unwind::libunwind::_Unwind_Exception"*, %"unwind::libunwind::_Unwind_Context"*)* @rust_eh_personality {
start:
  %2 = alloca { i8*, i32 }, align 8
  %arg = alloca { %"std::ffi::os_str::OsStr"*, i64 }, align 8
  %3 = getelementptr inbounds { %"std::ffi::os_str::OsStr"*, i64 }, { %"std::ffi::os_str::OsStr"*, i64 }* %arg, i32 0, i32 0
  store %"std::ffi::os_str::OsStr"* %0, %"std::ffi::os_str::OsStr"** %3, align 8
  %4 = getelementptr inbounds { %"std::ffi::os_str::OsStr"*, i64 }, { %"std::ffi::os_str::OsStr"*, i64 }* %arg, i32 0, i32 1
  store i64 %1, i64* %4, align 8
  %_5 = bitcast %"std::process::Command"* %self to %"std::sys::unix::process::process_common::Command"*
; invoke <&T as core::convert::AsRef<U>>::as_ref
  %5 = invoke { %"std::ffi::os_str::OsStr"*, i64 } @"_ZN55_$LT$$RF$T$u20$as$u20$core..convert..AsRef$LT$U$GT$$GT$6as_ref17h6cf7ca62022daf60E"({ %"std::ffi::os_str::OsStr"*, i64 }* align 8 dereferenceable(16) %arg)
          to label %bb1 unwind label %cleanup

bb1:                                              ; preds = %start
  %_7.0 = extractvalue { %"std::ffi::os_str::OsStr"*, i64 } %5, 0
  %_7.1 = extractvalue { %"std::ffi::os_str::OsStr"*, i64 } %5, 1
; invoke std::sys::unix::process::process_common::Command::arg
  invoke void @_ZN3std3sys4unix7process14process_common7Command3arg17h81c66916bc915c6aE(%"std::sys::unix::process::process_common::Command"* align 8 dereferenceable(200) %_5, %"std::ffi::os_str::OsStr"* nonnull align 1 %_7.0, i64 %_7.1)
          to label %bb2 unwind label %cleanup

bb4:                                              ; preds = %cleanup
  br label %bb5

cleanup:                                          ; preds = %bb1, %start
  %6 = landingpad { i8*, i32 }
          cleanup
  %7 = extractvalue { i8*, i32 } %6, 0
  %8 = extractvalue { i8*, i32 } %6, 1
  %9 = getelementptr inbounds { i8*, i32 }, { i8*, i32 }* %2, i32 0, i32 0
  store i8* %7, i8** %9, align 8
  %10 = getelementptr inbounds { i8*, i32 }, { i8*, i32 }* %2, i32 0, i32 1
  store i32 %8, i32* %10, align 8
  br label %bb4

bb2:                                              ; preds = %bb1
  br label %bb3

bb5:                                              ; preds = %bb4
  %11 = bitcast { i8*, i32 }* %2 to i8**
  %12 = load i8*, i8** %11, align 8
  %13 = getelementptr inbounds { i8*, i32 }, { i8*, i32 }* %2, i32 0, i32 1
  %14 = load i32, i32* %13, align 8
  %15 = insertvalue { i8*, i32 } undef, i8* %12, 0
  %16 = insertvalue { i8*, i32 } %15, i32 %14, 1
  resume { i8*, i32 } %16

bb3:                                              ; preds = %bb2
  ret %"std::process::Command"* %self
}

; std::process::Command::new
; Function Attrs: nonlazybind uwtable
define internal void @_ZN3std7process7Command3new17hf0eaddd09feb1f27E(%"std::process::Command"* noalias nocapture sret(%"std::process::Command") dereferenceable(200) %0, [0 x i8]* nonnull align 1 %1, i64 %2) unnamed_addr #0 personality i32 (i32, i32, i64, %"unwind::libunwind::_Unwind_Exception"*, %"unwind::libunwind::_Unwind_Context"*)* @rust_eh_personality {
start:
  %3 = alloca { i8*, i32 }, align 8
  %_2 = alloca %"std::sys::unix::process::process_common::Command", align 8
  %program = alloca { [0 x i8]*, i64 }, align 8
  %4 = getelementptr inbounds { [0 x i8]*, i64 }, { [0 x i8]*, i64 }* %program, i32 0, i32 0
  store [0 x i8]* %1, [0 x i8]** %4, align 8
  %5 = getelementptr inbounds { [0 x i8]*, i64 }, { [0 x i8]*, i64 }* %program, i32 0, i32 1
  store i64 %2, i64* %5, align 8
; invoke <&T as core::convert::AsRef<U>>::as_ref
  %6 = invoke { %"std::ffi::os_str::OsStr"*, i64 } @"_ZN55_$LT$$RF$T$u20$as$u20$core..convert..AsRef$LT$U$GT$$GT$6as_ref17h39452bda5febc3aeE"({ [0 x i8]*, i64 }* align 8 dereferenceable(16) %program)
          to label %bb1 unwind label %cleanup

bb1:                                              ; preds = %start
  %_4.0 = extractvalue { %"std::ffi::os_str::OsStr"*, i64 } %6, 0
  %_4.1 = extractvalue { %"std::ffi::os_str::OsStr"*, i64 } %6, 1
; invoke std::sys::unix::process::process_common::Command::new
  invoke void @_ZN3std3sys4unix7process14process_common7Command3new17h1e558472110c8f47E(%"std::sys::unix::process::process_common::Command"* noalias nocapture sret(%"std::sys::unix::process::process_common::Command") dereferenceable(200) %_2, %"std::ffi::os_str::OsStr"* nonnull align 1 %_4.0, i64 %_4.1)
          to label %bb2 unwind label %cleanup

bb4:                                              ; preds = %cleanup
  br label %bb5

cleanup:                                          ; preds = %bb1, %start
  %7 = landingpad { i8*, i32 }
          cleanup
  %8 = extractvalue { i8*, i32 } %7, 0
  %9 = extractvalue { i8*, i32 } %7, 1
  %10 = getelementptr inbounds { i8*, i32 }, { i8*, i32 }* %3, i32 0, i32 0
  store i8* %8, i8** %10, align 8
  %11 = getelementptr inbounds { i8*, i32 }, { i8*, i32 }* %3, i32 0, i32 1
  store i32 %9, i32* %11, align 8
  br label %bb4

bb2:                                              ; preds = %bb1
  %12 = bitcast %"std::process::Command"* %0 to %"std::sys::unix::process::process_common::Command"*
  %13 = bitcast %"std::sys::unix::process::process_common::Command"* %12 to i8*
  %14 = bitcast %"std::sys::unix::process::process_common::Command"* %_2 to i8*
  call void @llvm.memcpy.p0i8.p0i8.i64(i8* align 8 %13, i8* align 8 %14, i64 200, i1 false)
  br label %bb3

bb5:                                              ; preds = %bb4
  %15 = bitcast { i8*, i32 }* %3 to i8**
  %16 = load i8*, i8** %15, align 8
  %17 = getelementptr inbounds { i8*, i32 }, { i8*, i32 }* %3, i32 0, i32 1
  %18 = load i32, i32* %17, align 8
  %19 = insertvalue { i8*, i32 } undef, i8* %16, 0
  %20 = insertvalue { i8*, i32 } %19, i32 %18, 1
  resume { i8*, i32 } %20

bb3:                                              ; preds = %bb2
  ret void
}

; std::process::Command::args
; Function Attrs: nonlazybind uwtable
define internal align 8 dereferenceable(200) %"std::process::Command"* @_ZN3std7process7Command4args17h79200e129226803eE(%"std::process::Command"* align 8 dereferenceable(200) %self, [5 x { [0 x i8]*, i64 }]* align 8 dereferenceable(80) %args) unnamed_addr #0 personality i32 (i32, i32, i64, %"unwind::libunwind::_Unwind_Exception"*, %"unwind::libunwind::_Unwind_Context"*)* @rust_eh_personality {
start:
  %0 = alloca { i8*, i32 }, align 8
  %arg = alloca { [0 x i8]*, i64 }*, align 8
  %_7 = alloca i64*, align 8
  %iter = alloca { i64*, i64* }, align 8
; call core::array::<impl core::iter::traits::collect::IntoIterator for &[T; N]>::into_iter
  %1 = call { i64*, i64* } @"_ZN4core5array98_$LT$impl$u20$core..iter..traits..collect..IntoIterator$u20$for$u20$$RF$$u5b$T$u3b$$u20$N$u5d$$GT$9into_iter17hf2993d9f4ba34597E"([5 x { [0 x i8]*, i64 }]* align 8 dereferenceable(80) %args)
  %_4.0 = extractvalue { i64*, i64* } %1, 0
  %_4.1 = extractvalue { i64*, i64* } %1, 1
  br label %bb1

bb1:                                              ; preds = %start
  %2 = getelementptr inbounds { i64*, i64* }, { i64*, i64* }* %iter, i32 0, i32 0
  store i64* %_4.0, i64** %2, align 8
  %3 = getelementptr inbounds { i64*, i64* }, { i64*, i64* }* %iter, i32 0, i32 1
  store i64* %_4.1, i64** %3, align 8
  br label %bb2

bb2:                                              ; preds = %bb9, %bb1
; invoke <core::slice::iter::Iter<T> as core::iter::traits::iterator::Iterator>::next
  %4 = invoke align 8 dereferenceable_or_null(16) i64* @"_ZN91_$LT$core..slice..iter..Iter$LT$T$GT$$u20$as$u20$core..iter..traits..iterator..Iterator$GT$4next17h53af9fdeeb8fb827E"({ i64*, i64* }* align 8 dereferenceable(16) %iter)
          to label %bb3 unwind label %cleanup

bb3:                                              ; preds = %bb2
  store i64* %4, i64** %_7, align 8
  %5 = bitcast i64** %_7 to {}**
  %6 = load {}*, {}** %5, align 8
  %7 = icmp eq {}* %6, null
  %_10 = select i1 %7, i64 0, i64 1
  switch i64 %_10, label %bb5 [
    i64 0, label %bb6
    i64 1, label %bb4
  ]

bb12:                                             ; preds = %bb14, %cleanup
  br label %bb13

cleanup:                                          ; preds = %bb2
  %8 = landingpad { i8*, i32 }
          cleanup
  %9 = extractvalue { i8*, i32 } %8, 0
  %10 = extractvalue { i8*, i32 } %8, 1
  %11 = getelementptr inbounds { i8*, i32 }, { i8*, i32 }* %0, i32 0, i32 0
  store i8* %9, i8** %11, align 8
  %12 = getelementptr inbounds { i8*, i32 }, { i8*, i32 }* %0, i32 0, i32 1
  store i32 %10, i32* %12, align 8
  br label %bb12

bb5:                                              ; preds = %bb3
  unreachable

bb6:                                              ; preds = %bb3
  br label %bb10

bb4:                                              ; preds = %bb3
  %13 = bitcast i64** %_7 to { [0 x i8]*, i64 }**
  %14 = load { [0 x i8]*, i64 }*, { [0 x i8]*, i64 }** %13, align 8, !nonnull !8
  store { [0 x i8]*, i64 }* %14, { [0 x i8]*, i64 }** %arg, align 8
; invoke <&T as core::convert::AsRef<U>>::as_ref
  %15 = invoke { %"std::ffi::os_str::OsStr"*, i64 } @"_ZN55_$LT$$RF$T$u20$as$u20$core..convert..AsRef$LT$U$GT$$GT$6as_ref17h49e5a6825bdfbeddE"({ [0 x i8]*, i64 }** align 8 dereferenceable(8) %arg)
          to label %bb7 unwind label %cleanup1

bb7:                                              ; preds = %bb4
  %_14.0 = extractvalue { %"std::ffi::os_str::OsStr"*, i64 } %15, 0
  %_14.1 = extractvalue { %"std::ffi::os_str::OsStr"*, i64 } %15, 1
; invoke std::process::Command::arg
  %_12 = invoke align 8 dereferenceable(200) %"std::process::Command"* @_ZN3std7process7Command3arg17hcb5cab1230aa7054E(%"std::process::Command"* align 8 dereferenceable(200) %self, %"std::ffi::os_str::OsStr"* nonnull align 1 %_14.0, i64 %_14.1)
          to label %bb8 unwind label %cleanup1

bb11:                                             ; preds = %cleanup1
  br label %bb14

cleanup1:                                         ; preds = %bb7, %bb4
  %16 = landingpad { i8*, i32 }
          cleanup
  %17 = extractvalue { i8*, i32 } %16, 0
  %18 = extractvalue { i8*, i32 } %16, 1
  %19 = getelementptr inbounds { i8*, i32 }, { i8*, i32 }* %0, i32 0, i32 0
  store i8* %17, i8** %19, align 8
  %20 = getelementptr inbounds { i8*, i32 }, { i8*, i32 }* %0, i32 0, i32 1
  store i32 %18, i32* %20, align 8
  br label %bb11

bb8:                                              ; preds = %bb7
  br label %bb9

bb14:                                             ; preds = %bb11
  br label %bb12

bb9:                                              ; preds = %bb8
  br label %bb2

bb13:                                             ; preds = %bb12
  %21 = bitcast { i8*, i32 }* %0 to i8**
  %22 = load i8*, i8** %21, align 8
  %23 = getelementptr inbounds { i8*, i32 }, { i8*, i32 }* %0, i32 0, i32 1
  %24 = load i32, i32* %23, align 8
  %25 = insertvalue { i8*, i32 } undef, i8* %22, 0
  %26 = insertvalue { i8*, i32 } %25, i32 %24, 1
  resume { i8*, i32 } %26

bb10:                                             ; preds = %bb6
  ret %"std::process::Command"* %self
}

; std::process::Command::args
; Function Attrs: nonlazybind uwtable
define internal align 8 dereferenceable(200) %"std::process::Command"* @_ZN3std7process7Command4args17h9b1258da4b692e0fE(%"std::process::Command"* align 8 dereferenceable(200) %self, [3 x { [0 x i8]*, i64 }]* align 8 dereferenceable(48) %args) unnamed_addr #0 personality i32 (i32, i32, i64, %"unwind::libunwind::_Unwind_Exception"*, %"unwind::libunwind::_Unwind_Context"*)* @rust_eh_personality {
start:
  %0 = alloca { i8*, i32 }, align 8
  %arg = alloca { [0 x i8]*, i64 }*, align 8
  %_7 = alloca i64*, align 8
  %iter = alloca { i64*, i64* }, align 8
; call core::array::<impl core::iter::traits::collect::IntoIterator for &[T; N]>::into_iter
  %1 = call { i64*, i64* } @"_ZN4core5array98_$LT$impl$u20$core..iter..traits..collect..IntoIterator$u20$for$u20$$RF$$u5b$T$u3b$$u20$N$u5d$$GT$9into_iter17heedde30ee4a39382E"([3 x { [0 x i8]*, i64 }]* align 8 dereferenceable(48) %args)
  %_4.0 = extractvalue { i64*, i64* } %1, 0
  %_4.1 = extractvalue { i64*, i64* } %1, 1
  br label %bb1

bb1:                                              ; preds = %start
  %2 = getelementptr inbounds { i64*, i64* }, { i64*, i64* }* %iter, i32 0, i32 0
  store i64* %_4.0, i64** %2, align 8
  %3 = getelementptr inbounds { i64*, i64* }, { i64*, i64* }* %iter, i32 0, i32 1
  store i64* %_4.1, i64** %3, align 8
  br label %bb2

bb2:                                              ; preds = %bb9, %bb1
; invoke <core::slice::iter::Iter<T> as core::iter::traits::iterator::Iterator>::next
  %4 = invoke align 8 dereferenceable_or_null(16) i64* @"_ZN91_$LT$core..slice..iter..Iter$LT$T$GT$$u20$as$u20$core..iter..traits..iterator..Iterator$GT$4next17h53af9fdeeb8fb827E"({ i64*, i64* }* align 8 dereferenceable(16) %iter)
          to label %bb3 unwind label %cleanup

bb3:                                              ; preds = %bb2
  store i64* %4, i64** %_7, align 8
  %5 = bitcast i64** %_7 to {}**
  %6 = load {}*, {}** %5, align 8
  %7 = icmp eq {}* %6, null
  %_10 = select i1 %7, i64 0, i64 1
  switch i64 %_10, label %bb5 [
    i64 0, label %bb6
    i64 1, label %bb4
  ]

bb12:                                             ; preds = %bb14, %cleanup
  br label %bb13

cleanup:                                          ; preds = %bb2
  %8 = landingpad { i8*, i32 }
          cleanup
  %9 = extractvalue { i8*, i32 } %8, 0
  %10 = extractvalue { i8*, i32 } %8, 1
  %11 = getelementptr inbounds { i8*, i32 }, { i8*, i32 }* %0, i32 0, i32 0
  store i8* %9, i8** %11, align 8
  %12 = getelementptr inbounds { i8*, i32 }, { i8*, i32 }* %0, i32 0, i32 1
  store i32 %10, i32* %12, align 8
  br label %bb12

bb5:                                              ; preds = %bb3
  unreachable

bb6:                                              ; preds = %bb3
  br label %bb10

bb4:                                              ; preds = %bb3
  %13 = bitcast i64** %_7 to { [0 x i8]*, i64 }**
  %14 = load { [0 x i8]*, i64 }*, { [0 x i8]*, i64 }** %13, align 8, !nonnull !8
  store { [0 x i8]*, i64 }* %14, { [0 x i8]*, i64 }** %arg, align 8
; invoke <&T as core::convert::AsRef<U>>::as_ref
  %15 = invoke { %"std::ffi::os_str::OsStr"*, i64 } @"_ZN55_$LT$$RF$T$u20$as$u20$core..convert..AsRef$LT$U$GT$$GT$6as_ref17h49e5a6825bdfbeddE"({ [0 x i8]*, i64 }** align 8 dereferenceable(8) %arg)
          to label %bb7 unwind label %cleanup1

bb7:                                              ; preds = %bb4
  %_14.0 = extractvalue { %"std::ffi::os_str::OsStr"*, i64 } %15, 0
  %_14.1 = extractvalue { %"std::ffi::os_str::OsStr"*, i64 } %15, 1
; invoke std::process::Command::arg
  %_12 = invoke align 8 dereferenceable(200) %"std::process::Command"* @_ZN3std7process7Command3arg17hcb5cab1230aa7054E(%"std::process::Command"* align 8 dereferenceable(200) %self, %"std::ffi::os_str::OsStr"* nonnull align 1 %_14.0, i64 %_14.1)
          to label %bb8 unwind label %cleanup1

bb11:                                             ; preds = %cleanup1
  br label %bb14

cleanup1:                                         ; preds = %bb7, %bb4
  %16 = landingpad { i8*, i32 }
          cleanup
  %17 = extractvalue { i8*, i32 } %16, 0
  %18 = extractvalue { i8*, i32 } %16, 1
  %19 = getelementptr inbounds { i8*, i32 }, { i8*, i32 }* %0, i32 0, i32 0
  store i8* %17, i8** %19, align 8
  %20 = getelementptr inbounds { i8*, i32 }, { i8*, i32 }* %0, i32 0, i32 1
  store i32 %18, i32* %20, align 8
  br label %bb11

bb8:                                              ; preds = %bb7
  br label %bb9

bb14:                                             ; preds = %bb11
  br label %bb12

bb9:                                              ; preds = %bb8
  br label %bb2

bb13:                                             ; preds = %bb12
  %21 = bitcast { i8*, i32 }* %0 to i8**
  %22 = load i8*, i8** %21, align 8
  %23 = getelementptr inbounds { i8*, i32 }, { i8*, i32 }* %0, i32 0, i32 1
  %24 = load i32, i32* %23, align 8
  %25 = insertvalue { i8*, i32 } undef, i8* %22, 0
  %26 = insertvalue { i8*, i32 } %25, i32 %24, 1
  resume { i8*, i32 } %26

bb10:                                             ; preds = %bb6
  ret %"std::process::Command"* %self
}

; <&T as core::fmt::Display>::fmt
; Function Attrs: nonlazybind uwtable
define internal zeroext i1 @"_ZN44_$LT$$RF$T$u20$as$u20$core..fmt..Display$GT$3fmt17hb8e796f6bde7428cE"({ [0 x i8]*, i64 }* align 8 dereferenceable(16) %self, %"core::fmt::Formatter"* align 8 dereferenceable(64) %f) unnamed_addr #0 {
start:
  %0 = getelementptr inbounds { [0 x i8]*, i64 }, { [0 x i8]*, i64 }* %self, i32 0, i32 0
  %_4.0 = load [0 x i8]*, [0 x i8]** %0, align 8, !nonnull !8
  %1 = getelementptr inbounds { [0 x i8]*, i64 }, { [0 x i8]*, i64 }* %self, i32 0, i32 1
  %_4.1 = load i64, i64* %1, align 8
; call <str as core::fmt::Display>::fmt
  %2 = call zeroext i1 @"_ZN42_$LT$str$u20$as$u20$core..fmt..Display$GT$3fmt17h4fb653153270e40aE"([0 x i8]* nonnull align 1 %_4.0, i64 %_4.1, %"core::fmt::Formatter"* align 8 dereferenceable(64) %f)
  br label %bb1

bb1:                                              ; preds = %start
  ret i1 %2
}

; core::fmt::ArgumentV1::new
; Function Attrs: nonlazybind uwtable
define internal { i8*, i64* } @_ZN4core3fmt10ArgumentV13new17h667cdc2e451b5a6dE({ [0 x i8]*, i64 }* align 8 dereferenceable(16) %x, i1 ({ [0 x i8]*, i64 }*, %"core::fmt::Formatter"*)* nonnull %f) unnamed_addr #0 {
start:
  %0 = alloca %"core::fmt::Opaque"*, align 8
  %1 = alloca i1 (%"core::fmt::Opaque"*, %"core::fmt::Formatter"*)*, align 8
  %2 = alloca { i8*, i64* }, align 8
  %3 = bitcast i1 ({ [0 x i8]*, i64 }*, %"core::fmt::Formatter"*)* %f to i1 (%"core::fmt::Opaque"*, %"core::fmt::Formatter"*)*
  store i1 (%"core::fmt::Opaque"*, %"core::fmt::Formatter"*)* %3, i1 (%"core::fmt::Opaque"*, %"core::fmt::Formatter"*)** %1, align 8
  %_3 = load i1 (%"core::fmt::Opaque"*, %"core::fmt::Formatter"*)*, i1 (%"core::fmt::Opaque"*, %"core::fmt::Formatter"*)** %1, align 8, !nonnull !8
  br label %bb1

bb1:                                              ; preds = %start
  %4 = bitcast { [0 x i8]*, i64 }* %x to %"core::fmt::Opaque"*
  store %"core::fmt::Opaque"* %4, %"core::fmt::Opaque"** %0, align 8
  %_5 = load %"core::fmt::Opaque"*, %"core::fmt::Opaque"** %0, align 8, !nonnull !8
  br label %bb2

bb2:                                              ; preds = %bb1
  %5 = bitcast { i8*, i64* }* %2 to %"core::fmt::Opaque"**
  store %"core::fmt::Opaque"* %_5, %"core::fmt::Opaque"** %5, align 8
  %6 = getelementptr inbounds { i8*, i64* }, { i8*, i64* }* %2, i32 0, i32 1
  %7 = bitcast i64** %6 to i1 (%"core::fmt::Opaque"*, %"core::fmt::Formatter"*)**
  store i1 (%"core::fmt::Opaque"*, %"core::fmt::Formatter"*)* %_3, i1 (%"core::fmt::Opaque"*, %"core::fmt::Formatter"*)** %7, align 8
  %8 = getelementptr inbounds { i8*, i64* }, { i8*, i64* }* %2, i32 0, i32 0
  %9 = load i8*, i8** %8, align 8, !nonnull !8
  %10 = getelementptr inbounds { i8*, i64* }, { i8*, i64* }* %2, i32 0, i32 1
  %11 = load i64*, i64** %10, align 8, !nonnull !8
  %12 = insertvalue { i8*, i64* } undef, i8* %9, 0
  %13 = insertvalue { i8*, i64* } %12, i64* %11, 1
  ret { i8*, i64* } %13
}

; core::fmt::Arguments::new_v1
; Function Attrs: inlinehint nonlazybind uwtable
define internal void @_ZN4core3fmt9Arguments6new_v117hb08dc7d5e9fd9b66E(%"core::fmt::Arguments"* noalias nocapture sret(%"core::fmt::Arguments") dereferenceable(48) %0, [0 x { [0 x i8]*, i64 }]* nonnull align 8 %pieces.0, i64 %pieces.1, [0 x { i8*, i64* }]* nonnull align 8 %args.0, i64 %args.1) unnamed_addr #1 {
start:
  %_16 = alloca { i64*, i64 }, align 8
  %_3 = alloca i8, align 1
  %_4 = icmp ult i64 %pieces.1, %args.1
  br i1 %_4, label %bb1, label %bb2

bb2:                                              ; preds = %start
  %_12 = add i64 %args.1, 1
  %_9 = icmp ugt i64 %pieces.1, %_12
  %1 = zext i1 %_9 to i8
  store i8 %1, i8* %_3, align 1
  br label %bb3

bb1:                                              ; preds = %start
  store i8 1, i8* %_3, align 1
  br label %bb3

bb3:                                              ; preds = %bb2, %bb1
  %2 = load i8, i8* %_3, align 1, !range !9
  %3 = trunc i8 %2 to i1
  br i1 %3, label %bb4, label %bb5

bb5:                                              ; preds = %bb3
  %4 = bitcast { i64*, i64 }* %_16 to {}**
  store {}* null, {}** %4, align 8
  %5 = bitcast %"core::fmt::Arguments"* %0 to { [0 x { [0 x i8]*, i64 }]*, i64 }*
  %6 = getelementptr inbounds { [0 x { [0 x i8]*, i64 }]*, i64 }, { [0 x { [0 x i8]*, i64 }]*, i64 }* %5, i32 0, i32 0
  store [0 x { [0 x i8]*, i64 }]* %pieces.0, [0 x { [0 x i8]*, i64 }]** %6, align 8
  %7 = getelementptr inbounds { [0 x { [0 x i8]*, i64 }]*, i64 }, { [0 x { [0 x i8]*, i64 }]*, i64 }* %5, i32 0, i32 1
  store i64 %pieces.1, i64* %7, align 8
  %8 = getelementptr inbounds %"core::fmt::Arguments", %"core::fmt::Arguments"* %0, i32 0, i32 1
  %9 = getelementptr inbounds { i64*, i64 }, { i64*, i64 }* %_16, i32 0, i32 0
  %10 = load i64*, i64** %9, align 8
  %11 = getelementptr inbounds { i64*, i64 }, { i64*, i64 }* %_16, i32 0, i32 1
  %12 = load i64, i64* %11, align 8
  %13 = getelementptr inbounds { i64*, i64 }, { i64*, i64 }* %8, i32 0, i32 0
  store i64* %10, i64** %13, align 8
  %14 = getelementptr inbounds { i64*, i64 }, { i64*, i64 }* %8, i32 0, i32 1
  store i64 %12, i64* %14, align 8
  %15 = getelementptr inbounds %"core::fmt::Arguments", %"core::fmt::Arguments"* %0, i32 0, i32 2
  %16 = getelementptr inbounds { [0 x { i8*, i64* }]*, i64 }, { [0 x { i8*, i64* }]*, i64 }* %15, i32 0, i32 0
  store [0 x { i8*, i64* }]* %args.0, [0 x { i8*, i64* }]** %16, align 8
  %17 = getelementptr inbounds { [0 x { i8*, i64* }]*, i64 }, { [0 x { i8*, i64* }]*, i64 }* %15, i32 0, i32 1
  store i64 %args.1, i64* %17, align 8
  ret void

bb4:                                              ; preds = %bb3
; call core::panicking::panic
  call void @_ZN4core9panicking5panic17hac91d6d33ac66361E([0 x i8]* nonnull align 1 bitcast (<{ [12 x i8] }>* @alloc77 to [0 x i8]*), i64 12, %"core::panic::location::Location"* align 8 dereferenceable(24) bitcast (<{ i8*, [16 x i8] }>* @alloc79 to %"core::panic::location::Location"*)) #9
  unreachable
}

; core::mem::maybe_uninit::MaybeUninit<T>::assume_init_drop
; Function Attrs: nonlazybind uwtable
define internal void @"_ZN4core3mem12maybe_uninit20MaybeUninit$LT$T$GT$16assume_init_drop17h8be5db87850b27d7E"(%"core::mem::maybe_uninit::MaybeUninit<std::ffi::os_str::OsString>"* align 8 dereferenceable(24) %self) unnamed_addr #0 {
start:
  %0 = bitcast %"core::mem::maybe_uninit::MaybeUninit<std::ffi::os_str::OsString>"* %self to %"std::ffi::os_str::OsString"*
  br label %bb1

bb1:                                              ; preds = %start
; call core::ptr::drop_in_place<std::ffi::os_str::OsString>
  call void @"_ZN4core3ptr47drop_in_place$LT$std..ffi..os_str..OsString$GT$17h5e92125e2d6cf3c0E"(%"std::ffi::os_str::OsString"* %0)
  br label %bb2

bb2:                                              ; preds = %bb1
  ret void
}

; core::mem::maybe_uninit::MaybeUninit<T>::assume_init_drop
; Function Attrs: nonlazybind uwtable
define internal void @"_ZN4core3mem12maybe_uninit20MaybeUninit$LT$T$GT$16assume_init_drop17hb9d0d74c40016e1fE"(%"core::mem::maybe_uninit::MaybeUninit<core::option::Option<std::ffi::os_str::OsString>>"* align 8 dereferenceable(24) %self) unnamed_addr #0 {
start:
  %0 = bitcast %"core::mem::maybe_uninit::MaybeUninit<core::option::Option<std::ffi::os_str::OsString>>"* %self to %"core::option::Option<std::ffi::os_str::OsString>"*
  br label %bb1

bb1:                                              ; preds = %start
; call core::ptr::drop_in_place<core::option::Option<std::ffi::os_str::OsString>>
  call void @"_ZN4core3ptr75drop_in_place$LT$core..option..Option$LT$std..ffi..os_str..OsString$GT$$GT$17h0ee836b27546b805E"(%"core::option::Option<std::ffi::os_str::OsString>"* %0)
  br label %bb2

bb2:                                              ; preds = %bb1
  ret void
}

; core::mem::drop
; Function Attrs: inlinehint nonlazybind uwtable
define internal void @_ZN4core3mem4drop17hf7c62f846d3863e2E(%"alloc::collections::btree::map::IntoIter<std::ffi::os_str::OsString, core::option::Option<std::ffi::os_str::OsString>>"* noalias nocapture dereferenceable(72) %_x) unnamed_addr #1 {
start:
; call core::ptr::drop_in_place<alloc::collections::btree::map::IntoIter<std::ffi::os_str::OsString,core::option::Option<std::ffi::os_str::OsString>>>
  call void @"_ZN4core3ptr152drop_in_place$LT$alloc..collections..btree..map..IntoIter$LT$std..ffi..os_str..OsString$C$core..option..Option$LT$std..ffi..os_str..OsString$GT$$GT$$GT$17h0bbff82997579894E"(%"alloc::collections::btree::map::IntoIter<std::ffi::os_str::OsString, core::option::Option<std::ffi::os_str::OsString>>"* %_x)
  br label %bb1

bb1:                                              ; preds = %start
  ret void
}

; core::mem::forget
; Function Attrs: inlinehint nonlazybind uwtable
define internal void @_ZN4core3mem6forget17h5860663d941616e9E(i64* align 8 dereferenceable(72) %t) unnamed_addr #1 {
start:
  %0 = alloca i64*, align 8
  store i64* %t, i64** %0, align 8
  %1 = load i64*, i64** %0, align 8, !nonnull !8
  br label %bb1

bb1:                                              ; preds = %start
  ret void
}

; core::mem::forget
; Function Attrs: inlinehint nonlazybind uwtable
define internal void @_ZN4core3mem6forget17h6e2ea7c5ba9c127cE() unnamed_addr #1 {
start:
  %0 = alloca %"core::mem::manually_drop::ManuallyDrop<alloc::collections::btree::mem::replace::PanicGuard>", align 1
  %1 = bitcast %"core::mem::manually_drop::ManuallyDrop<alloc::collections::btree::mem::replace::PanicGuard>"* %0 to %"alloc::collections::btree::mem::replace::PanicGuard"*
  br label %bb1

bb1:                                              ; preds = %start
  ret void
}

; core::mem::replace
; Function Attrs: inlinehint nonlazybind uwtable
define internal { i64, i64* } @_ZN4core3mem7replace17h59cf3c6c4b24d026E({ i64, i64* }* align 8 dereferenceable(16) %dest, i64 %src.0, i64* %src.1) unnamed_addr #1 personality i32 (i32, i32, i64, %"unwind::libunwind::_Unwind_Exception"*, %"unwind::libunwind::_Unwind_Context"*)* @rust_eh_personality {
start:
  %0 = alloca { i8*, i32 }, align 8
  %_7 = alloca i8, align 1
  store i8 0, i8* %_7, align 1
  store i8 1, i8* %_7, align 1
; invoke core::ptr::read
  %1 = invoke { i64, i64* } @_ZN4core3ptr4read17h987596c3c2e83367E({ i64, i64* }* %dest)
          to label %bb1 unwind label %cleanup

bb1:                                              ; preds = %start
  %result.0 = extractvalue { i64, i64* } %1, 0
  %result.1 = extractvalue { i64, i64* } %1, 1
  store i8 0, i8* %_7, align 1
; invoke core::ptr::write
  invoke void @_ZN4core3ptr5write17h7f9b231ce9681a38E({ i64, i64* }* %dest, i64 %src.0, i64* %src.1)
          to label %bb2 unwind label %cleanup1

bb6:                                              ; preds = %bb3, %cleanup
  %2 = load i8, i8* %_7, align 1, !range !9
  %3 = trunc i8 %2 to i1
  br i1 %3, label %bb5, label %bb4

cleanup:                                          ; preds = %start
  %4 = landingpad { i8*, i32 }
          cleanup
  %5 = extractvalue { i8*, i32 } %4, 0
  %6 = extractvalue { i8*, i32 } %4, 1
  %7 = getelementptr inbounds { i8*, i32 }, { i8*, i32 }* %0, i32 0, i32 0
  store i8* %5, i8** %7, align 8
  %8 = getelementptr inbounds { i8*, i32 }, { i8*, i32 }* %0, i32 0, i32 1
  store i32 %6, i32* %8, align 8
  br label %bb6

bb2:                                              ; preds = %bb1
  %9 = insertvalue { i64, i64* } undef, i64 %result.0, 0
  %10 = insertvalue { i64, i64* } %9, i64* %result.1, 1
  ret { i64, i64* } %10

bb3:                                              ; preds = %cleanup1
  br label %bb6

cleanup1:                                         ; preds = %bb1
  %11 = landingpad { i8*, i32 }
          cleanup
  %12 = extractvalue { i8*, i32 } %11, 0
  %13 = extractvalue { i8*, i32 } %11, 1
  %14 = getelementptr inbounds { i8*, i32 }, { i8*, i32 }* %0, i32 0, i32 0
  store i8* %12, i8** %14, align 8
  %15 = getelementptr inbounds { i8*, i32 }, { i8*, i32 }* %0, i32 0, i32 1
  store i32 %13, i32* %15, align 8
  br label %bb3

bb4:                                              ; preds = %bb5, %bb6
  %16 = bitcast { i8*, i32 }* %0 to i8**
  %17 = load i8*, i8** %16, align 8
  %18 = getelementptr inbounds { i8*, i32 }, { i8*, i32 }* %0, i32 0, i32 1
  %19 = load i32, i32* %18, align 8
  %20 = insertvalue { i8*, i32 } undef, i8* %17, 0
  %21 = insertvalue { i8*, i32 } %20, i32 %19, 1
  resume { i8*, i32 } %21

bb5:                                              ; preds = %bb6
  br label %bb4
}

; core::mem::replace
; Function Attrs: inlinehint nonlazybind uwtable
define internal void @_ZN4core3mem7replace17h8f19b1c87b21bf29E(%"core::option::Option<alloc::collections::btree::navigate::LazyLeafHandle<alloc::collections::btree::node::marker::Dying, std::ffi::os_str::OsString, core::option::Option<std::ffi::os_str::OsString>>>"* noalias nocapture sret(%"core::option::Option<alloc::collections::btree::navigate::LazyLeafHandle<alloc::collections::btree::node::marker::Dying, std::ffi::os_str::OsString, core::option::Option<std::ffi::os_str::OsString>>>") dereferenceable(32) %result, %"core::option::Option<alloc::collections::btree::navigate::LazyLeafHandle<alloc::collections::btree::node::marker::Dying, std::ffi::os_str::OsString, core::option::Option<std::ffi::os_str::OsString>>>"* align 8 dereferenceable(32) %dest, %"core::option::Option<alloc::collections::btree::navigate::LazyLeafHandle<alloc::collections::btree::node::marker::Dying, std::ffi::os_str::OsString, core::option::Option<std::ffi::os_str::OsString>>>"* noalias nocapture dereferenceable(32) %src) unnamed_addr #1 personality i32 (i32, i32, i64, %"unwind::libunwind::_Unwind_Exception"*, %"unwind::libunwind::_Unwind_Context"*)* @rust_eh_personality {
start:
  %0 = alloca { i8*, i32 }, align 8
  %_7 = alloca i8, align 1
  %_6 = alloca %"core::option::Option<alloc::collections::btree::navigate::LazyLeafHandle<alloc::collections::btree::node::marker::Dying, std::ffi::os_str::OsString, core::option::Option<std::ffi::os_str::OsString>>>", align 8
  store i8 0, i8* %_7, align 1
  store i8 1, i8* %_7, align 1
; invoke core::ptr::read
  invoke void @_ZN4core3ptr4read17h4a20600aa69da1b5E(%"core::option::Option<alloc::collections::btree::navigate::LazyLeafHandle<alloc::collections::btree::node::marker::Dying, std::ffi::os_str::OsString, core::option::Option<std::ffi::os_str::OsString>>>"* noalias nocapture sret(%"core::option::Option<alloc::collections::btree::navigate::LazyLeafHandle<alloc::collections::btree::node::marker::Dying, std::ffi::os_str::OsString, core::option::Option<std::ffi::os_str::OsString>>>") dereferenceable(32) %result, %"core::option::Option<alloc::collections::btree::navigate::LazyLeafHandle<alloc::collections::btree::node::marker::Dying, std::ffi::os_str::OsString, core::option::Option<std::ffi::os_str::OsString>>>"* %dest)
          to label %bb1 unwind label %cleanup

bb1:                                              ; preds = %start
  store i8 0, i8* %_7, align 1
  %1 = bitcast %"core::option::Option<alloc::collections::btree::navigate::LazyLeafHandle<alloc::collections::btree::node::marker::Dying, std::ffi::os_str::OsString, core::option::Option<std::ffi::os_str::OsString>>>"* %_6 to i8*
  %2 = bitcast %"core::option::Option<alloc::collections::btree::navigate::LazyLeafHandle<alloc::collections::btree::node::marker::Dying, std::ffi::os_str::OsString, core::option::Option<std::ffi::os_str::OsString>>>"* %src to i8*
  call void @llvm.memcpy.p0i8.p0i8.i64(i8* align 8 %1, i8* align 8 %2, i64 32, i1 false)
; invoke core::ptr::write
  invoke void @_ZN4core3ptr5write17h3e07fae0d50072a8E(%"core::option::Option<alloc::collections::btree::navigate::LazyLeafHandle<alloc::collections::btree::node::marker::Dying, std::ffi::os_str::OsString, core::option::Option<std::ffi::os_str::OsString>>>"* %dest, %"core::option::Option<alloc::collections::btree::navigate::LazyLeafHandle<alloc::collections::btree::node::marker::Dying, std::ffi::os_str::OsString, core::option::Option<std::ffi::os_str::OsString>>>"* noalias nocapture dereferenceable(32) %_6)
          to label %bb2 unwind label %cleanup1

bb6:                                              ; preds = %bb3, %cleanup
  %3 = load i8, i8* %_7, align 1, !range !9
  %4 = trunc i8 %3 to i1
  br i1 %4, label %bb5, label %bb4

cleanup:                                          ; preds = %start
  %5 = landingpad { i8*, i32 }
          cleanup
  %6 = extractvalue { i8*, i32 } %5, 0
  %7 = extractvalue { i8*, i32 } %5, 1
  %8 = getelementptr inbounds { i8*, i32 }, { i8*, i32 }* %0, i32 0, i32 0
  store i8* %6, i8** %8, align 8
  %9 = getelementptr inbounds { i8*, i32 }, { i8*, i32 }* %0, i32 0, i32 1
  store i32 %7, i32* %9, align 8
  br label %bb6

bb2:                                              ; preds = %bb1
  ret void

bb3:                                              ; preds = %cleanup1
  br label %bb6

cleanup1:                                         ; preds = %bb1
  %10 = landingpad { i8*, i32 }
          cleanup
  %11 = extractvalue { i8*, i32 } %10, 0
  %12 = extractvalue { i8*, i32 } %10, 1
  %13 = getelementptr inbounds { i8*, i32 }, { i8*, i32 }* %0, i32 0, i32 0
  store i8* %11, i8** %13, align 8
  %14 = getelementptr inbounds { i8*, i32 }, { i8*, i32 }* %0, i32 0, i32 1
  store i32 %12, i32* %14, align 8
  br label %bb3

bb4:                                              ; preds = %bb5, %bb6
  %15 = bitcast { i8*, i32 }* %0 to i8**
  %16 = load i8*, i8** %15, align 8
  %17 = getelementptr inbounds { i8*, i32 }, { i8*, i32 }* %0, i32 0, i32 1
  %18 = load i32, i32* %17, align 8
  %19 = insertvalue { i8*, i32 } undef, i8* %16, 0
  %20 = insertvalue { i8*, i32 } %19, i32 %18, 1
  resume { i8*, i32 } %20

bb5:                                              ; preds = %bb6
  br label %bb4
}

; core::num::nonzero::NonZeroUsize::new_unchecked
; Function Attrs: inlinehint nonlazybind uwtable
define internal i64 @_ZN4core3num7nonzero12NonZeroUsize13new_unchecked17h9b66acfc82121a0fE(i64 %n) unnamed_addr #1 {
start:
  %0 = alloca i64, align 8
  store i64 %n, i64* %0, align 8
  %1 = load i64, i64* %0, align 8, !range !10
  ret i64 %1
}

; core::num::nonzero::NonZeroUsize::get
; Function Attrs: inlinehint nonlazybind uwtable
define internal i64 @_ZN4core3num7nonzero12NonZeroUsize3get17haef8a9ecd10710fcE(i64 %self) unnamed_addr #1 {
start:
  ret i64 %self
}

; core::ops::function::FnOnce::call_once{{vtable.shim}}
; Function Attrs: inlinehint nonlazybind uwtable
define internal i32 @"_ZN4core3ops8function6FnOnce40call_once$u7b$$u7b$vtable.shim$u7d$$u7d$17h8e0590596bc72608E"(i64** %_1) unnamed_addr #1 {
start:
  %_2 = alloca {}, align 1
  %0 = load i64*, i64** %_1, align 8, !nonnull !8
; call core::ops::function::FnOnce::call_once
  %1 = call i32 @_ZN4core3ops8function6FnOnce9call_once17h4df78d712145e907E(i64* nonnull %0)
  br label %bb1

bb1:                                              ; preds = %start
  ret i32 %1
}

; core::ops::function::FnOnce::call_once
; Function Attrs: inlinehint nonlazybind uwtable
define internal i32 @_ZN4core3ops8function6FnOnce9call_once17h4df78d712145e907E(i64* nonnull %0) unnamed_addr #1 personality i32 (i32, i32, i64, %"unwind::libunwind::_Unwind_Exception"*, %"unwind::libunwind::_Unwind_Context"*)* @rust_eh_personality {
start:
  %1 = alloca { i8*, i32 }, align 8
  %_2 = alloca {}, align 1
  %_1 = alloca i64*, align 8
  store i64* %0, i64** %_1, align 8
; invoke std::rt::lang_start::{{closure}}
  %2 = invoke i32 @"_ZN3std2rt10lang_start28_$u7b$$u7b$closure$u7d$$u7d$17h95f0280e2046279fE"(i64** align 8 dereferenceable(8) %_1)
          to label %bb1 unwind label %cleanup

bb1:                                              ; preds = %start
  br label %bb2

bb3:                                              ; preds = %cleanup
  br label %bb4

cleanup:                                          ; preds = %start
  %3 = landingpad { i8*, i32 }
          cleanup
  %4 = extractvalue { i8*, i32 } %3, 0
  %5 = extractvalue { i8*, i32 } %3, 1
  %6 = getelementptr inbounds { i8*, i32 }, { i8*, i32 }* %1, i32 0, i32 0
  store i8* %4, i8** %6, align 8
  %7 = getelementptr inbounds { i8*, i32 }, { i8*, i32 }* %1, i32 0, i32 1
  store i32 %5, i32* %7, align 8
  br label %bb3

bb4:                                              ; preds = %bb3
  %8 = bitcast { i8*, i32 }* %1 to i8**
  %9 = load i8*, i8** %8, align 8
  %10 = getelementptr inbounds { i8*, i32 }, { i8*, i32 }* %1, i32 0, i32 1
  %11 = load i32, i32* %10, align 8
  %12 = insertvalue { i8*, i32 } undef, i8* %9, 0
  %13 = insertvalue { i8*, i32 } %12, i32 %11, 1
  resume { i8*, i32 } %13

bb2:                                              ; preds = %bb1
  ret i32 %2
}

; core::ops::function::FnOnce::call_once
; Function Attrs: inlinehint nonlazybind uwtable
define internal void @_ZN4core3ops8function6FnOnce9call_once17ha4a287f6c887def8E(void ()* nonnull %_1) unnamed_addr #1 {
start:
  %_2 = alloca {}, align 1
  call void %_1()
  br label %bb1

bb1:                                              ; preds = %start
  ret void
}

; core::ptr::drop_in_place<alloc::boxed::Box<dyn std::error::Error+core::marker::Send+core::marker::Sync>>
; Function Attrs: nonlazybind uwtable
define internal void @"_ZN4core3ptr117drop_in_place$LT$alloc..boxed..Box$LT$dyn$u20$std..error..Error$u2b$core..marker..Send$u2b$core..marker..Sync$GT$$GT$17h44dcf3e2aec9383bE"({ {}*, [3 x i64]* }* %_1) unnamed_addr #0 personality i32 (i32, i32, i64, %"unwind::libunwind::_Unwind_Exception"*, %"unwind::libunwind::_Unwind_Context"*)* @rust_eh_personality {
start:
  %0 = alloca { i8*, i32 }, align 8
  %1 = getelementptr inbounds { {}*, [3 x i64]* }, { {}*, [3 x i64]* }* %_1, i32 0, i32 0
  %2 = load {}*, {}** %1, align 8, !nonnull !8
  %3 = getelementptr inbounds { {}*, [3 x i64]* }, { {}*, [3 x i64]* }* %_1, i32 0, i32 1
  %4 = load [3 x i64]*, [3 x i64]** %3, align 8, !nonnull !8
  %5 = bitcast [3 x i64]* %4 to void ({}*)**
  %6 = getelementptr inbounds void ({}*)*, void ({}*)** %5, i64 0
  %7 = load void ({}*)*, void ({}*)** %6, align 8, !invariant.load !8, !nonnull !8
  invoke void %7({}* %2)
          to label %bb3 unwind label %cleanup

bb3:                                              ; preds = %start
  %8 = bitcast { {}*, [3 x i64]* }* %_1 to { i8*, i64* }*
  %9 = getelementptr inbounds { i8*, i64* }, { i8*, i64* }* %8, i32 0, i32 0
  %10 = load i8*, i8** %9, align 8, !nonnull !8
  %11 = getelementptr inbounds { i8*, i64* }, { i8*, i64* }* %8, i32 0, i32 1
  %12 = load i64*, i64** %11, align 8, !nonnull !8
; call alloc::alloc::box_free
  call void @_ZN5alloc5alloc8box_free17h451e53515c61aaa1E(i8* nonnull %10, i64* align 8 dereferenceable(24) %12)
  br label %bb1

bb4:                                              ; preds = %cleanup
  %13 = bitcast { {}*, [3 x i64]* }* %_1 to { i8*, i64* }*
  %14 = getelementptr inbounds { i8*, i64* }, { i8*, i64* }* %13, i32 0, i32 0
  %15 = load i8*, i8** %14, align 8, !nonnull !8
  %16 = getelementptr inbounds { i8*, i64* }, { i8*, i64* }* %13, i32 0, i32 1
  %17 = load i64*, i64** %16, align 8, !nonnull !8
; call alloc::alloc::box_free
  call void @_ZN5alloc5alloc8box_free17h451e53515c61aaa1E(i8* nonnull %15, i64* align 8 dereferenceable(24) %17) #10
  br label %bb2

cleanup:                                          ; preds = %start
  %18 = landingpad { i8*, i32 }
          cleanup
  %19 = extractvalue { i8*, i32 } %18, 0
  %20 = extractvalue { i8*, i32 } %18, 1
  %21 = getelementptr inbounds { i8*, i32 }, { i8*, i32 }* %0, i32 0, i32 0
  store i8* %19, i8** %21, align 8
  %22 = getelementptr inbounds { i8*, i32 }, { i8*, i32 }* %0, i32 0, i32 1
  store i32 %20, i32* %22, align 8
  br label %bb4

bb2:                                              ; preds = %bb4
  %23 = bitcast { i8*, i32 }* %0 to i8**
  %24 = load i8*, i8** %23, align 8
  %25 = getelementptr inbounds { i8*, i32 }, { i8*, i32 }* %0, i32 0, i32 1
  %26 = load i32, i32* %25, align 8
  %27 = insertvalue { i8*, i32 } undef, i8* %24, 0
  %28 = insertvalue { i8*, i32 } %27, i32 %26, 1
  resume { i8*, i32 } %28

bb1:                                              ; preds = %bb3
  ret void
}

; core::ptr::drop_in_place<alloc::collections::btree::map::BTreeMap<std::ffi::os_str::OsString,core::option::Option<std::ffi::os_str::OsString>>>
; Function Attrs: nonlazybind uwtable
define internal void @"_ZN4core3ptr152drop_in_place$LT$alloc..collections..btree..map..BTreeMap$LT$std..ffi..os_str..OsString$C$core..option..Option$LT$std..ffi..os_str..OsString$GT$$GT$$GT$17h9d354491d71bda92E"(%"alloc::collections::btree::map::BTreeMap<std::ffi::os_str::OsString, core::option::Option<std::ffi::os_str::OsString>>"* %_1) unnamed_addr #0 {
start:
; call <alloc::collections::btree::map::BTreeMap<K,V> as core::ops::drop::Drop>::drop
  call void @"_ZN95_$LT$alloc..collections..btree..map..BTreeMap$LT$K$C$V$GT$$u20$as$u20$core..ops..drop..Drop$GT$4drop17hc57a40bb97f9d5efE"(%"alloc::collections::btree::map::BTreeMap<std::ffi::os_str::OsString, core::option::Option<std::ffi::os_str::OsString>>"* align 8 dereferenceable(24) %_1)
  br label %bb1

bb1:                                              ; preds = %start
  ret void
}

; core::ptr::drop_in_place<alloc::collections::btree::map::IntoIter<std::ffi::os_str::OsString,core::option::Option<std::ffi::os_str::OsString>>>
; Function Attrs: nonlazybind uwtable
define internal void @"_ZN4core3ptr152drop_in_place$LT$alloc..collections..btree..map..IntoIter$LT$std..ffi..os_str..OsString$C$core..option..Option$LT$std..ffi..os_str..OsString$GT$$GT$$GT$17h0bbff82997579894E"(%"alloc::collections::btree::map::IntoIter<std::ffi::os_str::OsString, core::option::Option<std::ffi::os_str::OsString>>"* %_1) unnamed_addr #0 {
start:
; call <alloc::collections::btree::map::IntoIter<K,V> as core::ops::drop::Drop>::drop
  call void @"_ZN95_$LT$alloc..collections..btree..map..IntoIter$LT$K$C$V$GT$$u20$as$u20$core..ops..drop..Drop$GT$4drop17h249287db843d4796E"(%"alloc::collections::btree::map::IntoIter<std::ffi::os_str::OsString, core::option::Option<std::ffi::os_str::OsString>>"* align 8 dereferenceable(72) %_1)
  br label %bb1

bb1:                                              ; preds = %start
  ret void
}

; core::ptr::drop_in_place<dyn core::ops::function::FnMut<()>+Output = core::result::Result<(),std::io::error::Error>+core::marker::Send+core::marker::Sync>
; Function Attrs: nonlazybind uwtable
define internal void @"_ZN4core3ptr203drop_in_place$LT$dyn$u20$core..ops..function..FnMut$LT$$LP$$RP$$GT$$u2b$Output$u20$$u3d$$u20$core..result..Result$LT$$LP$$RP$$C$std..io..error..Error$GT$$u2b$core..marker..Send$u2b$core..marker..Sync$GT$17h051cee81767d5791E"({}* %_1.0, [3 x i64]* align 8 dereferenceable(24) %_1.1) unnamed_addr #0 {
start:
  %0 = bitcast [3 x i64]* %_1.1 to void ({}*)**
  %1 = getelementptr inbounds void ({}*)*, void ({}*)** %0, i64 0
  %2 = load void ({}*)*, void ({}*)** %1, align 8, !invariant.load !8, !nonnull !8
  call void %2({}* %_1.0)
  br label %bb1

bb1:                                              ; preds = %start
  ret void
}

; core::ptr::slice_from_raw_parts
; Function Attrs: inlinehint nonlazybind uwtable
define internal { [0 x i8]*, i64 } @_ZN4core3ptr20slice_from_raw_parts17h95ee4d590315534bE(i8* %data, i64 %len) unnamed_addr #1 {
start:
; call core::ptr::const_ptr::<impl *const T>::cast
  %_3 = call {}* @"_ZN4core3ptr9const_ptr33_$LT$impl$u20$$BP$const$u20$T$GT$4cast17h488c8f42f3ff433fE"(i8* %data)
  br label %bb1

bb1:                                              ; preds = %start
; call core::ptr::metadata::from_raw_parts
  %0 = call { [0 x i8]*, i64 } @_ZN4core3ptr8metadata14from_raw_parts17hb89a83b0ccc27790E({}* %_3, i64 %len)
  %1 = extractvalue { [0 x i8]*, i64 } %0, 0
  %2 = extractvalue { [0 x i8]*, i64 } %0, 1
  br label %bb2

bb2:                                              ; preds = %bb1
  %3 = insertvalue { [0 x i8]*, i64 } undef, [0 x i8]* %1, 0
  %4 = insertvalue { [0 x i8]*, i64 } %3, i64 %2, 1
  ret { [0 x i8]*, i64 } %4
}

; core::ptr::drop_in_place<<alloc::collections::btree::map::IntoIter<K,V> as core::ops::drop::Drop>::drop::DropGuard<std::ffi::os_str::OsString,core::option::Option<std::ffi::os_str::OsString>>>
; Function Attrs: nonlazybind uwtable
define internal void @"_ZN4core3ptr223drop_in_place$LT$$LT$alloc..collections..btree..map..IntoIter$LT$K$C$V$GT$$u20$as$u20$core..ops..drop..Drop$GT$..drop..DropGuard$LT$std..ffi..os_str..OsString$C$core..option..Option$LT$std..ffi..os_str..OsString$GT$$GT$$GT$17hbc93ea7af0008604E"(i64** %_1) unnamed_addr #0 {
start:
; call <<alloc::collections::btree::map::IntoIter<K,V> as core::ops::drop::Drop>::drop::DropGuard<K,V> as core::ops::drop::Drop>::drop
  call void @"_ZN166_$LT$$LT$alloc..collections..btree..map..IntoIter$LT$K$C$V$GT$$u20$as$u20$core..ops..drop..Drop$GT$..drop..DropGuard$LT$K$C$V$GT$$u20$as$u20$core..ops..drop..Drop$GT$4drop17h1bf2227fd5ad89dcE"(i64** align 8 dereferenceable(8) %_1)
  br label %bb1

bb1:                                              ; preds = %start
  ret void
}

; core::ptr::drop_in_place<alloc::boxed::Box<dyn core::ops::function::FnMut<()>+Output = core::result::Result<(),std::io::error::Error>+core::marker::Send+core::marker::Sync>>
; Function Attrs: nonlazybind uwtable
define internal void @"_ZN4core3ptr228drop_in_place$LT$alloc..boxed..Box$LT$dyn$u20$core..ops..function..FnMut$LT$$LP$$RP$$GT$$u2b$Output$u20$$u3d$$u20$core..result..Result$LT$$LP$$RP$$C$std..io..error..Error$GT$$u2b$core..marker..Send$u2b$core..marker..Sync$GT$$GT$17he0d8d20a526f5c78E"({ {}*, [3 x i64]* }* %_1) unnamed_addr #0 personality i32 (i32, i32, i64, %"unwind::libunwind::_Unwind_Exception"*, %"unwind::libunwind::_Unwind_Context"*)* @rust_eh_personality {
start:
  %0 = alloca { i8*, i32 }, align 8
  %1 = getelementptr inbounds { {}*, [3 x i64]* }, { {}*, [3 x i64]* }* %_1, i32 0, i32 0
  %2 = load {}*, {}** %1, align 8, !nonnull !8
  %3 = getelementptr inbounds { {}*, [3 x i64]* }, { {}*, [3 x i64]* }* %_1, i32 0, i32 1
  %4 = load [3 x i64]*, [3 x i64]** %3, align 8, !nonnull !8
  %5 = bitcast [3 x i64]* %4 to void ({}*)**
  %6 = getelementptr inbounds void ({}*)*, void ({}*)** %5, i64 0
  %7 = load void ({}*)*, void ({}*)** %6, align 8, !invariant.load !8, !nonnull !8
  invoke void %7({}* %2)
          to label %bb3 unwind label %cleanup

bb3:                                              ; preds = %start
  %8 = bitcast { {}*, [3 x i64]* }* %_1 to { i8*, i64* }*
  %9 = getelementptr inbounds { i8*, i64* }, { i8*, i64* }* %8, i32 0, i32 0
  %10 = load i8*, i8** %9, align 8, !nonnull !8
  %11 = getelementptr inbounds { i8*, i64* }, { i8*, i64* }* %8, i32 0, i32 1
  %12 = load i64*, i64** %11, align 8, !nonnull !8
; call alloc::alloc::box_free
  call void @_ZN5alloc5alloc8box_free17ha003506c3e06779bE(i8* nonnull %10, i64* align 8 dereferenceable(24) %12)
  br label %bb1

bb4:                                              ; preds = %cleanup
  %13 = bitcast { {}*, [3 x i64]* }* %_1 to { i8*, i64* }*
  %14 = getelementptr inbounds { i8*, i64* }, { i8*, i64* }* %13, i32 0, i32 0
  %15 = load i8*, i8** %14, align 8, !nonnull !8
  %16 = getelementptr inbounds { i8*, i64* }, { i8*, i64* }* %13, i32 0, i32 1
  %17 = load i64*, i64** %16, align 8, !nonnull !8
; call alloc::alloc::box_free
  call void @_ZN5alloc5alloc8box_free17ha003506c3e06779bE(i8* nonnull %15, i64* align 8 dereferenceable(24) %17) #10
  br label %bb2

cleanup:                                          ; preds = %start
  %18 = landingpad { i8*, i32 }
          cleanup
  %19 = extractvalue { i8*, i32 } %18, 0
  %20 = extractvalue { i8*, i32 } %18, 1
  %21 = getelementptr inbounds { i8*, i32 }, { i8*, i32 }* %0, i32 0, i32 0
  store i8* %19, i8** %21, align 8
  %22 = getelementptr inbounds { i8*, i32 }, { i8*, i32 }* %0, i32 0, i32 1
  store i32 %20, i32* %22, align 8
  br label %bb4

bb2:                                              ; preds = %bb4
  %23 = bitcast { i8*, i32 }* %0 to i8**
  %24 = load i8*, i8** %23, align 8
  %25 = getelementptr inbounds { i8*, i32 }, { i8*, i32 }* %0, i32 0, i32 1
  %26 = load i32, i32* %25, align 8
  %27 = insertvalue { i8*, i32 } undef, i8* %24, 0
  %28 = insertvalue { i8*, i32 } %27, i32 %26, 1
  resume { i8*, i32 } %28

bb1:                                              ; preds = %bb3
  ret void
}

; core::ptr::drop_in_place<[alloc::boxed::Box<dyn core::ops::function::FnMut<()>+Output = core::result::Result<(),std::io::error::Error>+core::marker::Send+core::marker::Sync>]>
; Function Attrs: nonlazybind uwtable
define internal void @"_ZN4core3ptr238drop_in_place$LT$$u5b$alloc..boxed..Box$LT$dyn$u20$core..ops..function..FnMut$LT$$LP$$RP$$GT$$u2b$Output$u20$$u3d$$u20$core..result..Result$LT$$LP$$RP$$C$std..io..error..Error$GT$$u2b$core..marker..Send$u2b$core..marker..Sync$GT$$u5d$$GT$17h235f01aa8df138e4E"([0 x { {}*, [3 x i64]* }]* %_1.0, i64 %_1.1) unnamed_addr #0 personality i32 (i32, i32, i64, %"unwind::libunwind::_Unwind_Exception"*, %"unwind::libunwind::_Unwind_Context"*)* @rust_eh_personality {
start:
  %0 = alloca { i8*, i32 }, align 8
  %_9 = alloca { {}*, [3 x i64]* }*, align 8
  %_4 = alloca i64, align 8
  br i1 false, label %bb7, label %bb12

bb7:                                              ; preds = %start
  store i64 0, i64* %_4, align 8
  br label %bb6

bb12:                                             ; preds = %start
  %1 = bitcast [0 x { {}*, [3 x i64]* }]* %_1.0 to { {}*, [3 x i64]* }*
  store { {}*, [3 x i64]* }* %1, { {}*, [3 x i64]* }** %_9, align 8
  %2 = load { {}*, [3 x i64]* }*, { {}*, [3 x i64]* }** %_9, align 8
  %_10 = getelementptr inbounds { {}*, [3 x i64]* }, { {}*, [3 x i64]* }* %2, i64 %_1.1
  br label %bb11

bb11:                                             ; preds = %bb10, %bb12
  %3 = load { {}*, [3 x i64]* }*, { {}*, [3 x i64]* }** %_9, align 8
  %_14 = icmp eq { {}*, [3 x i64]* }* %3, %_10
  br i1 %_14, label %bb1, label %bb10

bb10:                                             ; preds = %bb11
  %_13 = load { {}*, [3 x i64]* }*, { {}*, [3 x i64]* }** %_9, align 8
  %4 = load { {}*, [3 x i64]* }*, { {}*, [3 x i64]* }** %_9, align 8
  %5 = getelementptr inbounds { {}*, [3 x i64]* }, { {}*, [3 x i64]* }* %4, i64 1
  store { {}*, [3 x i64]* }* %5, { {}*, [3 x i64]* }** %_9, align 8
; invoke core::ptr::drop_in_place<alloc::boxed::Box<dyn core::ops::function::FnMut<()>+Output = core::result::Result<(),std::io::error::Error>+core::marker::Send+core::marker::Sync>>
  invoke void @"_ZN4core3ptr228drop_in_place$LT$alloc..boxed..Box$LT$dyn$u20$core..ops..function..FnMut$LT$$LP$$RP$$GT$$u2b$Output$u20$$u3d$$u20$core..result..Result$LT$$LP$$RP$$C$std..io..error..Error$GT$$u2b$core..marker..Send$u2b$core..marker..Sync$GT$$GT$17he0d8d20a526f5c78E"({ {}*, [3 x i64]* }* %_13)
          to label %bb11 unwind label %cleanup

bb1:                                              ; preds = %bb6, %bb11
  ret void

bb9:                                              ; preds = %bb8, %cleanup
  %6 = load { {}*, [3 x i64]* }*, { {}*, [3 x i64]* }** %_9, align 8
  %_12 = icmp eq { {}*, [3 x i64]* }* %6, %_10
  br i1 %_12, label %bb2, label %bb8

cleanup:                                          ; preds = %bb10
  %7 = landingpad { i8*, i32 }
          cleanup
  %8 = extractvalue { i8*, i32 } %7, 0
  %9 = extractvalue { i8*, i32 } %7, 1
  %10 = getelementptr inbounds { i8*, i32 }, { i8*, i32 }* %0, i32 0, i32 0
  store i8* %8, i8** %10, align 8
  %11 = getelementptr inbounds { i8*, i32 }, { i8*, i32 }* %0, i32 0, i32 1
  store i32 %9, i32* %11, align 8
  br label %bb9

bb8:                                              ; preds = %bb9
  %_11 = load { {}*, [3 x i64]* }*, { {}*, [3 x i64]* }** %_9, align 8
  %12 = load { {}*, [3 x i64]* }*, { {}*, [3 x i64]* }** %_9, align 8
  %13 = getelementptr inbounds { {}*, [3 x i64]* }, { {}*, [3 x i64]* }* %12, i64 1
  store { {}*, [3 x i64]* }* %13, { {}*, [3 x i64]* }** %_9, align 8
; call core::ptr::drop_in_place<alloc::boxed::Box<dyn core::ops::function::FnMut<()>+Output = core::result::Result<(),std::io::error::Error>+core::marker::Send+core::marker::Sync>>
  call void @"_ZN4core3ptr228drop_in_place$LT$alloc..boxed..Box$LT$dyn$u20$core..ops..function..FnMut$LT$$LP$$RP$$GT$$u2b$Output$u20$$u3d$$u20$core..result..Result$LT$$LP$$RP$$C$std..io..error..Error$GT$$u2b$core..marker..Send$u2b$core..marker..Sync$GT$$GT$17he0d8d20a526f5c78E"({ {}*, [3 x i64]* }* %_11) #10
  br label %bb9

bb2:                                              ; preds = %bb4, %bb9
  %14 = bitcast { i8*, i32 }* %0 to i8**
  %15 = load i8*, i8** %14, align 8
  %16 = getelementptr inbounds { i8*, i32 }, { i8*, i32 }* %0, i32 0, i32 1
  %17 = load i32, i32* %16, align 8
  %18 = insertvalue { i8*, i32 } undef, i8* %15, 0
  %19 = insertvalue { i8*, i32 } %18, i32 %17, 1
  resume { i8*, i32 } %19

bb6:                                              ; preds = %bb5, %bb7
  %20 = load i64, i64* %_4, align 8
  %_8 = icmp eq i64 %20, %_1.1
  br i1 %_8, label %bb1, label %bb5

bb5:                                              ; preds = %bb6
  %21 = load i64, i64* %_4, align 8
  %_7 = getelementptr inbounds [0 x { {}*, [3 x i64]* }], [0 x { {}*, [3 x i64]* }]* %_1.0, i64 0, i64 %21
  %22 = load i64, i64* %_4, align 8
  %23 = add i64 %22, 1
  store i64 %23, i64* %_4, align 8
; invoke core::ptr::drop_in_place<alloc::boxed::Box<dyn core::ops::function::FnMut<()>+Output = core::result::Result<(),std::io::error::Error>+core::marker::Send+core::marker::Sync>>
  invoke void @"_ZN4core3ptr228drop_in_place$LT$alloc..boxed..Box$LT$dyn$u20$core..ops..function..FnMut$LT$$LP$$RP$$GT$$u2b$Output$u20$$u3d$$u20$core..result..Result$LT$$LP$$RP$$C$std..io..error..Error$GT$$u2b$core..marker..Send$u2b$core..marker..Sync$GT$$GT$17he0d8d20a526f5c78E"({ {}*, [3 x i64]* }* %_7)
          to label %bb6 unwind label %cleanup1

bb4:                                              ; preds = %bb3, %cleanup1
  %24 = load i64, i64* %_4, align 8
  %_6 = icmp eq i64 %24, %_1.1
  br i1 %_6, label %bb2, label %bb3

cleanup1:                                         ; preds = %bb5
  %25 = landingpad { i8*, i32 }
          cleanup
  %26 = extractvalue { i8*, i32 } %25, 0
  %27 = extractvalue { i8*, i32 } %25, 1
  %28 = getelementptr inbounds { i8*, i32 }, { i8*, i32 }* %0, i32 0, i32 0
  store i8* %26, i8** %28, align 8
  %29 = getelementptr inbounds { i8*, i32 }, { i8*, i32 }* %0, i32 0, i32 1
  store i32 %27, i32* %29, align 8
  br label %bb4

bb3:                                              ; preds = %bb4
  %30 = load i64, i64* %_4, align 8
  %_5 = getelementptr inbounds [0 x { {}*, [3 x i64]* }], [0 x { {}*, [3 x i64]* }]* %_1.0, i64 0, i64 %30
  %31 = load i64, i64* %_4, align 8
  %32 = add i64 %31, 1
  store i64 %32, i64* %_4, align 8
; call core::ptr::drop_in_place<alloc::boxed::Box<dyn core::ops::function::FnMut<()>+Output = core::result::Result<(),std::io::error::Error>+core::marker::Send+core::marker::Sync>>
  call void @"_ZN4core3ptr228drop_in_place$LT$alloc..boxed..Box$LT$dyn$u20$core..ops..function..FnMut$LT$$LP$$RP$$GT$$u2b$Output$u20$$u3d$$u20$core..result..Result$LT$$LP$$RP$$C$std..io..error..Error$GT$$u2b$core..marker..Send$u2b$core..marker..Sync$GT$$GT$17he0d8d20a526f5c78E"({ {}*, [3 x i64]* }* %_5) #10
  br label %bb4
}

; core::ptr::slice_from_raw_parts_mut
; Function Attrs: inlinehint nonlazybind uwtable
define internal { [0 x { {}*, [3 x i64]* }]*, i64 } @_ZN4core3ptr24slice_from_raw_parts_mut17h36e8c05943e8543dE({ {}*, [3 x i64]* }* %data, i64 %len) unnamed_addr #1 {
start:
  %0 = bitcast { {}*, [3 x i64]* }* %data to {}*
  br label %bb1

bb1:                                              ; preds = %start
; call core::ptr::metadata::from_raw_parts_mut
  %1 = call { [0 x { {}*, [3 x i64]* }]*, i64 } @_ZN4core3ptr8metadata18from_raw_parts_mut17h9486a661561172b8E({}* %0, i64 %len)
  %2 = extractvalue { [0 x { {}*, [3 x i64]* }]*, i64 } %1, 0
  %3 = extractvalue { [0 x { {}*, [3 x i64]* }]*, i64 } %1, 1
  br label %bb2

bb2:                                              ; preds = %bb1
  %4 = insertvalue { [0 x { {}*, [3 x i64]* }]*, i64 } undef, [0 x { {}*, [3 x i64]* }]* %2, 0
  %5 = insertvalue { [0 x { {}*, [3 x i64]* }]*, i64 } %4, i64 %3, 1
  ret { [0 x { {}*, [3 x i64]* }]*, i64 } %5
}

; core::ptr::slice_from_raw_parts_mut
; Function Attrs: inlinehint nonlazybind uwtable
define internal { [0 x i8*]*, i64 } @_ZN4core3ptr24slice_from_raw_parts_mut17h4f19338e6b07185fE(i8** %data, i64 %len) unnamed_addr #1 {
start:
  %0 = bitcast i8** %data to {}*
  br label %bb1

bb1:                                              ; preds = %start
; call core::ptr::metadata::from_raw_parts_mut
  %1 = call { [0 x i8*]*, i64 } @_ZN4core3ptr8metadata18from_raw_parts_mut17h3af66d3b148c3185E({}* %0, i64 %len)
  %2 = extractvalue { [0 x i8*]*, i64 } %1, 0
  %3 = extractvalue { [0 x i8*]*, i64 } %1, 1
  br label %bb2

bb2:                                              ; preds = %bb1
  %4 = insertvalue { [0 x i8*]*, i64 } undef, [0 x i8*]* %2, 0
  %5 = insertvalue { [0 x i8*]*, i64 } %4, i64 %3, 1
  ret { [0 x i8*]*, i64 } %5
}

; core::ptr::slice_from_raw_parts_mut
; Function Attrs: inlinehint nonlazybind uwtable
define internal { [0 x { i8*, i64 }]*, i64 } @_ZN4core3ptr24slice_from_raw_parts_mut17h5a1f4397bbaf4eabE({ i8*, i64 }* %data, i64 %len) unnamed_addr #1 {
start:
  %0 = bitcast { i8*, i64 }* %data to {}*
  br label %bb1

bb1:                                              ; preds = %start
; call core::ptr::metadata::from_raw_parts_mut
  %1 = call { [0 x { i8*, i64 }]*, i64 } @_ZN4core3ptr8metadata18from_raw_parts_mut17hdf022a5467e17c10E({}* %0, i64 %len)
  %2 = extractvalue { [0 x { i8*, i64 }]*, i64 } %1, 0
  %3 = extractvalue { [0 x { i8*, i64 }]*, i64 } %1, 1
  br label %bb2

bb2:                                              ; preds = %bb1
  %4 = insertvalue { [0 x { i8*, i64 }]*, i64 } undef, [0 x { i8*, i64 }]* %2, 0
  %5 = insertvalue { [0 x { i8*, i64 }]*, i64 } %4, i64 %3, 1
  ret { [0 x { i8*, i64 }]*, i64 } %5
}

; core::ptr::slice_from_raw_parts_mut
; Function Attrs: inlinehint nonlazybind uwtable
define internal { [0 x i8]*, i64 } @_ZN4core3ptr24slice_from_raw_parts_mut17hd630885702ab707dE(i8* %data, i64 %len) unnamed_addr #1 {
start:
  %0 = bitcast i8* %data to {}*
  br label %bb1

bb1:                                              ; preds = %start
; call core::ptr::metadata::from_raw_parts_mut
  %1 = call { [0 x i8]*, i64 } @_ZN4core3ptr8metadata18from_raw_parts_mut17h58ba3df96fb87609E({}* %0, i64 %len)
  %2 = extractvalue { [0 x i8]*, i64 } %1, 0
  %3 = extractvalue { [0 x i8]*, i64 } %1, 1
  br label %bb2

bb2:                                              ; preds = %bb1
  %4 = insertvalue { [0 x i8]*, i64 } undef, [0 x i8]* %2, 0
  %5 = insertvalue { [0 x i8]*, i64 } %4, i64 %3, 1
  ret { [0 x i8]*, i64 } %5
}

; core::ptr::drop_in_place<alloc::vec::Vec<alloc::boxed::Box<dyn core::ops::function::FnMut<()>+Output = core::result::Result<(),std::io::error::Error>+core::marker::Send+core::marker::Sync>>>
; Function Attrs: nonlazybind uwtable
define internal void @"_ZN4core3ptr251drop_in_place$LT$alloc..vec..Vec$LT$alloc..boxed..Box$LT$dyn$u20$core..ops..function..FnMut$LT$$LP$$RP$$GT$$u2b$Output$u20$$u3d$$u20$core..result..Result$LT$$LP$$RP$$C$std..io..error..Error$GT$$u2b$core..marker..Send$u2b$core..marker..Sync$GT$$GT$$GT$17h025cbd06b4400660E"(%"alloc::vec::Vec<alloc::boxed::Box<dyn core::ops::function::FnMut() -> core::result::Result<(), std::io::error::Error> + core::marker::Send + core::marker::Sync>>"* %_1) unnamed_addr #0 personality i32 (i32, i32, i64, %"unwind::libunwind::_Unwind_Exception"*, %"unwind::libunwind::_Unwind_Context"*)* @rust_eh_personality {
start:
  %0 = alloca { i8*, i32 }, align 8
; invoke <alloc::vec::Vec<T,A> as core::ops::drop::Drop>::drop
  invoke void @"_ZN70_$LT$alloc..vec..Vec$LT$T$C$A$GT$$u20$as$u20$core..ops..drop..Drop$GT$4drop17h611d870ceededbcfE"(%"alloc::vec::Vec<alloc::boxed::Box<dyn core::ops::function::FnMut() -> core::result::Result<(), std::io::error::Error> + core::marker::Send + core::marker::Sync>>"* align 8 dereferenceable(24) %_1)
          to label %bb4 unwind label %cleanup

bb4:                                              ; preds = %start
  %1 = bitcast %"alloc::vec::Vec<alloc::boxed::Box<dyn core::ops::function::FnMut() -> core::result::Result<(), std::io::error::Error> + core::marker::Send + core::marker::Sync>>"* %_1 to { i64*, i64 }*
; call core::ptr::drop_in_place<alloc::raw_vec::RawVec<alloc::boxed::Box<dyn core::ops::function::FnMut<()>+Output = core::result::Result<(),std::io::error::Error>+core::marker::Send+core::marker::Sync>>>
  call void @"_ZN4core3ptr258drop_in_place$LT$alloc..raw_vec..RawVec$LT$alloc..boxed..Box$LT$dyn$u20$core..ops..function..FnMut$LT$$LP$$RP$$GT$$u2b$Output$u20$$u3d$$u20$core..result..Result$LT$$LP$$RP$$C$std..io..error..Error$GT$$u2b$core..marker..Send$u2b$core..marker..Sync$GT$$GT$$GT$17h6f903428cf938be1E"({ i64*, i64 }* %1)
  br label %bb2

bb3:                                              ; preds = %cleanup
  %2 = bitcast %"alloc::vec::Vec<alloc::boxed::Box<dyn core::ops::function::FnMut() -> core::result::Result<(), std::io::error::Error> + core::marker::Send + core::marker::Sync>>"* %_1 to { i64*, i64 }*
; call core::ptr::drop_in_place<alloc::raw_vec::RawVec<alloc::boxed::Box<dyn core::ops::function::FnMut<()>+Output = core::result::Result<(),std::io::error::Error>+core::marker::Send+core::marker::Sync>>>
  call void @"_ZN4core3ptr258drop_in_place$LT$alloc..raw_vec..RawVec$LT$alloc..boxed..Box$LT$dyn$u20$core..ops..function..FnMut$LT$$LP$$RP$$GT$$u2b$Output$u20$$u3d$$u20$core..result..Result$LT$$LP$$RP$$C$std..io..error..Error$GT$$u2b$core..marker..Send$u2b$core..marker..Sync$GT$$GT$$GT$17h6f903428cf938be1E"({ i64*, i64 }* %2) #10
  br label %bb1

cleanup:                                          ; preds = %start
  %3 = landingpad { i8*, i32 }
          cleanup
  %4 = extractvalue { i8*, i32 } %3, 0
  %5 = extractvalue { i8*, i32 } %3, 1
  %6 = getelementptr inbounds { i8*, i32 }, { i8*, i32 }* %0, i32 0, i32 0
  store i8* %4, i8** %6, align 8
  %7 = getelementptr inbounds { i8*, i32 }, { i8*, i32 }* %0, i32 0, i32 1
  store i32 %5, i32* %7, align 8
  br label %bb3

bb1:                                              ; preds = %bb3
  %8 = bitcast { i8*, i32 }* %0 to i8**
  %9 = load i8*, i8** %8, align 8
  %10 = getelementptr inbounds { i8*, i32 }, { i8*, i32 }* %0, i32 0, i32 1
  %11 = load i32, i32* %10, align 8
  %12 = insertvalue { i8*, i32 } undef, i8* %9, 0
  %13 = insertvalue { i8*, i32 } %12, i32 %11, 1
  resume { i8*, i32 } %13

bb2:                                              ; preds = %bb4
  ret void
}

; core::ptr::drop_in_place<alloc::raw_vec::RawVec<alloc::boxed::Box<dyn core::ops::function::FnMut<()>+Output = core::result::Result<(),std::io::error::Error>+core::marker::Send+core::marker::Sync>>>
; Function Attrs: nonlazybind uwtable
define internal void @"_ZN4core3ptr258drop_in_place$LT$alloc..raw_vec..RawVec$LT$alloc..boxed..Box$LT$dyn$u20$core..ops..function..FnMut$LT$$LP$$RP$$GT$$u2b$Output$u20$$u3d$$u20$core..result..Result$LT$$LP$$RP$$C$std..io..error..Error$GT$$u2b$core..marker..Send$u2b$core..marker..Sync$GT$$GT$$GT$17h6f903428cf938be1E"({ i64*, i64 }* %_1) unnamed_addr #0 {
start:
; call <alloc::raw_vec::RawVec<T,A> as core::ops::drop::Drop>::drop
  call void @"_ZN77_$LT$alloc..raw_vec..RawVec$LT$T$C$A$GT$$u20$as$u20$core..ops..drop..Drop$GT$4drop17he33d13827f24ac21E"({ i64*, i64 }* align 8 dereferenceable(16) %_1)
  br label %bb1

bb1:                                              ; preds = %start
  ret void
}

; core::ptr::drop_in_place<std::io::error::Repr>
; Function Attrs: nonlazybind uwtable
define internal void @"_ZN4core3ptr41drop_in_place$LT$std..io..error..Repr$GT$17hdf46172f956cf8a2E"(%"std::io::error::Repr"* %_1) unnamed_addr #0 {
start:
  %0 = bitcast %"std::io::error::Repr"* %_1 to i8*
  %1 = load i8, i8* %0, align 8, !range !11
  %_2 = zext i8 %1 to i64
  switch i64 %_2, label %bb2 [
    i64 0, label %bb1
    i64 1, label %bb1
    i64 2, label %bb1
  ]

bb2:                                              ; preds = %start
  %2 = bitcast %"std::io::error::Repr"* %_1 to %"std::io::error::Repr::Custom"*
  %3 = getelementptr inbounds %"std::io::error::Repr::Custom", %"std::io::error::Repr::Custom"* %2, i32 0, i32 1
; call core::ptr::drop_in_place<alloc::boxed::Box<std::io::error::Custom>>
  call void @"_ZN4core3ptr68drop_in_place$LT$alloc..boxed..Box$LT$std..io..error..Custom$GT$$GT$17haf2c6d6e424dad22E"(%"std::io::error::Custom"** %3)
  br label %bb1

bb1:                                              ; preds = %bb2, %start, %start, %start
  ret void
}

; core::ptr::drop_in_place<alloc::string::String>
; Function Attrs: nonlazybind uwtable
define internal void @"_ZN4core3ptr42drop_in_place$LT$alloc..string..String$GT$17head2a4d4be799173E"(%"alloc::string::String"* %_1) unnamed_addr #0 {
start:
  %0 = bitcast %"alloc::string::String"* %_1 to %"alloc::vec::Vec<u8>"*
; call core::ptr::drop_in_place<alloc::vec::Vec<u8>>
  call void @"_ZN4core3ptr46drop_in_place$LT$alloc..vec..Vec$LT$u8$GT$$GT$17h5031b5949765bc15E"(%"alloc::vec::Vec<u8>"* %0)
  br label %bb1

bb1:                                              ; preds = %start
  ret void
}

; core::ptr::drop_in_place<std::io::error::Error>
; Function Attrs: nonlazybind uwtable
define internal void @"_ZN4core3ptr42drop_in_place$LT$std..io..error..Error$GT$17h69c1f2da8cb094e7E"(%"std::io::error::Error"* %_1) unnamed_addr #0 {
start:
  %0 = bitcast %"std::io::error::Error"* %_1 to %"std::io::error::Repr"*
; call core::ptr::drop_in_place<std::io::error::Repr>
  call void @"_ZN4core3ptr41drop_in_place$LT$std..io..error..Repr$GT$17hdf46172f956cf8a2E"(%"std::io::error::Repr"* %0)
  br label %bb1

bb1:                                              ; preds = %start
  ret void
}

; core::ptr::drop_in_place<std::process::Command>
; Function Attrs: nonlazybind uwtable
define internal void @"_ZN4core3ptr42drop_in_place$LT$std..process..Command$GT$17h67437dcc678cfeceE"(%"std::process::Command"* %_1) unnamed_addr #0 {
start:
  %0 = bitcast %"std::process::Command"* %_1 to %"std::sys::unix::process::process_common::Command"*
; call core::ptr::drop_in_place<std::sys::unix::process::process_common::Command>
  call void @"_ZN4core3ptr69drop_in_place$LT$std..sys..unix..process..process_common..Command$GT$17hbf0ee7a0981ac07bE"(%"std::sys::unix::process::process_common::Command"* %0)
  br label %bb1

bb1:                                              ; preds = %start
  ret void
}

; core::ptr::drop_in_place<std::io::error::Custom>
; Function Attrs: nonlazybind uwtable
define internal void @"_ZN4core3ptr43drop_in_place$LT$std..io..error..Custom$GT$17he561857fa79ee4ceE"(%"std::io::error::Custom"* %_1) unnamed_addr #0 {
start:
  %0 = bitcast %"std::io::error::Custom"* %_1 to { {}*, [3 x i64]* }*
; call core::ptr::drop_in_place<alloc::boxed::Box<dyn std::error::Error+core::marker::Send+core::marker::Sync>>
  call void @"_ZN4core3ptr117drop_in_place$LT$alloc..boxed..Box$LT$dyn$u20$std..error..Error$u2b$core..marker..Send$u2b$core..marker..Sync$GT$$GT$17h44dcf3e2aec9383bE"({ {}*, [3 x i64]* }* %0)
  br label %bb1

bb1:                                              ; preds = %start
  ret void
}

; core::ptr::drop_in_place<std::ffi::c_str::CString>
; Function Attrs: nonlazybind uwtable
define internal void @"_ZN4core3ptr45drop_in_place$LT$std..ffi..c_str..CString$GT$17h508e2a5367e0546cE"({ i8*, i64 }* %_1) unnamed_addr #0 personality i32 (i32, i32, i64, %"unwind::libunwind::_Unwind_Exception"*, %"unwind::libunwind::_Unwind_Context"*)* @rust_eh_personality {
start:
  %0 = alloca { i8*, i32 }, align 8
; invoke <std::ffi::c_str::CString as core::ops::drop::Drop>::drop
  invoke void @"_ZN66_$LT$std..ffi..c_str..CString$u20$as$u20$core..ops..drop..Drop$GT$4drop17h7b4e6bbe2dc2d1aaE"({ i8*, i64 }* align 8 dereferenceable(16) %_1)
          to label %bb4 unwind label %cleanup

bb4:                                              ; preds = %start
  %1 = bitcast { i8*, i64 }* %_1 to { [0 x i8]*, i64 }*
; call core::ptr::drop_in_place<alloc::boxed::Box<[u8]>>
  call void @"_ZN4core3ptr58drop_in_place$LT$alloc..boxed..Box$LT$$u5b$u8$u5d$$GT$$GT$17h165b7bc4fe9bfbe2E"({ [0 x i8]*, i64 }* %1)
  br label %bb2

bb3:                                              ; preds = %cleanup
  %2 = bitcast { i8*, i64 }* %_1 to { [0 x i8]*, i64 }*
; call core::ptr::drop_in_place<alloc::boxed::Box<[u8]>>
  call void @"_ZN4core3ptr58drop_in_place$LT$alloc..boxed..Box$LT$$u5b$u8$u5d$$GT$$GT$17h165b7bc4fe9bfbe2E"({ [0 x i8]*, i64 }* %2) #10
  br label %bb1

cleanup:                                          ; preds = %start
  %3 = landingpad { i8*, i32 }
          cleanup
  %4 = extractvalue { i8*, i32 } %3, 0
  %5 = extractvalue { i8*, i32 } %3, 1
  %6 = getelementptr inbounds { i8*, i32 }, { i8*, i32 }* %0, i32 0, i32 0
  store i8* %4, i8** %6, align 8
  %7 = getelementptr inbounds { i8*, i32 }, { i8*, i32 }* %0, i32 0, i32 1
  store i32 %5, i32* %7, align 8
  br label %bb3

bb1:                                              ; preds = %bb3
  %8 = bitcast { i8*, i32 }* %0 to i8**
  %9 = load i8*, i8** %8, align 8
  %10 = getelementptr inbounds { i8*, i32 }, { i8*, i32 }* %0, i32 0, i32 1
  %11 = load i32, i32* %10, align 8
  %12 = insertvalue { i8*, i32 } undef, i8* %9, 0
  %13 = insertvalue { i8*, i32 } %12, i32 %11, 1
  resume { i8*, i32 } %13

bb2:                                              ; preds = %bb4
  ret void
}

; core::ptr::drop_in_place<alloc::vec::Vec<u8>>
; Function Attrs: nonlazybind uwtable
define internal void @"_ZN4core3ptr46drop_in_place$LT$alloc..vec..Vec$LT$u8$GT$$GT$17h5031b5949765bc15E"(%"alloc::vec::Vec<u8>"* %_1) unnamed_addr #0 personality i32 (i32, i32, i64, %"unwind::libunwind::_Unwind_Exception"*, %"unwind::libunwind::_Unwind_Context"*)* @rust_eh_personality {
start:
  %0 = alloca { i8*, i32 }, align 8
; invoke <alloc::vec::Vec<T,A> as core::ops::drop::Drop>::drop
  invoke void @"_ZN70_$LT$alloc..vec..Vec$LT$T$C$A$GT$$u20$as$u20$core..ops..drop..Drop$GT$4drop17hd0ab2afc1333a572E"(%"alloc::vec::Vec<u8>"* align 8 dereferenceable(24) %_1)
          to label %bb4 unwind label %cleanup

bb4:                                              ; preds = %start
  %1 = bitcast %"alloc::vec::Vec<u8>"* %_1 to { i8*, i64 }*
; call core::ptr::drop_in_place<alloc::raw_vec::RawVec<u8>>
  call void @"_ZN4core3ptr53drop_in_place$LT$alloc..raw_vec..RawVec$LT$u8$GT$$GT$17h2d700bd66e09f40bE"({ i8*, i64 }* %1)
  br label %bb2

bb3:                                              ; preds = %cleanup
  %2 = bitcast %"alloc::vec::Vec<u8>"* %_1 to { i8*, i64 }*
; call core::ptr::drop_in_place<alloc::raw_vec::RawVec<u8>>
  call void @"_ZN4core3ptr53drop_in_place$LT$alloc..raw_vec..RawVec$LT$u8$GT$$GT$17h2d700bd66e09f40bE"({ i8*, i64 }* %2) #10
  br label %bb1

cleanup:                                          ; preds = %start
  %3 = landingpad { i8*, i32 }
          cleanup
  %4 = extractvalue { i8*, i32 } %3, 0
  %5 = extractvalue { i8*, i32 } %3, 1
  %6 = getelementptr inbounds { i8*, i32 }, { i8*, i32 }* %0, i32 0, i32 0
  store i8* %4, i8** %6, align 8
  %7 = getelementptr inbounds { i8*, i32 }, { i8*, i32 }* %0, i32 0, i32 1
  store i32 %5, i32* %7, align 8
  br label %bb3

bb1:                                              ; preds = %bb3
  %8 = bitcast { i8*, i32 }* %0 to i8**
  %9 = load i8*, i8** %8, align 8
  %10 = getelementptr inbounds { i8*, i32 }, { i8*, i32 }* %0, i32 0, i32 1
  %11 = load i32, i32* %10, align 8
  %12 = insertvalue { i8*, i32 } undef, i8* %9, 0
  %13 = insertvalue { i8*, i32 } %12, i32 %11, 1
  resume { i8*, i32 } %13

bb2:                                              ; preds = %bb4
  ret void
}

; core::ptr::drop_in_place<std::ffi::os_str::OsString>
; Function Attrs: nonlazybind uwtable
define internal void @"_ZN4core3ptr47drop_in_place$LT$std..ffi..os_str..OsString$GT$17h5e92125e2d6cf3c0E"(%"std::ffi::os_str::OsString"* %_1) unnamed_addr #0 {
start:
  %0 = bitcast %"std::ffi::os_str::OsString"* %_1 to %"std::sys::unix::os_str::Buf"*
; call core::ptr::drop_in_place<std::sys::unix::os_str::Buf>
  call void @"_ZN4core3ptr48drop_in_place$LT$std..sys..unix..os_str..Buf$GT$17hee4d7a8d927454abE"(%"std::sys::unix::os_str::Buf"* %0)
  br label %bb1

bb1:                                              ; preds = %start
  ret void
}

; core::ptr::drop_in_place<std::os::fd::owned::OwnedFd>
; Function Attrs: nonlazybind uwtable
define internal void @"_ZN4core3ptr48drop_in_place$LT$std..os..fd..owned..OwnedFd$GT$17hf87fd09a05e38cdbE"(i32* %_1) unnamed_addr #0 {
start:
; call <std::os::fd::owned::OwnedFd as core::ops::drop::Drop>::drop
  call void @"_ZN69_$LT$std..os..fd..owned..OwnedFd$u20$as$u20$core..ops..drop..Drop$GT$4drop17hb781a99c7e96c762E"(i32* align 4 dereferenceable(4) %_1)
  br label %bb1

bb1:                                              ; preds = %start
  ret void
}

; core::ptr::drop_in_place<std::sys::unix::os_str::Buf>
; Function Attrs: nonlazybind uwtable
define internal void @"_ZN4core3ptr48drop_in_place$LT$std..sys..unix..os_str..Buf$GT$17hee4d7a8d927454abE"(%"std::sys::unix::os_str::Buf"* %_1) unnamed_addr #0 {
start:
  %0 = bitcast %"std::sys::unix::os_str::Buf"* %_1 to %"alloc::vec::Vec<u8>"*
; call core::ptr::drop_in_place<alloc::vec::Vec<u8>>
  call void @"_ZN4core3ptr46drop_in_place$LT$alloc..vec..Vec$LT$u8$GT$$GT$17h5031b5949765bc15E"(%"alloc::vec::Vec<u8>"* %0)
  br label %bb1

bb1:                                              ; preds = %start
  ret void
}

; core::ptr::drop_in_place<std::sys::unix::fd::FileDesc>
; Function Attrs: nonlazybind uwtable
define internal void @"_ZN4core3ptr49drop_in_place$LT$std..sys..unix..fd..FileDesc$GT$17haa28ccb5ac88c82bE"(i32* %_1) unnamed_addr #0 {
start:
; call core::ptr::drop_in_place<std::os::fd::owned::OwnedFd>
  call void @"_ZN4core3ptr48drop_in_place$LT$std..os..fd..owned..OwnedFd$GT$17hf87fd09a05e38cdbE"(i32* %_1)
  br label %bb1

bb1:                                              ; preds = %start
  ret void
}

; core::ptr::read
; Function Attrs: inlinehint nonlazybind uwtable
define internal nonnull i64* @_ZN4core3ptr4read17h07a23053da925799E(i64** %src) unnamed_addr #1 {
start:
  %0 = alloca i8*, align 8
  %tmp = alloca i8*, align 8
  %1 = bitcast i8** %0 to {}*
  %2 = load i8*, i8** %0, align 8
  store i8* %2, i8** %tmp, align 8
  br label %bb1

bb1:                                              ; preds = %start
  %3 = bitcast i8** %tmp to i64**
  br label %bb2

bb2:                                              ; preds = %bb1
  %4 = bitcast i64** %3 to i8*
  %5 = bitcast i64** %src to i8*
  call void @llvm.memcpy.p0i8.p0i8.i64(i8* align 8 %4, i8* align 8 %5, i64 8, i1 false)
  %_6 = load i8*, i8** %tmp, align 8
  %_3.i = bitcast i8* %_6 to i64*
  br label %bb3

bb3:                                              ; preds = %bb2
  ret i64* %_3.i
}

; core::ptr::read
; Function Attrs: inlinehint nonlazybind uwtable
define internal void @_ZN4core3ptr4read17h275ab10500d25c06E(%"alloc::collections::btree::map::BTreeMap<std::ffi::os_str::OsString, core::option::Option<std::ffi::os_str::OsString>>"* noalias nocapture sret(%"alloc::collections::btree::map::BTreeMap<std::ffi::os_str::OsString, core::option::Option<std::ffi::os_str::OsString>>") dereferenceable(24) %0, %"alloc::collections::btree::map::BTreeMap<std::ffi::os_str::OsString, core::option::Option<std::ffi::os_str::OsString>>"* %src) unnamed_addr #1 {
start:
  %_3.i = alloca %"core::mem::manually_drop::ManuallyDrop<alloc::collections::btree::map::BTreeMap<std::ffi::os_str::OsString, core::option::Option<std::ffi::os_str::OsString>>>", align 8
  %_6 = alloca %"core::mem::maybe_uninit::MaybeUninit<alloc::collections::btree::map::BTreeMap<std::ffi::os_str::OsString, core::option::Option<std::ffi::os_str::OsString>>>", align 8
  %tmp = alloca %"core::mem::maybe_uninit::MaybeUninit<alloc::collections::btree::map::BTreeMap<std::ffi::os_str::OsString, core::option::Option<std::ffi::os_str::OsString>>>", align 8
  call void @llvm.experimental.noalias.scope.decl(metadata !12)
  %1 = bitcast %"core::mem::maybe_uninit::MaybeUninit<alloc::collections::btree::map::BTreeMap<std::ffi::os_str::OsString, core::option::Option<std::ffi::os_str::OsString>>>"* %tmp to {}*
  br label %bb1

bb1:                                              ; preds = %start
  %2 = bitcast %"core::mem::maybe_uninit::MaybeUninit<alloc::collections::btree::map::BTreeMap<std::ffi::os_str::OsString, core::option::Option<std::ffi::os_str::OsString>>>"* %tmp to %"alloc::collections::btree::map::BTreeMap<std::ffi::os_str::OsString, core::option::Option<std::ffi::os_str::OsString>>"*
  br label %bb2

bb2:                                              ; preds = %bb1
  %3 = bitcast %"alloc::collections::btree::map::BTreeMap<std::ffi::os_str::OsString, core::option::Option<std::ffi::os_str::OsString>>"* %2 to i8*
  %4 = bitcast %"alloc::collections::btree::map::BTreeMap<std::ffi::os_str::OsString, core::option::Option<std::ffi::os_str::OsString>>"* %src to i8*
  call void @llvm.memcpy.p0i8.p0i8.i64(i8* align 8 %3, i8* align 8 %4, i64 24, i1 false)
  %5 = bitcast %"core::mem::maybe_uninit::MaybeUninit<alloc::collections::btree::map::BTreeMap<std::ffi::os_str::OsString, core::option::Option<std::ffi::os_str::OsString>>>"* %_6 to i8*
  %6 = bitcast %"core::mem::maybe_uninit::MaybeUninit<alloc::collections::btree::map::BTreeMap<std::ffi::os_str::OsString, core::option::Option<std::ffi::os_str::OsString>>>"* %tmp to i8*
  call void @llvm.memcpy.p0i8.p0i8.i64(i8* align 8 %5, i8* align 8 %6, i64 24, i1 false)
  call void @llvm.experimental.noalias.scope.decl(metadata !15)
  call void @llvm.experimental.noalias.scope.decl(metadata !18)
  %7 = bitcast %"core::mem::maybe_uninit::MaybeUninit<alloc::collections::btree::map::BTreeMap<std::ffi::os_str::OsString, core::option::Option<std::ffi::os_str::OsString>>>"* %_6 to %"core::mem::manually_drop::ManuallyDrop<alloc::collections::btree::map::BTreeMap<std::ffi::os_str::OsString, core::option::Option<std::ffi::os_str::OsString>>>"*
  %8 = bitcast %"core::mem::manually_drop::ManuallyDrop<alloc::collections::btree::map::BTreeMap<std::ffi::os_str::OsString, core::option::Option<std::ffi::os_str::OsString>>>"* %_3.i to i8*
  %9 = bitcast %"core::mem::manually_drop::ManuallyDrop<alloc::collections::btree::map::BTreeMap<std::ffi::os_str::OsString, core::option::Option<std::ffi::os_str::OsString>>>"* %7 to i8*
  call void @llvm.memcpy.p0i8.p0i8.i64(i8* align 8 %8, i8* align 8 %9, i64 24, i1 false), !noalias !15
  call void @llvm.experimental.noalias.scope.decl(metadata !20)
  call void @llvm.experimental.noalias.scope.decl(metadata !23)
  %10 = bitcast %"core::mem::manually_drop::ManuallyDrop<alloc::collections::btree::map::BTreeMap<std::ffi::os_str::OsString, core::option::Option<std::ffi::os_str::OsString>>>"* %_3.i to %"alloc::collections::btree::map::BTreeMap<std::ffi::os_str::OsString, core::option::Option<std::ffi::os_str::OsString>>"*
  %11 = bitcast %"alloc::collections::btree::map::BTreeMap<std::ffi::os_str::OsString, core::option::Option<std::ffi::os_str::OsString>>"* %0 to i8*
  %12 = bitcast %"alloc::collections::btree::map::BTreeMap<std::ffi::os_str::OsString, core::option::Option<std::ffi::os_str::OsString>>"* %10 to i8*
  call void @llvm.memcpy.p0i8.p0i8.i64(i8* align 8 %11, i8* align 8 %12, i64 24, i1 false), !alias.scope !25, !noalias !18
  br label %bb3

bb3:                                              ; preds = %bb2
  ret void
}

; core::ptr::read
; Function Attrs: inlinehint nonlazybind uwtable
define internal void @_ZN4core3ptr4read17h444823e36d058d91E(%"alloc::collections::btree::node::Handle<alloc::collections::btree::node::NodeRef<alloc::collections::btree::node::marker::Dying, std::ffi::os_str::OsString, core::option::Option<std::ffi::os_str::OsString>, alloc::collections::btree::node::marker::LeafOrInternal>, alloc::collections::btree::node::marker::KV>"* noalias nocapture sret(%"alloc::collections::btree::node::Handle<alloc::collections::btree::node::NodeRef<alloc::collections::btree::node::marker::Dying, std::ffi::os_str::OsString, core::option::Option<std::ffi::os_str::OsString>, alloc::collections::btree::node::marker::LeafOrInternal>, alloc::collections::btree::node::marker::KV>") dereferenceable(24) %0, %"alloc::collections::btree::node::Handle<alloc::collections::btree::node::NodeRef<alloc::collections::btree::node::marker::Dying, std::ffi::os_str::OsString, core::option::Option<std::ffi::os_str::OsString>, alloc::collections::btree::node::marker::LeafOrInternal>, alloc::collections::btree::node::marker::KV>"* %src) unnamed_addr #1 {
start:
  %_3.i = alloca %"core::mem::manually_drop::ManuallyDrop<alloc::collections::btree::node::Handle<alloc::collections::btree::node::NodeRef<alloc::collections::btree::node::marker::Dying, std::ffi::os_str::OsString, core::option::Option<std::ffi::os_str::OsString>, alloc::collections::btree::node::marker::LeafOrInternal>, alloc::collections::btree::node::marker::KV>>", align 8
  %_6 = alloca %"core::mem::maybe_uninit::MaybeUninit<alloc::collections::btree::node::Handle<alloc::collections::btree::node::NodeRef<alloc::collections::btree::node::marker::Dying, std::ffi::os_str::OsString, core::option::Option<std::ffi::os_str::OsString>, alloc::collections::btree::node::marker::LeafOrInternal>, alloc::collections::btree::node::marker::KV>>", align 8
  %tmp = alloca %"core::mem::maybe_uninit::MaybeUninit<alloc::collections::btree::node::Handle<alloc::collections::btree::node::NodeRef<alloc::collections::btree::node::marker::Dying, std::ffi::os_str::OsString, core::option::Option<std::ffi::os_str::OsString>, alloc::collections::btree::node::marker::LeafOrInternal>, alloc::collections::btree::node::marker::KV>>", align 8
  call void @llvm.experimental.noalias.scope.decl(metadata !26)
  %1 = bitcast %"core::mem::maybe_uninit::MaybeUninit<alloc::collections::btree::node::Handle<alloc::collections::btree::node::NodeRef<alloc::collections::btree::node::marker::Dying, std::ffi::os_str::OsString, core::option::Option<std::ffi::os_str::OsString>, alloc::collections::btree::node::marker::LeafOrInternal>, alloc::collections::btree::node::marker::KV>>"* %tmp to {}*
  br label %bb1

bb1:                                              ; preds = %start
  %2 = bitcast %"core::mem::maybe_uninit::MaybeUninit<alloc::collections::btree::node::Handle<alloc::collections::btree::node::NodeRef<alloc::collections::btree::node::marker::Dying, std::ffi::os_str::OsString, core::option::Option<std::ffi::os_str::OsString>, alloc::collections::btree::node::marker::LeafOrInternal>, alloc::collections::btree::node::marker::KV>>"* %tmp to %"alloc::collections::btree::node::Handle<alloc::collections::btree::node::NodeRef<alloc::collections::btree::node::marker::Dying, std::ffi::os_str::OsString, core::option::Option<std::ffi::os_str::OsString>, alloc::collections::btree::node::marker::LeafOrInternal>, alloc::collections::btree::node::marker::KV>"*
  br label %bb2

bb2:                                              ; preds = %bb1
  %3 = bitcast %"alloc::collections::btree::node::Handle<alloc::collections::btree::node::NodeRef<alloc::collections::btree::node::marker::Dying, std::ffi::os_str::OsString, core::option::Option<std::ffi::os_str::OsString>, alloc::collections::btree::node::marker::LeafOrInternal>, alloc::collections::btree::node::marker::KV>"* %2 to i8*
  %4 = bitcast %"alloc::collections::btree::node::Handle<alloc::collections::btree::node::NodeRef<alloc::collections::btree::node::marker::Dying, std::ffi::os_str::OsString, core::option::Option<std::ffi::os_str::OsString>, alloc::collections::btree::node::marker::LeafOrInternal>, alloc::collections::btree::node::marker::KV>"* %src to i8*
  call void @llvm.memcpy.p0i8.p0i8.i64(i8* align 8 %3, i8* align 8 %4, i64 24, i1 false)
  %5 = bitcast %"core::mem::maybe_uninit::MaybeUninit<alloc::collections::btree::node::Handle<alloc::collections::btree::node::NodeRef<alloc::collections::btree::node::marker::Dying, std::ffi::os_str::OsString, core::option::Option<std::ffi::os_str::OsString>, alloc::collections::btree::node::marker::LeafOrInternal>, alloc::collections::btree::node::marker::KV>>"* %_6 to i8*
  %6 = bitcast %"core::mem::maybe_uninit::MaybeUninit<alloc::collections::btree::node::Handle<alloc::collections::btree::node::NodeRef<alloc::collections::btree::node::marker::Dying, std::ffi::os_str::OsString, core::option::Option<std::ffi::os_str::OsString>, alloc::collections::btree::node::marker::LeafOrInternal>, alloc::collections::btree::node::marker::KV>>"* %tmp to i8*
  call void @llvm.memcpy.p0i8.p0i8.i64(i8* align 8 %5, i8* align 8 %6, i64 24, i1 false)
  call void @llvm.experimental.noalias.scope.decl(metadata !29)
  call void @llvm.experimental.noalias.scope.decl(metadata !32)
  %7 = bitcast %"core::mem::maybe_uninit::MaybeUninit<alloc::collections::btree::node::Handle<alloc::collections::btree::node::NodeRef<alloc::collections::btree::node::marker::Dying, std::ffi::os_str::OsString, core::option::Option<std::ffi::os_str::OsString>, alloc::collections::btree::node::marker::LeafOrInternal>, alloc::collections::btree::node::marker::KV>>"* %_6 to %"core::mem::manually_drop::ManuallyDrop<alloc::collections::btree::node::Handle<alloc::collections::btree::node::NodeRef<alloc::collections::btree::node::marker::Dying, std::ffi::os_str::OsString, core::option::Option<std::ffi::os_str::OsString>, alloc::collections::btree::node::marker::LeafOrInternal>, alloc::collections::btree::node::marker::KV>>"*
  %8 = bitcast %"core::mem::manually_drop::ManuallyDrop<alloc::collections::btree::node::Handle<alloc::collections::btree::node::NodeRef<alloc::collections::btree::node::marker::Dying, std::ffi::os_str::OsString, core::option::Option<std::ffi::os_str::OsString>, alloc::collections::btree::node::marker::LeafOrInternal>, alloc::collections::btree::node::marker::KV>>"* %_3.i to i8*
  %9 = bitcast %"core::mem::manually_drop::ManuallyDrop<alloc::collections::btree::node::Handle<alloc::collections::btree::node::NodeRef<alloc::collections::btree::node::marker::Dying, std::ffi::os_str::OsString, core::option::Option<std::ffi::os_str::OsString>, alloc::collections::btree::node::marker::LeafOrInternal>, alloc::collections::btree::node::marker::KV>>"* %7 to i8*
  call void @llvm.memcpy.p0i8.p0i8.i64(i8* align 8 %8, i8* align 8 %9, i64 24, i1 false), !noalias !29
  call void @llvm.experimental.noalias.scope.decl(metadata !34)
  call void @llvm.experimental.noalias.scope.decl(metadata !37)
  %10 = bitcast %"core::mem::manually_drop::ManuallyDrop<alloc::collections::btree::node::Handle<alloc::collections::btree::node::NodeRef<alloc::collections::btree::node::marker::Dying, std::ffi::os_str::OsString, core::option::Option<std::ffi::os_str::OsString>, alloc::collections::btree::node::marker::LeafOrInternal>, alloc::collections::btree::node::marker::KV>>"* %_3.i to %"alloc::collections::btree::node::Handle<alloc::collections::btree::node::NodeRef<alloc::collections::btree::node::marker::Dying, std::ffi::os_str::OsString, core::option::Option<std::ffi::os_str::OsString>, alloc::collections::btree::node::marker::LeafOrInternal>, alloc::collections::btree::node::marker::KV>"*
  %11 = bitcast %"alloc::collections::btree::node::Handle<alloc::collections::btree::node::NodeRef<alloc::collections::btree::node::marker::Dying, std::ffi::os_str::OsString, core::option::Option<std::ffi::os_str::OsString>, alloc::collections::btree::node::marker::LeafOrInternal>, alloc::collections::btree::node::marker::KV>"* %0 to i8*
  %12 = bitcast %"alloc::collections::btree::node::Handle<alloc::collections::btree::node::NodeRef<alloc::collections::btree::node::marker::Dying, std::ffi::os_str::OsString, core::option::Option<std::ffi::os_str::OsString>, alloc::collections::btree::node::marker::LeafOrInternal>, alloc::collections::btree::node::marker::KV>"* %10 to i8*
  call void @llvm.memcpy.p0i8.p0i8.i64(i8* align 8 %11, i8* align 8 %12, i64 24, i1 false), !alias.scope !39, !noalias !32
  br label %bb3

bb3:                                              ; preds = %bb2
  ret void
}

; core::ptr::read
; Function Attrs: inlinehint nonlazybind uwtable
define internal void @_ZN4core3ptr4read17h4a20600aa69da1b5E(%"core::option::Option<alloc::collections::btree::navigate::LazyLeafHandle<alloc::collections::btree::node::marker::Dying, std::ffi::os_str::OsString, core::option::Option<std::ffi::os_str::OsString>>>"* noalias nocapture sret(%"core::option::Option<alloc::collections::btree::navigate::LazyLeafHandle<alloc::collections::btree::node::marker::Dying, std::ffi::os_str::OsString, core::option::Option<std::ffi::os_str::OsString>>>") dereferenceable(32) %0, %"core::option::Option<alloc::collections::btree::navigate::LazyLeafHandle<alloc::collections::btree::node::marker::Dying, std::ffi::os_str::OsString, core::option::Option<std::ffi::os_str::OsString>>>"* %src) unnamed_addr #1 {
start:
  %_3.i = alloca %"core::mem::manually_drop::ManuallyDrop<core::option::Option<alloc::collections::btree::navigate::LazyLeafHandle<alloc::collections::btree::node::marker::Dying, std::ffi::os_str::OsString, core::option::Option<std::ffi::os_str::OsString>>>>", align 8
  %_6 = alloca %"core::mem::maybe_uninit::MaybeUninit<core::option::Option<alloc::collections::btree::navigate::LazyLeafHandle<alloc::collections::btree::node::marker::Dying, std::ffi::os_str::OsString, core::option::Option<std::ffi::os_str::OsString>>>>", align 8
  %tmp = alloca %"core::mem::maybe_uninit::MaybeUninit<core::option::Option<alloc::collections::btree::navigate::LazyLeafHandle<alloc::collections::btree::node::marker::Dying, std::ffi::os_str::OsString, core::option::Option<std::ffi::os_str::OsString>>>>", align 8
  call void @llvm.experimental.noalias.scope.decl(metadata !40)
  %1 = bitcast %"core::mem::maybe_uninit::MaybeUninit<core::option::Option<alloc::collections::btree::navigate::LazyLeafHandle<alloc::collections::btree::node::marker::Dying, std::ffi::os_str::OsString, core::option::Option<std::ffi::os_str::OsString>>>>"* %tmp to {}*
  br label %bb1

bb1:                                              ; preds = %start
  %2 = bitcast %"core::mem::maybe_uninit::MaybeUninit<core::option::Option<alloc::collections::btree::navigate::LazyLeafHandle<alloc::collections::btree::node::marker::Dying, std::ffi::os_str::OsString, core::option::Option<std::ffi::os_str::OsString>>>>"* %tmp to %"core::option::Option<alloc::collections::btree::navigate::LazyLeafHandle<alloc::collections::btree::node::marker::Dying, std::ffi::os_str::OsString, core::option::Option<std::ffi::os_str::OsString>>>"*
  br label %bb2

bb2:                                              ; preds = %bb1
  %3 = bitcast %"core::option::Option<alloc::collections::btree::navigate::LazyLeafHandle<alloc::collections::btree::node::marker::Dying, std::ffi::os_str::OsString, core::option::Option<std::ffi::os_str::OsString>>>"* %2 to i8*
  %4 = bitcast %"core::option::Option<alloc::collections::btree::navigate::LazyLeafHandle<alloc::collections::btree::node::marker::Dying, std::ffi::os_str::OsString, core::option::Option<std::ffi::os_str::OsString>>>"* %src to i8*
  call void @llvm.memcpy.p0i8.p0i8.i64(i8* align 8 %3, i8* align 8 %4, i64 32, i1 false)
  %5 = bitcast %"core::mem::maybe_uninit::MaybeUninit<core::option::Option<alloc::collections::btree::navigate::LazyLeafHandle<alloc::collections::btree::node::marker::Dying, std::ffi::os_str::OsString, core::option::Option<std::ffi::os_str::OsString>>>>"* %_6 to i8*
  %6 = bitcast %"core::mem::maybe_uninit::MaybeUninit<core::option::Option<alloc::collections::btree::navigate::LazyLeafHandle<alloc::collections::btree::node::marker::Dying, std::ffi::os_str::OsString, core::option::Option<std::ffi::os_str::OsString>>>>"* %tmp to i8*
  call void @llvm.memcpy.p0i8.p0i8.i64(i8* align 8 %5, i8* align 8 %6, i64 32, i1 false)
  call void @llvm.experimental.noalias.scope.decl(metadata !43)
  call void @llvm.experimental.noalias.scope.decl(metadata !46)
  %7 = bitcast %"core::mem::maybe_uninit::MaybeUninit<core::option::Option<alloc::collections::btree::navigate::LazyLeafHandle<alloc::collections::btree::node::marker::Dying, std::ffi::os_str::OsString, core::option::Option<std::ffi::os_str::OsString>>>>"* %_6 to %"core::mem::manually_drop::ManuallyDrop<core::option::Option<alloc::collections::btree::navigate::LazyLeafHandle<alloc::collections::btree::node::marker::Dying, std::ffi::os_str::OsString, core::option::Option<std::ffi::os_str::OsString>>>>"*
  %8 = bitcast %"core::mem::manually_drop::ManuallyDrop<core::option::Option<alloc::collections::btree::navigate::LazyLeafHandle<alloc::collections::btree::node::marker::Dying, std::ffi::os_str::OsString, core::option::Option<std::ffi::os_str::OsString>>>>"* %_3.i to i8*
  %9 = bitcast %"core::mem::manually_drop::ManuallyDrop<core::option::Option<alloc::collections::btree::navigate::LazyLeafHandle<alloc::collections::btree::node::marker::Dying, std::ffi::os_str::OsString, core::option::Option<std::ffi::os_str::OsString>>>>"* %7 to i8*
  call void @llvm.memcpy.p0i8.p0i8.i64(i8* align 8 %8, i8* align 8 %9, i64 32, i1 false), !noalias !43
  call void @llvm.experimental.noalias.scope.decl(metadata !48)
  call void @llvm.experimental.noalias.scope.decl(metadata !51)
  %10 = bitcast %"core::mem::manually_drop::ManuallyDrop<core::option::Option<alloc::collections::btree::navigate::LazyLeafHandle<alloc::collections::btree::node::marker::Dying, std::ffi::os_str::OsString, core::option::Option<std::ffi::os_str::OsString>>>>"* %_3.i to %"core::option::Option<alloc::collections::btree::navigate::LazyLeafHandle<alloc::collections::btree::node::marker::Dying, std::ffi::os_str::OsString, core::option::Option<std::ffi::os_str::OsString>>>"*
  %11 = bitcast %"core::option::Option<alloc::collections::btree::navigate::LazyLeafHandle<alloc::collections::btree::node::marker::Dying, std::ffi::os_str::OsString, core::option::Option<std::ffi::os_str::OsString>>>"* %0 to i8*
  %12 = bitcast %"core::option::Option<alloc::collections::btree::navigate::LazyLeafHandle<alloc::collections::btree::node::marker::Dying, std::ffi::os_str::OsString, core::option::Option<std::ffi::os_str::OsString>>>"* %10 to i8*
  call void @llvm.memcpy.p0i8.p0i8.i64(i8* align 8 %11, i8* align 8 %12, i64 32, i1 false), !alias.scope !53, !noalias !46
  br label %bb3

bb3:                                              ; preds = %bb2
  ret void
}

; core::ptr::read
; Function Attrs: inlinehint nonlazybind uwtable
define internal { i64, i64* } @_ZN4core3ptr4read17h8001469bddcea459E({ i64, i64* }* %src) unnamed_addr #1 {
start:
  %0 = alloca { i64, i8* }, align 8
  %tmp = alloca { i64, i8* }, align 8
  %1 = bitcast { i64, i8* }* %0 to {}*
  %2 = getelementptr inbounds { i64, i8* }, { i64, i8* }* %0, i32 0, i32 0
  %3 = load i64, i64* %2, align 8
  %4 = getelementptr inbounds { i64, i8* }, { i64, i8* }* %0, i32 0, i32 1
  %5 = load i8*, i8** %4, align 8
  %6 = insertvalue { i64, i8* } undef, i64 %3, 0
  %7 = insertvalue { i64, i8* } %6, i8* %5, 1
  store { i64, i8* } %7, { i64, i8* }* %tmp, align 8
  br label %bb1

bb1:                                              ; preds = %start
  %8 = bitcast { i64, i8* }* %tmp to { i64, i64* }*
  br label %bb2

bb2:                                              ; preds = %bb1
  %9 = bitcast { i64, i64* }* %8 to i8*
  %10 = bitcast { i64, i64* }* %src to i8*
  call void @llvm.memcpy.p0i8.p0i8.i64(i8* align 8 %9, i8* align 8 %10, i64 16, i1 false)
  %11 = getelementptr inbounds { i64, i8* }, { i64, i8* }* %tmp, i32 0, i32 0
  %_6.0 = load i64, i64* %11, align 8
  %12 = getelementptr inbounds { i64, i8* }, { i64, i8* }* %tmp, i32 0, i32 1
  %_6.1 = load i8*, i8** %12, align 8
  %_3.1.i = bitcast i8* %_6.1 to i64*
  %13 = insertvalue { i64, i64* } undef, i64 %_6.0, 0
  %14 = insertvalue { i64, i64* } %13, i64* %_3.1.i, 1
  %15 = extractvalue { i64, i64* } %14, 0
  %16 = extractvalue { i64, i64* } %14, 1
  %17 = extractvalue { i64, i64* } %14, 0
  %18 = extractvalue { i64, i64* } %14, 1
  br label %bb3

bb3:                                              ; preds = %bb2
  %19 = insertvalue { i64, i64* } undef, i64 %17, 0
  %20 = insertvalue { i64, i64* } %19, i64* %18, 1
  ret { i64, i64* } %20
}

; core::ptr::read
; Function Attrs: inlinehint nonlazybind uwtable
define internal { i64, i64* } @_ZN4core3ptr4read17h987596c3c2e83367E({ i64, i64* }* %src) unnamed_addr #1 {
start:
  %0 = alloca { i64, i8* }, align 8
  %tmp = alloca { i64, i8* }, align 8
  %1 = bitcast { i64, i8* }* %0 to {}*
  %2 = getelementptr inbounds { i64, i8* }, { i64, i8* }* %0, i32 0, i32 0
  %3 = load i64, i64* %2, align 8
  %4 = getelementptr inbounds { i64, i8* }, { i64, i8* }* %0, i32 0, i32 1
  %5 = load i8*, i8** %4, align 8
  %6 = insertvalue { i64, i8* } undef, i64 %3, 0
  %7 = insertvalue { i64, i8* } %6, i8* %5, 1
  store { i64, i8* } %7, { i64, i8* }* %tmp, align 8
  br label %bb1

bb1:                                              ; preds = %start
  %8 = bitcast { i64, i8* }* %tmp to { i64, i64* }*
  br label %bb2

bb2:                                              ; preds = %bb1
  %9 = bitcast { i64, i64* }* %8 to i8*
  %10 = bitcast { i64, i64* }* %src to i8*
  call void @llvm.memcpy.p0i8.p0i8.i64(i8* align 8 %9, i8* align 8 %10, i64 16, i1 false)
  %11 = getelementptr inbounds { i64, i8* }, { i64, i8* }* %tmp, i32 0, i32 0
  %_6.0 = load i64, i64* %11, align 8
  %12 = getelementptr inbounds { i64, i8* }, { i64, i8* }* %tmp, i32 0, i32 1
  %_6.1 = load i8*, i8** %12, align 8
  %_3.1.i = bitcast i8* %_6.1 to i64*
  %13 = insertvalue { i64, i64* } undef, i64 %_6.0, 0
  %14 = insertvalue { i64, i64* } %13, i64* %_3.1.i, 1
  %15 = extractvalue { i64, i64* } %14, 0
  %16 = extractvalue { i64, i64* } %14, 1
  %17 = extractvalue { i64, i64* } %14, 0
  %18 = extractvalue { i64, i64* } %14, 1
  br label %bb3

bb3:                                              ; preds = %bb2
  %19 = insertvalue { i64, i64* } undef, i64 %17, 0
  %20 = insertvalue { i64, i64* } %19, i64* %18, 1
  ret { i64, i64* } %20
}

; core::ptr::read
; Function Attrs: inlinehint nonlazybind uwtable
define internal void @_ZN4core3ptr4read17he24f1e86ca35f018E(%"alloc::collections::btree::node::Handle<alloc::collections::btree::node::NodeRef<alloc::collections::btree::node::marker::Dying, std::ffi::os_str::OsString, core::option::Option<std::ffi::os_str::OsString>, alloc::collections::btree::node::marker::Leaf>, alloc::collections::btree::node::marker::Edge>"* noalias nocapture sret(%"alloc::collections::btree::node::Handle<alloc::collections::btree::node::NodeRef<alloc::collections::btree::node::marker::Dying, std::ffi::os_str::OsString, core::option::Option<std::ffi::os_str::OsString>, alloc::collections::btree::node::marker::Leaf>, alloc::collections::btree::node::marker::Edge>") dereferenceable(24) %0, %"alloc::collections::btree::node::Handle<alloc::collections::btree::node::NodeRef<alloc::collections::btree::node::marker::Dying, std::ffi::os_str::OsString, core::option::Option<std::ffi::os_str::OsString>, alloc::collections::btree::node::marker::Leaf>, alloc::collections::btree::node::marker::Edge>"* %src) unnamed_addr #1 {
start:
  %_3.i = alloca %"core::mem::manually_drop::ManuallyDrop<alloc::collections::btree::node::Handle<alloc::collections::btree::node::NodeRef<alloc::collections::btree::node::marker::Dying, std::ffi::os_str::OsString, core::option::Option<std::ffi::os_str::OsString>, alloc::collections::btree::node::marker::Leaf>, alloc::collections::btree::node::marker::Edge>>", align 8
  %_6 = alloca %"core::mem::maybe_uninit::MaybeUninit<alloc::collections::btree::node::Handle<alloc::collections::btree::node::NodeRef<alloc::collections::btree::node::marker::Dying, std::ffi::os_str::OsString, core::option::Option<std::ffi::os_str::OsString>, alloc::collections::btree::node::marker::Leaf>, alloc::collections::btree::node::marker::Edge>>", align 8
  %tmp = alloca %"core::mem::maybe_uninit::MaybeUninit<alloc::collections::btree::node::Handle<alloc::collections::btree::node::NodeRef<alloc::collections::btree::node::marker::Dying, std::ffi::os_str::OsString, core::option::Option<std::ffi::os_str::OsString>, alloc::collections::btree::node::marker::Leaf>, alloc::collections::btree::node::marker::Edge>>", align 8
  call void @llvm.experimental.noalias.scope.decl(metadata !54)
  %1 = bitcast %"core::mem::maybe_uninit::MaybeUninit<alloc::collections::btree::node::Handle<alloc::collections::btree::node::NodeRef<alloc::collections::btree::node::marker::Dying, std::ffi::os_str::OsString, core::option::Option<std::ffi::os_str::OsString>, alloc::collections::btree::node::marker::Leaf>, alloc::collections::btree::node::marker::Edge>>"* %tmp to {}*
  br label %bb1

bb1:                                              ; preds = %start
  %2 = bitcast %"core::mem::maybe_uninit::MaybeUninit<alloc::collections::btree::node::Handle<alloc::collections::btree::node::NodeRef<alloc::collections::btree::node::marker::Dying, std::ffi::os_str::OsString, core::option::Option<std::ffi::os_str::OsString>, alloc::collections::btree::node::marker::Leaf>, alloc::collections::btree::node::marker::Edge>>"* %tmp to %"alloc::collections::btree::node::Handle<alloc::collections::btree::node::NodeRef<alloc::collections::btree::node::marker::Dying, std::ffi::os_str::OsString, core::option::Option<std::ffi::os_str::OsString>, alloc::collections::btree::node::marker::Leaf>, alloc::collections::btree::node::marker::Edge>"*
  br label %bb2

bb2:                                              ; preds = %bb1
  %3 = bitcast %"alloc::collections::btree::node::Handle<alloc::collections::btree::node::NodeRef<alloc::collections::btree::node::marker::Dying, std::ffi::os_str::OsString, core::option::Option<std::ffi::os_str::OsString>, alloc::collections::btree::node::marker::Leaf>, alloc::collections::btree::node::marker::Edge>"* %2 to i8*
  %4 = bitcast %"alloc::collections::btree::node::Handle<alloc::collections::btree::node::NodeRef<alloc::collections::btree::node::marker::Dying, std::ffi::os_str::OsString, core::option::Option<std::ffi::os_str::OsString>, alloc::collections::btree::node::marker::Leaf>, alloc::collections::btree::node::marker::Edge>"* %src to i8*
  call void @llvm.memcpy.p0i8.p0i8.i64(i8* align 8 %3, i8* align 8 %4, i64 24, i1 false)
  %5 = bitcast %"core::mem::maybe_uninit::MaybeUninit<alloc::collections::btree::node::Handle<alloc::collections::btree::node::NodeRef<alloc::collections::btree::node::marker::Dying, std::ffi::os_str::OsString, core::option::Option<std::ffi::os_str::OsString>, alloc::collections::btree::node::marker::Leaf>, alloc::collections::btree::node::marker::Edge>>"* %_6 to i8*
  %6 = bitcast %"core::mem::maybe_uninit::MaybeUninit<alloc::collections::btree::node::Handle<alloc::collections::btree::node::NodeRef<alloc::collections::btree::node::marker::Dying, std::ffi::os_str::OsString, core::option::Option<std::ffi::os_str::OsString>, alloc::collections::btree::node::marker::Leaf>, alloc::collections::btree::node::marker::Edge>>"* %tmp to i8*
  call void @llvm.memcpy.p0i8.p0i8.i64(i8* align 8 %5, i8* align 8 %6, i64 24, i1 false)
  call void @llvm.experimental.noalias.scope.decl(metadata !57)
  call void @llvm.experimental.noalias.scope.decl(metadata !60)
  %7 = bitcast %"core::mem::maybe_uninit::MaybeUninit<alloc::collections::btree::node::Handle<alloc::collections::btree::node::NodeRef<alloc::collections::btree::node::marker::Dying, std::ffi::os_str::OsString, core::option::Option<std::ffi::os_str::OsString>, alloc::collections::btree::node::marker::Leaf>, alloc::collections::btree::node::marker::Edge>>"* %_6 to %"core::mem::manually_drop::ManuallyDrop<alloc::collections::btree::node::Handle<alloc::collections::btree::node::NodeRef<alloc::collections::btree::node::marker::Dying, std::ffi::os_str::OsString, core::option::Option<std::ffi::os_str::OsString>, alloc::collections::btree::node::marker::Leaf>, alloc::collections::btree::node::marker::Edge>>"*
  %8 = bitcast %"core::mem::manually_drop::ManuallyDrop<alloc::collections::btree::node::Handle<alloc::collections::btree::node::NodeRef<alloc::collections::btree::node::marker::Dying, std::ffi::os_str::OsString, core::option::Option<std::ffi::os_str::OsString>, alloc::collections::btree::node::marker::Leaf>, alloc::collections::btree::node::marker::Edge>>"* %_3.i to i8*
  %9 = bitcast %"core::mem::manually_drop::ManuallyDrop<alloc::collections::btree::node::Handle<alloc::collections::btree::node::NodeRef<alloc::collections::btree::node::marker::Dying, std::ffi::os_str::OsString, core::option::Option<std::ffi::os_str::OsString>, alloc::collections::btree::node::marker::Leaf>, alloc::collections::btree::node::marker::Edge>>"* %7 to i8*
  call void @llvm.memcpy.p0i8.p0i8.i64(i8* align 8 %8, i8* align 8 %9, i64 24, i1 false), !noalias !57
  call void @llvm.experimental.noalias.scope.decl(metadata !62)
  call void @llvm.experimental.noalias.scope.decl(metadata !65)
  %10 = bitcast %"core::mem::manually_drop::ManuallyDrop<alloc::collections::btree::node::Handle<alloc::collections::btree::node::NodeRef<alloc::collections::btree::node::marker::Dying, std::ffi::os_str::OsString, core::option::Option<std::ffi::os_str::OsString>, alloc::collections::btree::node::marker::Leaf>, alloc::collections::btree::node::marker::Edge>>"* %_3.i to %"alloc::collections::btree::node::Handle<alloc::collections::btree::node::NodeRef<alloc::collections::btree::node::marker::Dying, std::ffi::os_str::OsString, core::option::Option<std::ffi::os_str::OsString>, alloc::collections::btree::node::marker::Leaf>, alloc::collections::btree::node::marker::Edge>"*
  %11 = bitcast %"alloc::collections::btree::node::Handle<alloc::collections::btree::node::NodeRef<alloc::collections::btree::node::marker::Dying, std::ffi::os_str::OsString, core::option::Option<std::ffi::os_str::OsString>, alloc::collections::btree::node::marker::Leaf>, alloc::collections::btree::node::marker::Edge>"* %0 to i8*
  %12 = bitcast %"alloc::collections::btree::node::Handle<alloc::collections::btree::node::NodeRef<alloc::collections::btree::node::marker::Dying, std::ffi::os_str::OsString, core::option::Option<std::ffi::os_str::OsString>, alloc::collections::btree::node::marker::Leaf>, alloc::collections::btree::node::marker::Edge>"* %10 to i8*
  call void @llvm.memcpy.p0i8.p0i8.i64(i8* align 8 %11, i8* align 8 %12, i64 24, i1 false), !alias.scope !67, !noalias !60
  br label %bb3

bb3:                                              ; preds = %bb2
  ret void
}

; core::ptr::drop_in_place<alloc::raw_vec::RawVec<u8>>
; Function Attrs: nonlazybind uwtable
define internal void @"_ZN4core3ptr53drop_in_place$LT$alloc..raw_vec..RawVec$LT$u8$GT$$GT$17h2d700bd66e09f40bE"({ i8*, i64 }* %_1) unnamed_addr #0 {
start:
; call <alloc::raw_vec::RawVec<T,A> as core::ops::drop::Drop>::drop
  call void @"_ZN77_$LT$alloc..raw_vec..RawVec$LT$T$C$A$GT$$u20$as$u20$core..ops..drop..Drop$GT$4drop17hce955083615d2d9fE"({ i8*, i64 }* align 8 dereferenceable(16) %_1)
  br label %bb1

bb1:                                              ; preds = %start
  ret void
}

; core::ptr::drop_in_place<[std::ffi::c_str::CString]>
; Function Attrs: nonlazybind uwtable
define internal void @"_ZN4core3ptr55drop_in_place$LT$$u5b$std..ffi..c_str..CString$u5d$$GT$17ha5c36145151522d9E"([0 x { i8*, i64 }]* %_1.0, i64 %_1.1) unnamed_addr #0 personality i32 (i32, i32, i64, %"unwind::libunwind::_Unwind_Exception"*, %"unwind::libunwind::_Unwind_Context"*)* @rust_eh_personality {
start:
  %0 = alloca { i8*, i32 }, align 8
  %_9 = alloca { i8*, i64 }*, align 8
  %_4 = alloca i64, align 8
  br i1 false, label %bb7, label %bb12

bb7:                                              ; preds = %start
  store i64 0, i64* %_4, align 8
  br label %bb6

bb12:                                             ; preds = %start
  %1 = bitcast [0 x { i8*, i64 }]* %_1.0 to { i8*, i64 }*
  store { i8*, i64 }* %1, { i8*, i64 }** %_9, align 8
  %2 = load { i8*, i64 }*, { i8*, i64 }** %_9, align 8
  %_10 = getelementptr inbounds { i8*, i64 }, { i8*, i64 }* %2, i64 %_1.1
  br label %bb11

bb11:                                             ; preds = %bb10, %bb12
  %3 = load { i8*, i64 }*, { i8*, i64 }** %_9, align 8
  %_14 = icmp eq { i8*, i64 }* %3, %_10
  br i1 %_14, label %bb1, label %bb10

bb10:                                             ; preds = %bb11
  %_13 = load { i8*, i64 }*, { i8*, i64 }** %_9, align 8
  %4 = load { i8*, i64 }*, { i8*, i64 }** %_9, align 8
  %5 = getelementptr inbounds { i8*, i64 }, { i8*, i64 }* %4, i64 1
  store { i8*, i64 }* %5, { i8*, i64 }** %_9, align 8
; invoke core::ptr::drop_in_place<std::ffi::c_str::CString>
  invoke void @"_ZN4core3ptr45drop_in_place$LT$std..ffi..c_str..CString$GT$17h508e2a5367e0546cE"({ i8*, i64 }* %_13)
          to label %bb11 unwind label %cleanup

bb1:                                              ; preds = %bb6, %bb11
  ret void

bb9:                                              ; preds = %bb8, %cleanup
  %6 = load { i8*, i64 }*, { i8*, i64 }** %_9, align 8
  %_12 = icmp eq { i8*, i64 }* %6, %_10
  br i1 %_12, label %bb2, label %bb8

cleanup:                                          ; preds = %bb10
  %7 = landingpad { i8*, i32 }
          cleanup
  %8 = extractvalue { i8*, i32 } %7, 0
  %9 = extractvalue { i8*, i32 } %7, 1
  %10 = getelementptr inbounds { i8*, i32 }, { i8*, i32 }* %0, i32 0, i32 0
  store i8* %8, i8** %10, align 8
  %11 = getelementptr inbounds { i8*, i32 }, { i8*, i32 }* %0, i32 0, i32 1
  store i32 %9, i32* %11, align 8
  br label %bb9

bb8:                                              ; preds = %bb9
  %_11 = load { i8*, i64 }*, { i8*, i64 }** %_9, align 8
  %12 = load { i8*, i64 }*, { i8*, i64 }** %_9, align 8
  %13 = getelementptr inbounds { i8*, i64 }, { i8*, i64 }* %12, i64 1
  store { i8*, i64 }* %13, { i8*, i64 }** %_9, align 8
; call core::ptr::drop_in_place<std::ffi::c_str::CString>
  call void @"_ZN4core3ptr45drop_in_place$LT$std..ffi..c_str..CString$GT$17h508e2a5367e0546cE"({ i8*, i64 }* %_11) #10
  br label %bb9

bb2:                                              ; preds = %bb4, %bb9
  %14 = bitcast { i8*, i32 }* %0 to i8**
  %15 = load i8*, i8** %14, align 8
  %16 = getelementptr inbounds { i8*, i32 }, { i8*, i32 }* %0, i32 0, i32 1
  %17 = load i32, i32* %16, align 8
  %18 = insertvalue { i8*, i32 } undef, i8* %15, 0
  %19 = insertvalue { i8*, i32 } %18, i32 %17, 1
  resume { i8*, i32 } %19

bb6:                                              ; preds = %bb5, %bb7
  %20 = load i64, i64* %_4, align 8
  %_8 = icmp eq i64 %20, %_1.1
  br i1 %_8, label %bb1, label %bb5

bb5:                                              ; preds = %bb6
  %21 = load i64, i64* %_4, align 8
  %_7 = getelementptr inbounds [0 x { i8*, i64 }], [0 x { i8*, i64 }]* %_1.0, i64 0, i64 %21
  %22 = load i64, i64* %_4, align 8
  %23 = add i64 %22, 1
  store i64 %23, i64* %_4, align 8
; invoke core::ptr::drop_in_place<std::ffi::c_str::CString>
  invoke void @"_ZN4core3ptr45drop_in_place$LT$std..ffi..c_str..CString$GT$17h508e2a5367e0546cE"({ i8*, i64 }* %_7)
          to label %bb6 unwind label %cleanup1

bb4:                                              ; preds = %bb3, %cleanup1
  %24 = load i64, i64* %_4, align 8
  %_6 = icmp eq i64 %24, %_1.1
  br i1 %_6, label %bb2, label %bb3

cleanup1:                                         ; preds = %bb5
  %25 = landingpad { i8*, i32 }
          cleanup
  %26 = extractvalue { i8*, i32 } %25, 0
  %27 = extractvalue { i8*, i32 } %25, 1
  %28 = getelementptr inbounds { i8*, i32 }, { i8*, i32 }* %0, i32 0, i32 0
  store i8* %26, i8** %28, align 8
  %29 = getelementptr inbounds { i8*, i32 }, { i8*, i32 }* %0, i32 0, i32 1
  store i32 %27, i32* %29, align 8
  br label %bb4

bb3:                                              ; preds = %bb4
  %30 = load i64, i64* %_4, align 8
  %_5 = getelementptr inbounds [0 x { i8*, i64 }], [0 x { i8*, i64 }]* %_1.0, i64 0, i64 %30
  %31 = load i64, i64* %_4, align 8
  %32 = add i64 %31, 1
  store i64 %32, i64* %_4, align 8
; call core::ptr::drop_in_place<std::ffi::c_str::CString>
  call void @"_ZN4core3ptr45drop_in_place$LT$std..ffi..c_str..CString$GT$17h508e2a5367e0546cE"({ i8*, i64 }* %_5) #10
  br label %bb4
}

; core::ptr::drop_in_place<std::sys_common::process::CommandEnv>
; Function Attrs: nonlazybind uwtable
define internal void @"_ZN4core3ptr57drop_in_place$LT$std..sys_common..process..CommandEnv$GT$17h461ade2c434a361cE"(%"std::sys_common::process::CommandEnv"* %_1) unnamed_addr #0 {
start:
  %0 = bitcast %"std::sys_common::process::CommandEnv"* %_1 to %"alloc::collections::btree::map::BTreeMap<std::ffi::os_str::OsString, core::option::Option<std::ffi::os_str::OsString>>"*
; call core::ptr::drop_in_place<alloc::collections::btree::map::BTreeMap<std::ffi::os_str::OsString,core::option::Option<std::ffi::os_str::OsString>>>
  call void @"_ZN4core3ptr152drop_in_place$LT$alloc..collections..btree..map..BTreeMap$LT$std..ffi..os_str..OsString$C$core..option..Option$LT$std..ffi..os_str..OsString$GT$$GT$$GT$17h9d354491d71bda92E"(%"alloc::collections::btree::map::BTreeMap<std::ffi::os_str::OsString, core::option::Option<std::ffi::os_str::OsString>>"* %0)
  br label %bb1

bb1:                                              ; preds = %start
  ret void
}

; core::ptr::drop_in_place<alloc::boxed::Box<[u8]>>
; Function Attrs: nonlazybind uwtable
define internal void @"_ZN4core3ptr58drop_in_place$LT$alloc..boxed..Box$LT$$u5b$u8$u5d$$GT$$GT$17h165b7bc4fe9bfbe2E"({ [0 x i8]*, i64 }* %_1) unnamed_addr #0 personality i32 (i32, i32, i64, %"unwind::libunwind::_Unwind_Exception"*, %"unwind::libunwind::_Unwind_Context"*)* @rust_eh_personality {
start:
  %0 = alloca { i8*, i32 }, align 8
  br label %bb3

bb3:                                              ; preds = %start
  %1 = bitcast { [0 x i8]*, i64 }* %_1 to { i8*, i64 }*
  %2 = getelementptr inbounds { i8*, i64 }, { i8*, i64 }* %1, i32 0, i32 0
  %3 = load i8*, i8** %2, align 8, !nonnull !8
  %4 = getelementptr inbounds { i8*, i64 }, { i8*, i64 }* %1, i32 0, i32 1
  %5 = load i64, i64* %4, align 8
; call alloc::alloc::box_free
  call void @_ZN5alloc5alloc8box_free17h3b063d10e7346068E(i8* nonnull %3, i64 %5)
  br label %bb1

bb4:                                              ; No predecessors!
  %6 = bitcast { [0 x i8]*, i64 }* %_1 to { i8*, i64 }*
  %7 = getelementptr inbounds { i8*, i64 }, { i8*, i64 }* %6, i32 0, i32 0
  %8 = load i8*, i8** %7, align 8, !nonnull !8
  %9 = getelementptr inbounds { i8*, i64 }, { i8*, i64 }* %6, i32 0, i32 1
  %10 = load i64, i64* %9, align 8
; call alloc::alloc::box_free
  call void @_ZN5alloc5alloc8box_free17h3b063d10e7346068E(i8* nonnull %8, i64 %10) #10
  br label %bb2

bb2:                                              ; preds = %bb4
  %11 = bitcast { i8*, i32 }* %0 to i8**
  %12 = load i8*, i8** %11, align 8
  %13 = getelementptr inbounds { i8*, i32 }, { i8*, i32 }* %0, i32 0, i32 1
  %14 = load i32, i32* %13, align 8
  %15 = insertvalue { i8*, i32 } undef, i8* %12, 0
  %16 = insertvalue { i8*, i32 } %15, i32 %14, 1
  resume { i8*, i32 } %16

bb1:                                              ; preds = %bb3
  ret void
}

; core::ptr::drop_in_place<alloc::boxed::Box<[u32]>>
; Function Attrs: nonlazybind uwtable
define internal void @"_ZN4core3ptr59drop_in_place$LT$alloc..boxed..Box$LT$$u5b$u32$u5d$$GT$$GT$17hbed8fe1c3eb0ab55E"({ [0 x i32]*, i64 }* %_1) unnamed_addr #0 personality i32 (i32, i32, i64, %"unwind::libunwind::_Unwind_Exception"*, %"unwind::libunwind::_Unwind_Context"*)* @rust_eh_personality {
start:
  %0 = alloca { i8*, i32 }, align 8
  br label %bb3

bb3:                                              ; preds = %start
  %1 = bitcast { [0 x i32]*, i64 }* %_1 to { i32*, i64 }*
  %2 = getelementptr inbounds { i32*, i64 }, { i32*, i64 }* %1, i32 0, i32 0
  %3 = load i32*, i32** %2, align 8, !nonnull !8
  %4 = getelementptr inbounds { i32*, i64 }, { i32*, i64 }* %1, i32 0, i32 1
  %5 = load i64, i64* %4, align 8
; call alloc::alloc::box_free
  call void @_ZN5alloc5alloc8box_free17haeb91c6883c6de9dE(i32* nonnull %3, i64 %5)
  br label %bb1

bb4:                                              ; No predecessors!
  %6 = bitcast { [0 x i32]*, i64 }* %_1 to { i32*, i64 }*
  %7 = getelementptr inbounds { i32*, i64 }, { i32*, i64 }* %6, i32 0, i32 0
  %8 = load i32*, i32** %7, align 8, !nonnull !8
  %9 = getelementptr inbounds { i32*, i64 }, { i32*, i64 }* %6, i32 0, i32 1
  %10 = load i64, i64* %9, align 8
; call alloc::alloc::box_free
  call void @_ZN5alloc5alloc8box_free17haeb91c6883c6de9dE(i32* nonnull %8, i64 %10) #10
  br label %bb2

bb2:                                              ; preds = %bb4
  %11 = bitcast { i8*, i32 }* %0 to i8**
  %12 = load i8*, i8** %11, align 8
  %13 = getelementptr inbounds { i8*, i32 }, { i8*, i32 }* %0, i32 0, i32 1
  %14 = load i32, i32* %13, align 8
  %15 = insertvalue { i8*, i32 } undef, i8* %12, 0
  %16 = insertvalue { i8*, i32 } %15, i32 %14, 1
  resume { i8*, i32 } %16

bb1:                                              ; preds = %bb3
  ret void
}

; core::ptr::write
; Function Attrs: inlinehint nonlazybind uwtable
define internal void @_ZN4core3ptr5write17h3e07fae0d50072a8E(%"core::option::Option<alloc::collections::btree::navigate::LazyLeafHandle<alloc::collections::btree::node::marker::Dying, std::ffi::os_str::OsString, core::option::Option<std::ffi::os_str::OsString>>>"* %dst, %"core::option::Option<alloc::collections::btree::navigate::LazyLeafHandle<alloc::collections::btree::node::marker::Dying, std::ffi::os_str::OsString, core::option::Option<std::ffi::os_str::OsString>>>"* noalias nocapture dereferenceable(32) %src) unnamed_addr #1 {
start:
  %0 = bitcast %"core::option::Option<alloc::collections::btree::navigate::LazyLeafHandle<alloc::collections::btree::node::marker::Dying, std::ffi::os_str::OsString, core::option::Option<std::ffi::os_str::OsString>>>"* %dst to i8*
  %1 = bitcast %"core::option::Option<alloc::collections::btree::navigate::LazyLeafHandle<alloc::collections::btree::node::marker::Dying, std::ffi::os_str::OsString, core::option::Option<std::ffi::os_str::OsString>>>"* %src to i8*
  call void @llvm.memcpy.p0i8.p0i8.i64(i8* align 8 %0, i8* align 8 %1, i64 32, i1 false)
  ret void
}

; core::ptr::write
; Function Attrs: inlinehint nonlazybind uwtable
define internal void @_ZN4core3ptr5write17h7f9b231ce9681a38E({ i64, i64* }* %dst, i64 %0, i64* %1) unnamed_addr #1 {
start:
  %src = alloca { i64, i64* }, align 8
  %2 = getelementptr inbounds { i64, i64* }, { i64, i64* }* %src, i32 0, i32 0
  store i64 %0, i64* %2, align 8
  %3 = getelementptr inbounds { i64, i64* }, { i64, i64* }* %src, i32 0, i32 1
  store i64* %1, i64** %3, align 8
  %4 = bitcast { i64, i64* }* %dst to i8*
  %5 = bitcast { i64, i64* }* %src to i8*
  call void @llvm.memcpy.p0i8.p0i8.i64(i8* align 8 %4, i8* align 8 %5, i64 16, i1 false)
  ret void
}

; core::ptr::write
; Function Attrs: inlinehint nonlazybind uwtable
define internal void @_ZN4core3ptr5write17h8818aec7509e4a8dE(%"alloc::collections::btree::node::Handle<alloc::collections::btree::node::NodeRef<alloc::collections::btree::node::marker::Dying, std::ffi::os_str::OsString, core::option::Option<std::ffi::os_str::OsString>, alloc::collections::btree::node::marker::Leaf>, alloc::collections::btree::node::marker::Edge>"* %dst, %"alloc::collections::btree::node::Handle<alloc::collections::btree::node::NodeRef<alloc::collections::btree::node::marker::Dying, std::ffi::os_str::OsString, core::option::Option<std::ffi::os_str::OsString>, alloc::collections::btree::node::marker::Leaf>, alloc::collections::btree::node::marker::Edge>"* noalias nocapture dereferenceable(24) %src) unnamed_addr #1 {
start:
  %0 = bitcast %"alloc::collections::btree::node::Handle<alloc::collections::btree::node::NodeRef<alloc::collections::btree::node::marker::Dying, std::ffi::os_str::OsString, core::option::Option<std::ffi::os_str::OsString>, alloc::collections::btree::node::marker::Leaf>, alloc::collections::btree::node::marker::Edge>"* %dst to i8*
  %1 = bitcast %"alloc::collections::btree::node::Handle<alloc::collections::btree::node::NodeRef<alloc::collections::btree::node::marker::Dying, std::ffi::os_str::OsString, core::option::Option<std::ffi::os_str::OsString>, alloc::collections::btree::node::marker::Leaf>, alloc::collections::btree::node::marker::Edge>"* %src to i8*
  call void @llvm.memcpy.p0i8.p0i8.i64(i8* align 8 %0, i8* align 8 %1, i64 24, i1 false)
  ret void
}

; core::ptr::drop_in_place<alloc::vec::Vec<*const i8>>
; Function Attrs: nonlazybind uwtable
define internal void @"_ZN4core3ptr60drop_in_place$LT$alloc..vec..Vec$LT$$BP$const$u20$i8$GT$$GT$17hca3980b1c3d89428E"(%"alloc::vec::Vec<*const i8>"* %_1) unnamed_addr #0 personality i32 (i32, i32, i64, %"unwind::libunwind::_Unwind_Exception"*, %"unwind::libunwind::_Unwind_Context"*)* @rust_eh_personality {
start:
  %0 = alloca { i8*, i32 }, align 8
; invoke <alloc::vec::Vec<T,A> as core::ops::drop::Drop>::drop
  invoke void @"_ZN70_$LT$alloc..vec..Vec$LT$T$C$A$GT$$u20$as$u20$core..ops..drop..Drop$GT$4drop17h76cf9a8aa5c17269E"(%"alloc::vec::Vec<*const i8>"* align 8 dereferenceable(24) %_1)
          to label %bb4 unwind label %cleanup

bb4:                                              ; preds = %start
  %1 = bitcast %"alloc::vec::Vec<*const i8>"* %_1 to { i64*, i64 }*
; call core::ptr::drop_in_place<alloc::raw_vec::RawVec<*const i8>>
  call void @"_ZN4core3ptr67drop_in_place$LT$alloc..raw_vec..RawVec$LT$$BP$const$u20$i8$GT$$GT$17h7c1c901511a8ac2aE"({ i64*, i64 }* %1)
  br label %bb2

bb3:                                              ; preds = %cleanup
  %2 = bitcast %"alloc::vec::Vec<*const i8>"* %_1 to { i64*, i64 }*
; call core::ptr::drop_in_place<alloc::raw_vec::RawVec<*const i8>>
  call void @"_ZN4core3ptr67drop_in_place$LT$alloc..raw_vec..RawVec$LT$$BP$const$u20$i8$GT$$GT$17h7c1c901511a8ac2aE"({ i64*, i64 }* %2) #10
  br label %bb1

cleanup:                                          ; preds = %start
  %3 = landingpad { i8*, i32 }
          cleanup
  %4 = extractvalue { i8*, i32 } %3, 0
  %5 = extractvalue { i8*, i32 } %3, 1
  %6 = getelementptr inbounds { i8*, i32 }, { i8*, i32 }* %0, i32 0, i32 0
  store i8* %4, i8** %6, align 8
  %7 = getelementptr inbounds { i8*, i32 }, { i8*, i32 }* %0, i32 0, i32 1
  store i32 %5, i32* %7, align 8
  br label %bb3

bb1:                                              ; preds = %bb3
  %8 = bitcast { i8*, i32 }* %0 to i8**
  %9 = load i8*, i8** %8, align 8
  %10 = getelementptr inbounds { i8*, i32 }, { i8*, i32 }* %0, i32 0, i32 1
  %11 = load i32, i32* %10, align 8
  %12 = insertvalue { i8*, i32 } undef, i8* %9, 0
  %13 = insertvalue { i8*, i32 } %12, i32 %11, 1
  resume { i8*, i32 } %13

bb2:                                              ; preds = %bb4
  ret void
}

; core::ptr::drop_in_place<std::sys::unix::process::process_common::Argv>
; Function Attrs: nonlazybind uwtable
define internal void @"_ZN4core3ptr66drop_in_place$LT$std..sys..unix..process..process_common..Argv$GT$17h15fe03eae2610470E"(%"std::sys::unix::process::process_common::Argv"* %_1) unnamed_addr #0 {
start:
  %0 = bitcast %"std::sys::unix::process::process_common::Argv"* %_1 to %"alloc::vec::Vec<*const i8>"*
; call core::ptr::drop_in_place<alloc::vec::Vec<*const i8>>
  call void @"_ZN4core3ptr60drop_in_place$LT$alloc..vec..Vec$LT$$BP$const$u20$i8$GT$$GT$17hca3980b1c3d89428E"(%"alloc::vec::Vec<*const i8>"* %0)
  br label %bb1

bb1:                                              ; preds = %start
  ret void
}

; core::ptr::drop_in_place<alloc::raw_vec::RawVec<*const i8>>
; Function Attrs: nonlazybind uwtable
define internal void @"_ZN4core3ptr67drop_in_place$LT$alloc..raw_vec..RawVec$LT$$BP$const$u20$i8$GT$$GT$17h7c1c901511a8ac2aE"({ i64*, i64 }* %_1) unnamed_addr #0 {
start:
; call <alloc::raw_vec::RawVec<T,A> as core::ops::drop::Drop>::drop
  call void @"_ZN77_$LT$alloc..raw_vec..RawVec$LT$T$C$A$GT$$u20$as$u20$core..ops..drop..Drop$GT$4drop17hd2d12204e01dad91E"({ i64*, i64 }* align 8 dereferenceable(16) %_1)
  br label %bb1

bb1:                                              ; preds = %start
  ret void
}

; core::ptr::drop_in_place<std::sys::unix::process::process_common::Stdio>
; Function Attrs: nonlazybind uwtable
define internal void @"_ZN4core3ptr67drop_in_place$LT$std..sys..unix..process..process_common..Stdio$GT$17h7b7f29f931de8613E"({ i32, i32 }* %_1) unnamed_addr #0 {
start:
  %0 = bitcast { i32, i32 }* %_1 to i32*
  %1 = load i32, i32* %0, align 4, !range !68
  %_2 = zext i32 %1 to i64
  switch i64 %_2, label %bb2 [
    i64 0, label %bb1
    i64 1, label %bb1
    i64 2, label %bb1
  ]

bb2:                                              ; preds = %start
  %2 = bitcast { i32, i32 }* %_1 to %"std::sys::unix::process::process_common::Stdio::Fd"*
  %3 = getelementptr inbounds %"std::sys::unix::process::process_common::Stdio::Fd", %"std::sys::unix::process::process_common::Stdio::Fd"* %2, i32 0, i32 1
; call core::ptr::drop_in_place<std::sys::unix::fd::FileDesc>
  call void @"_ZN4core3ptr49drop_in_place$LT$std..sys..unix..fd..FileDesc$GT$17haa28ccb5ac88c82bE"(i32* %3)
  br label %bb1

bb1:                                              ; preds = %bb2, %start, %start, %start
  ret void
}

; core::ptr::drop_in_place<alloc::boxed::Box<std::io::error::Custom>>
; Function Attrs: nonlazybind uwtable
define internal void @"_ZN4core3ptr68drop_in_place$LT$alloc..boxed..Box$LT$std..io..error..Custom$GT$$GT$17haf2c6d6e424dad22E"(%"std::io::error::Custom"** %_1) unnamed_addr #0 personality i32 (i32, i32, i64, %"unwind::libunwind::_Unwind_Exception"*, %"unwind::libunwind::_Unwind_Context"*)* @rust_eh_personality {
start:
  %0 = alloca { i8*, i32 }, align 8
  %1 = load %"std::io::error::Custom"*, %"std::io::error::Custom"** %_1, align 8, !nonnull !8
; invoke core::ptr::drop_in_place<std::io::error::Custom>
  invoke void @"_ZN4core3ptr43drop_in_place$LT$std..io..error..Custom$GT$17he561857fa79ee4ceE"(%"std::io::error::Custom"* %1)
          to label %bb3 unwind label %cleanup

bb3:                                              ; preds = %start
  %2 = bitcast %"std::io::error::Custom"** %_1 to i64**
  %3 = load i64*, i64** %2, align 8, !nonnull !8
; call alloc::alloc::box_free
  call void @_ZN5alloc5alloc8box_free17hf590a1652b171c3bE(i64* nonnull %3)
  br label %bb1

bb4:                                              ; preds = %cleanup
  %4 = bitcast %"std::io::error::Custom"** %_1 to i64**
  %5 = load i64*, i64** %4, align 8, !nonnull !8
; call alloc::alloc::box_free
  call void @_ZN5alloc5alloc8box_free17hf590a1652b171c3bE(i64* nonnull %5) #10
  br label %bb2

cleanup:                                          ; preds = %start
  %6 = landingpad { i8*, i32 }
          cleanup
  %7 = extractvalue { i8*, i32 } %6, 0
  %8 = extractvalue { i8*, i32 } %6, 1
  %9 = getelementptr inbounds { i8*, i32 }, { i8*, i32 }* %0, i32 0, i32 0
  store i8* %7, i8** %9, align 8
  %10 = getelementptr inbounds { i8*, i32 }, { i8*, i32 }* %0, i32 0, i32 1
  store i32 %8, i32* %10, align 8
  br label %bb4

bb2:                                              ; preds = %bb4
  %11 = bitcast { i8*, i32 }* %0 to i8**
  %12 = load i8*, i8** %11, align 8
  %13 = getelementptr inbounds { i8*, i32 }, { i8*, i32 }* %0, i32 0, i32 1
  %14 = load i32, i32* %13, align 8
  %15 = insertvalue { i8*, i32 } undef, i8* %12, 0
  %16 = insertvalue { i8*, i32 } %15, i32 %14, 1
  resume { i8*, i32 } %16

bb1:                                              ; preds = %bb3
  ret void
}

; core::ptr::drop_in_place<alloc::vec::Vec<std::ffi::c_str::CString>>
; Function Attrs: nonlazybind uwtable
define internal void @"_ZN4core3ptr68drop_in_place$LT$alloc..vec..Vec$LT$std..ffi..c_str..CString$GT$$GT$17h5b5cccc2e9de3eccE"(%"alloc::vec::Vec<std::ffi::c_str::CString>"* %_1) unnamed_addr #0 personality i32 (i32, i32, i64, %"unwind::libunwind::_Unwind_Exception"*, %"unwind::libunwind::_Unwind_Context"*)* @rust_eh_personality {
start:
  %0 = alloca { i8*, i32 }, align 8
; invoke <alloc::vec::Vec<T,A> as core::ops::drop::Drop>::drop
  invoke void @"_ZN70_$LT$alloc..vec..Vec$LT$T$C$A$GT$$u20$as$u20$core..ops..drop..Drop$GT$4drop17h9bc020eb8214f930E"(%"alloc::vec::Vec<std::ffi::c_str::CString>"* align 8 dereferenceable(24) %_1)
          to label %bb4 unwind label %cleanup

bb4:                                              ; preds = %start
  %1 = bitcast %"alloc::vec::Vec<std::ffi::c_str::CString>"* %_1 to { i64*, i64 }*
; call core::ptr::drop_in_place<alloc::raw_vec::RawVec<std::ffi::c_str::CString>>
  call void @"_ZN4core3ptr75drop_in_place$LT$alloc..raw_vec..RawVec$LT$std..ffi..c_str..CString$GT$$GT$17h590cff7d39f9d4a1E"({ i64*, i64 }* %1)
  br label %bb2

bb3:                                              ; preds = %cleanup
  %2 = bitcast %"alloc::vec::Vec<std::ffi::c_str::CString>"* %_1 to { i64*, i64 }*
; call core::ptr::drop_in_place<alloc::raw_vec::RawVec<std::ffi::c_str::CString>>
  call void @"_ZN4core3ptr75drop_in_place$LT$alloc..raw_vec..RawVec$LT$std..ffi..c_str..CString$GT$$GT$17h590cff7d39f9d4a1E"({ i64*, i64 }* %2) #10
  br label %bb1

cleanup:                                          ; preds = %start
  %3 = landingpad { i8*, i32 }
          cleanup
  %4 = extractvalue { i8*, i32 } %3, 0
  %5 = extractvalue { i8*, i32 } %3, 1
  %6 = getelementptr inbounds { i8*, i32 }, { i8*, i32 }* %0, i32 0, i32 0
  store i8* %4, i8** %6, align 8
  %7 = getelementptr inbounds { i8*, i32 }, { i8*, i32 }* %0, i32 0, i32 1
  store i32 %5, i32* %7, align 8
  br label %bb3

bb1:                                              ; preds = %bb3
  %8 = bitcast { i8*, i32 }* %0 to i8**
  %9 = load i8*, i8** %8, align 8
  %10 = getelementptr inbounds { i8*, i32 }, { i8*, i32 }* %0, i32 0, i32 1
  %11 = load i32, i32* %10, align 8
  %12 = insertvalue { i8*, i32 } undef, i8* %9, 0
  %13 = insertvalue { i8*, i32 } %12, i32 %11, 1
  resume { i8*, i32 } %13

bb2:                                              ; preds = %bb4
  ret void
}

; core::ptr::drop_in_place<std::sys::unix::process::process_common::Command>
; Function Attrs: nonlazybind uwtable
define internal void @"_ZN4core3ptr69drop_in_place$LT$std..sys..unix..process..process_common..Command$GT$17hbf0ee7a0981ac07bE"(%"std::sys::unix::process::process_common::Command"* %_1) unnamed_addr #0 personality i32 (i32, i32, i64, %"unwind::libunwind::_Unwind_Exception"*, %"unwind::libunwind::_Unwind_Context"*)* @rust_eh_personality {
start:
  %0 = alloca { i8*, i32 }, align 8
  %1 = bitcast %"std::sys::unix::process::process_common::Command"* %_1 to { i8*, i64 }*
; invoke core::ptr::drop_in_place<std::ffi::c_str::CString>
  invoke void @"_ZN4core3ptr45drop_in_place$LT$std..ffi..c_str..CString$GT$17h508e2a5367e0546cE"({ i8*, i64 }* %1)
          to label %bb20 unwind label %cleanup

bb20:                                             ; preds = %start
  %2 = getelementptr inbounds %"std::sys::unix::process::process_common::Command", %"std::sys::unix::process::process_common::Command"* %_1, i32 0, i32 1
; invoke core::ptr::drop_in_place<alloc::vec::Vec<std::ffi::c_str::CString>>
  invoke void @"_ZN4core3ptr68drop_in_place$LT$alloc..vec..Vec$LT$std..ffi..c_str..CString$GT$$GT$17h5b5cccc2e9de3eccE"(%"alloc::vec::Vec<std::ffi::c_str::CString>"* %2)
          to label %bb19 unwind label %cleanup1

bb11:                                             ; preds = %cleanup
  %3 = getelementptr inbounds %"std::sys::unix::process::process_common::Command", %"std::sys::unix::process::process_common::Command"* %_1, i32 0, i32 1
; call core::ptr::drop_in_place<alloc::vec::Vec<std::ffi::c_str::CString>>
  call void @"_ZN4core3ptr68drop_in_place$LT$alloc..vec..Vec$LT$std..ffi..c_str..CString$GT$$GT$17h5b5cccc2e9de3eccE"(%"alloc::vec::Vec<std::ffi::c_str::CString>"* %3) #10
  br label %bb10

cleanup:                                          ; preds = %start
  %4 = landingpad { i8*, i32 }
          cleanup
  %5 = extractvalue { i8*, i32 } %4, 0
  %6 = extractvalue { i8*, i32 } %4, 1
  %7 = getelementptr inbounds { i8*, i32 }, { i8*, i32 }* %0, i32 0, i32 0
  store i8* %5, i8** %7, align 8
  %8 = getelementptr inbounds { i8*, i32 }, { i8*, i32 }* %0, i32 0, i32 1
  store i32 %6, i32* %8, align 8
  br label %bb11

bb10:                                             ; preds = %cleanup1, %bb11
  %9 = getelementptr inbounds %"std::sys::unix::process::process_common::Command", %"std::sys::unix::process::process_common::Command"* %_1, i32 0, i32 2
; call core::ptr::drop_in_place<std::sys::unix::process::process_common::Argv>
  call void @"_ZN4core3ptr66drop_in_place$LT$std..sys..unix..process..process_common..Argv$GT$17h15fe03eae2610470E"(%"std::sys::unix::process::process_common::Argv"* %9) #10
  br label %bb9

bb19:                                             ; preds = %bb20
  %10 = getelementptr inbounds %"std::sys::unix::process::process_common::Command", %"std::sys::unix::process::process_common::Command"* %_1, i32 0, i32 2
; invoke core::ptr::drop_in_place<std::sys::unix::process::process_common::Argv>
  invoke void @"_ZN4core3ptr66drop_in_place$LT$std..sys..unix..process..process_common..Argv$GT$17h15fe03eae2610470E"(%"std::sys::unix::process::process_common::Argv"* %10)
          to label %bb18 unwind label %cleanup2

cleanup1:                                         ; preds = %bb20
  %11 = landingpad { i8*, i32 }
          cleanup
  %12 = extractvalue { i8*, i32 } %11, 0
  %13 = extractvalue { i8*, i32 } %11, 1
  %14 = getelementptr inbounds { i8*, i32 }, { i8*, i32 }* %0, i32 0, i32 0
  store i8* %12, i8** %14, align 8
  %15 = getelementptr inbounds { i8*, i32 }, { i8*, i32 }* %0, i32 0, i32 1
  store i32 %13, i32* %15, align 8
  br label %bb10

bb9:                                              ; preds = %cleanup2, %bb10
  %16 = getelementptr inbounds %"std::sys::unix::process::process_common::Command", %"std::sys::unix::process::process_common::Command"* %_1, i32 0, i32 3
; call core::ptr::drop_in_place<std::sys_common::process::CommandEnv>
  call void @"_ZN4core3ptr57drop_in_place$LT$std..sys_common..process..CommandEnv$GT$17h461ade2c434a361cE"(%"std::sys_common::process::CommandEnv"* %16) #10
  br label %bb8

bb18:                                             ; preds = %bb19
  %17 = getelementptr inbounds %"std::sys::unix::process::process_common::Command", %"std::sys::unix::process::process_common::Command"* %_1, i32 0, i32 3
; invoke core::ptr::drop_in_place<std::sys_common::process::CommandEnv>
  invoke void @"_ZN4core3ptr57drop_in_place$LT$std..sys_common..process..CommandEnv$GT$17h461ade2c434a361cE"(%"std::sys_common::process::CommandEnv"* %17)
          to label %bb17 unwind label %cleanup3

cleanup2:                                         ; preds = %bb19
  %18 = landingpad { i8*, i32 }
          cleanup
  %19 = extractvalue { i8*, i32 } %18, 0
  %20 = extractvalue { i8*, i32 } %18, 1
  %21 = getelementptr inbounds { i8*, i32 }, { i8*, i32 }* %0, i32 0, i32 0
  store i8* %19, i8** %21, align 8
  %22 = getelementptr inbounds { i8*, i32 }, { i8*, i32 }* %0, i32 0, i32 1
  store i32 %20, i32* %22, align 8
  br label %bb9

bb8:                                              ; preds = %cleanup3, %bb9
  %23 = getelementptr inbounds %"std::sys::unix::process::process_common::Command", %"std::sys::unix::process::process_common::Command"* %_1, i32 0, i32 4
; call core::ptr::drop_in_place<core::option::Option<std::ffi::c_str::CString>>
  call void @"_ZN4core3ptr73drop_in_place$LT$core..option..Option$LT$std..ffi..c_str..CString$GT$$GT$17h0220820fd9471886E"({ i8*, i64 }* %23) #10
  br label %bb7

bb17:                                             ; preds = %bb18
  %24 = getelementptr inbounds %"std::sys::unix::process::process_common::Command", %"std::sys::unix::process::process_common::Command"* %_1, i32 0, i32 4
; invoke core::ptr::drop_in_place<core::option::Option<std::ffi::c_str::CString>>
  invoke void @"_ZN4core3ptr73drop_in_place$LT$core..option..Option$LT$std..ffi..c_str..CString$GT$$GT$17h0220820fd9471886E"({ i8*, i64 }* %24)
          to label %bb16 unwind label %cleanup4

cleanup3:                                         ; preds = %bb18
  %25 = landingpad { i8*, i32 }
          cleanup
  %26 = extractvalue { i8*, i32 } %25, 0
  %27 = extractvalue { i8*, i32 } %25, 1
  %28 = getelementptr inbounds { i8*, i32 }, { i8*, i32 }* %0, i32 0, i32 0
  store i8* %26, i8** %28, align 8
  %29 = getelementptr inbounds { i8*, i32 }, { i8*, i32 }* %0, i32 0, i32 1
  store i32 %27, i32* %29, align 8
  br label %bb8

bb7:                                              ; preds = %cleanup4, %bb8
  %30 = getelementptr inbounds %"std::sys::unix::process::process_common::Command", %"std::sys::unix::process::process_common::Command"* %_1, i32 0, i32 5
; call core::ptr::drop_in_place<alloc::vec::Vec<alloc::boxed::Box<dyn core::ops::function::FnMut<()>+Output = core::result::Result<(),std::io::error::Error>+core::marker::Send+core::marker::Sync>>>
  call void @"_ZN4core3ptr251drop_in_place$LT$alloc..vec..Vec$LT$alloc..boxed..Box$LT$dyn$u20$core..ops..function..FnMut$LT$$LP$$RP$$GT$$u2b$Output$u20$$u3d$$u20$core..result..Result$LT$$LP$$RP$$C$std..io..error..Error$GT$$u2b$core..marker..Send$u2b$core..marker..Sync$GT$$GT$$GT$17h025cbd06b4400660E"(%"alloc::vec::Vec<alloc::boxed::Box<dyn core::ops::function::FnMut() -> core::result::Result<(), std::io::error::Error> + core::marker::Send + core::marker::Sync>>"* %30) #10
  br label %bb6

bb16:                                             ; preds = %bb17
  %31 = getelementptr inbounds %"std::sys::unix::process::process_common::Command", %"std::sys::unix::process::process_common::Command"* %_1, i32 0, i32 5
; invoke core::ptr::drop_in_place<alloc::vec::Vec<alloc::boxed::Box<dyn core::ops::function::FnMut<()>+Output = core::result::Result<(),std::io::error::Error>+core::marker::Send+core::marker::Sync>>>
  invoke void @"_ZN4core3ptr251drop_in_place$LT$alloc..vec..Vec$LT$alloc..boxed..Box$LT$dyn$u20$core..ops..function..FnMut$LT$$LP$$RP$$GT$$u2b$Output$u20$$u3d$$u20$core..result..Result$LT$$LP$$RP$$C$std..io..error..Error$GT$$u2b$core..marker..Send$u2b$core..marker..Sync$GT$$GT$$GT$17h025cbd06b4400660E"(%"alloc::vec::Vec<alloc::boxed::Box<dyn core::ops::function::FnMut() -> core::result::Result<(), std::io::error::Error> + core::marker::Send + core::marker::Sync>>"* %31)
          to label %bb15 unwind label %cleanup5

cleanup4:                                         ; preds = %bb17
  %32 = landingpad { i8*, i32 }
          cleanup
  %33 = extractvalue { i8*, i32 } %32, 0
  %34 = extractvalue { i8*, i32 } %32, 1
  %35 = getelementptr inbounds { i8*, i32 }, { i8*, i32 }* %0, i32 0, i32 0
  store i8* %33, i8** %35, align 8
  %36 = getelementptr inbounds { i8*, i32 }, { i8*, i32 }* %0, i32 0, i32 1
  store i32 %34, i32* %36, align 8
  br label %bb7

bb6:                                              ; preds = %cleanup5, %bb7
  %37 = getelementptr inbounds %"std::sys::unix::process::process_common::Command", %"std::sys::unix::process::process_common::Command"* %_1, i32 0, i32 6
; call core::ptr::drop_in_place<core::option::Option<alloc::boxed::Box<[u32]>>>
  call void @"_ZN4core3ptr87drop_in_place$LT$core..option..Option$LT$alloc..boxed..Box$LT$$u5b$u32$u5d$$GT$$GT$$GT$17hba8c0e24dc6f1c2dE"({ i32*, i64 }* %37) #10
  br label %bb5

bb15:                                             ; preds = %bb16
  %38 = getelementptr inbounds %"std::sys::unix::process::process_common::Command", %"std::sys::unix::process::process_common::Command"* %_1, i32 0, i32 6
; invoke core::ptr::drop_in_place<core::option::Option<alloc::boxed::Box<[u32]>>>
  invoke void @"_ZN4core3ptr87drop_in_place$LT$core..option..Option$LT$alloc..boxed..Box$LT$$u5b$u32$u5d$$GT$$GT$$GT$17hba8c0e24dc6f1c2dE"({ i32*, i64 }* %38)
          to label %bb14 unwind label %cleanup6

cleanup5:                                         ; preds = %bb16
  %39 = landingpad { i8*, i32 }
          cleanup
  %40 = extractvalue { i8*, i32 } %39, 0
  %41 = extractvalue { i8*, i32 } %39, 1
  %42 = getelementptr inbounds { i8*, i32 }, { i8*, i32 }* %0, i32 0, i32 0
  store i8* %40, i8** %42, align 8
  %43 = getelementptr inbounds { i8*, i32 }, { i8*, i32 }* %0, i32 0, i32 1
  store i32 %41, i32* %43, align 8
  br label %bb6

bb5:                                              ; preds = %cleanup6, %bb6
  %44 = getelementptr inbounds %"std::sys::unix::process::process_common::Command", %"std::sys::unix::process::process_common::Command"* %_1, i32 0, i32 9
; call core::ptr::drop_in_place<core::option::Option<std::sys::unix::process::process_common::Stdio>>
  call void @"_ZN4core3ptr95drop_in_place$LT$core..option..Option$LT$std..sys..unix..process..process_common..Stdio$GT$$GT$17h0a0a52b00cb7eac6E"({ i32, i32 }* %44) #10
  br label %bb4

bb14:                                             ; preds = %bb15
  %45 = getelementptr inbounds %"std::sys::unix::process::process_common::Command", %"std::sys::unix::process::process_common::Command"* %_1, i32 0, i32 9
; invoke core::ptr::drop_in_place<core::option::Option<std::sys::unix::process::process_common::Stdio>>
  invoke void @"_ZN4core3ptr95drop_in_place$LT$core..option..Option$LT$std..sys..unix..process..process_common..Stdio$GT$$GT$17h0a0a52b00cb7eac6E"({ i32, i32 }* %45)
          to label %bb13 unwind label %cleanup7

cleanup6:                                         ; preds = %bb15
  %46 = landingpad { i8*, i32 }
          cleanup
  %47 = extractvalue { i8*, i32 } %46, 0
  %48 = extractvalue { i8*, i32 } %46, 1
  %49 = getelementptr inbounds { i8*, i32 }, { i8*, i32 }* %0, i32 0, i32 0
  store i8* %47, i8** %49, align 8
  %50 = getelementptr inbounds { i8*, i32 }, { i8*, i32 }* %0, i32 0, i32 1
  store i32 %48, i32* %50, align 8
  br label %bb5

bb4:                                              ; preds = %cleanup7, %bb5
  %51 = getelementptr inbounds %"std::sys::unix::process::process_common::Command", %"std::sys::unix::process::process_common::Command"* %_1, i32 0, i32 10
; call core::ptr::drop_in_place<core::option::Option<std::sys::unix::process::process_common::Stdio>>
  call void @"_ZN4core3ptr95drop_in_place$LT$core..option..Option$LT$std..sys..unix..process..process_common..Stdio$GT$$GT$17h0a0a52b00cb7eac6E"({ i32, i32 }* %51) #10
  br label %bb3

bb13:                                             ; preds = %bb14
  %52 = getelementptr inbounds %"std::sys::unix::process::process_common::Command", %"std::sys::unix::process::process_common::Command"* %_1, i32 0, i32 10
; invoke core::ptr::drop_in_place<core::option::Option<std::sys::unix::process::process_common::Stdio>>
  invoke void @"_ZN4core3ptr95drop_in_place$LT$core..option..Option$LT$std..sys..unix..process..process_common..Stdio$GT$$GT$17h0a0a52b00cb7eac6E"({ i32, i32 }* %52)
          to label %bb12 unwind label %cleanup8

cleanup7:                                         ; preds = %bb14
  %53 = landingpad { i8*, i32 }
          cleanup
  %54 = extractvalue { i8*, i32 } %53, 0
  %55 = extractvalue { i8*, i32 } %53, 1
  %56 = getelementptr inbounds { i8*, i32 }, { i8*, i32 }* %0, i32 0, i32 0
  store i8* %54, i8** %56, align 8
  %57 = getelementptr inbounds { i8*, i32 }, { i8*, i32 }* %0, i32 0, i32 1
  store i32 %55, i32* %57, align 8
  br label %bb4

bb3:                                              ; preds = %cleanup8, %bb4
  %58 = getelementptr inbounds %"std::sys::unix::process::process_common::Command", %"std::sys::unix::process::process_common::Command"* %_1, i32 0, i32 11
; call core::ptr::drop_in_place<core::option::Option<std::sys::unix::process::process_common::Stdio>>
  call void @"_ZN4core3ptr95drop_in_place$LT$core..option..Option$LT$std..sys..unix..process..process_common..Stdio$GT$$GT$17h0a0a52b00cb7eac6E"({ i32, i32 }* %58) #10
  br label %bb1

bb12:                                             ; preds = %bb13
  %59 = getelementptr inbounds %"std::sys::unix::process::process_common::Command", %"std::sys::unix::process::process_common::Command"* %_1, i32 0, i32 11
; call core::ptr::drop_in_place<core::option::Option<std::sys::unix::process::process_common::Stdio>>
  call void @"_ZN4core3ptr95drop_in_place$LT$core..option..Option$LT$std..sys..unix..process..process_common..Stdio$GT$$GT$17h0a0a52b00cb7eac6E"({ i32, i32 }* %59)
  br label %bb2

cleanup8:                                         ; preds = %bb13
  %60 = landingpad { i8*, i32 }
          cleanup
  %61 = extractvalue { i8*, i32 } %60, 0
  %62 = extractvalue { i8*, i32 } %60, 1
  %63 = getelementptr inbounds { i8*, i32 }, { i8*, i32 }* %0, i32 0, i32 0
  store i8* %61, i8** %63, align 8
  %64 = getelementptr inbounds { i8*, i32 }, { i8*, i32 }* %0, i32 0, i32 1
  store i32 %62, i32* %64, align 8
  br label %bb3

bb1:                                              ; preds = %bb3
  %65 = bitcast { i8*, i32 }* %0 to i8**
  %66 = load i8*, i8** %65, align 8
  %67 = getelementptr inbounds { i8*, i32 }, { i8*, i32 }* %0, i32 0, i32 1
  %68 = load i32, i32* %67, align 8
  %69 = insertvalue { i8*, i32 } undef, i8* %66, 0
  %70 = insertvalue { i8*, i32 } %69, i32 %68, 1
  resume { i8*, i32 } %70

bb2:                                              ; preds = %bb12
  ret void
}

; core::ptr::unique::Unique<T>::new_unchecked
; Function Attrs: inlinehint nonlazybind uwtable
define internal nonnull i8* @"_ZN4core3ptr6unique15Unique$LT$T$GT$13new_unchecked17h1d44e3af00cac920E"(i8* %ptr) unnamed_addr #1 {
start:
  %0 = alloca i8*, align 8
  store i8* %ptr, i8** %0, align 8
  %1 = load i8*, i8** %0, align 8, !nonnull !8
  ret i8* %1
}

; core::ptr::unique::Unique<T>::cast
; Function Attrs: inlinehint nonlazybind uwtable
define internal nonnull i8* @"_ZN4core3ptr6unique15Unique$LT$T$GT$4cast17h0ca7220dc523d8efE"(i8* nonnull %self.0, i64* align 8 dereferenceable(24) %self.1) unnamed_addr #1 {
start:
; call core::ptr::unique::Unique<T>::as_ptr
  %0 = call { {}*, [3 x i64]* } @"_ZN4core3ptr6unique15Unique$LT$T$GT$6as_ptr17h80f3741ca372cf19E"(i8* nonnull %self.0, i64* align 8 dereferenceable(24) %self.1)
  %_3.0 = extractvalue { {}*, [3 x i64]* } %0, 0
  %_3.1 = extractvalue { {}*, [3 x i64]* } %0, 1
  br label %bb1

bb1:                                              ; preds = %start
  %_2 = bitcast {}* %_3.0 to i8*
; call core::ptr::unique::Unique<T>::new_unchecked
  %1 = call nonnull i8* @"_ZN4core3ptr6unique15Unique$LT$T$GT$13new_unchecked17h1d44e3af00cac920E"(i8* %_2)
  br label %bb2

bb2:                                              ; preds = %bb1
  ret i8* %1
}

; core::ptr::unique::Unique<T>::cast
; Function Attrs: inlinehint nonlazybind uwtable
define internal nonnull i8* @"_ZN4core3ptr6unique15Unique$LT$T$GT$4cast17h0e089315399d1f62E"(i64* nonnull %self) unnamed_addr #1 {
start:
; call core::ptr::unique::Unique<T>::as_ptr
  %_3 = call { {}*, [3 x i64]* }* @"_ZN4core3ptr6unique15Unique$LT$T$GT$6as_ptr17hee30d7d8690b684cE"(i64* nonnull %self)
  br label %bb1

bb1:                                              ; preds = %start
  %_2 = bitcast { {}*, [3 x i64]* }* %_3 to i8*
; call core::ptr::unique::Unique<T>::new_unchecked
  %0 = call nonnull i8* @"_ZN4core3ptr6unique15Unique$LT$T$GT$13new_unchecked17h1d44e3af00cac920E"(i8* %_2)
  br label %bb2

bb2:                                              ; preds = %bb1
  ret i8* %0
}

; core::ptr::unique::Unique<T>::cast
; Function Attrs: inlinehint nonlazybind uwtable
define internal nonnull i8* @"_ZN4core3ptr6unique15Unique$LT$T$GT$4cast17h24460321a73e549aE"(i32* nonnull %self.0, i64 %self.1) unnamed_addr #1 {
start:
; call core::ptr::unique::Unique<T>::as_ptr
  %0 = call { [0 x i32]*, i64 } @"_ZN4core3ptr6unique15Unique$LT$T$GT$6as_ptr17hfd07efb25be2d67bE"(i32* nonnull %self.0, i64 %self.1)
  %_3.0 = extractvalue { [0 x i32]*, i64 } %0, 0
  %_3.1 = extractvalue { [0 x i32]*, i64 } %0, 1
  br label %bb1

bb1:                                              ; preds = %start
  %_2 = bitcast [0 x i32]* %_3.0 to i8*
; call core::ptr::unique::Unique<T>::new_unchecked
  %1 = call nonnull i8* @"_ZN4core3ptr6unique15Unique$LT$T$GT$13new_unchecked17h1d44e3af00cac920E"(i8* %_2)
  br label %bb2

bb2:                                              ; preds = %bb1
  ret i8* %1
}

; core::ptr::unique::Unique<T>::cast
; Function Attrs: inlinehint nonlazybind uwtable
define internal nonnull i8* @"_ZN4core3ptr6unique15Unique$LT$T$GT$4cast17h3983083cbd72c4e7E"(i8* nonnull %self.0, i64* align 8 dereferenceable(24) %self.1) unnamed_addr #1 {
start:
; call core::ptr::unique::Unique<T>::as_ptr
  %0 = call { {}*, [3 x i64]* } @"_ZN4core3ptr6unique15Unique$LT$T$GT$6as_ptr17haa61d289b0be4bc8E"(i8* nonnull %self.0, i64* align 8 dereferenceable(24) %self.1)
  %_3.0 = extractvalue { {}*, [3 x i64]* } %0, 0
  %_3.1 = extractvalue { {}*, [3 x i64]* } %0, 1
  br label %bb1

bb1:                                              ; preds = %start
  %_2 = bitcast {}* %_3.0 to i8*
; call core::ptr::unique::Unique<T>::new_unchecked
  %1 = call nonnull i8* @"_ZN4core3ptr6unique15Unique$LT$T$GT$13new_unchecked17h1d44e3af00cac920E"(i8* %_2)
  br label %bb2

bb2:                                              ; preds = %bb1
  ret i8* %1
}

; core::ptr::unique::Unique<T>::cast
; Function Attrs: inlinehint nonlazybind uwtable
define internal nonnull i8* @"_ZN4core3ptr6unique15Unique$LT$T$GT$4cast17h4bd1c17473a01d8dE"(i8* nonnull %self) unnamed_addr #1 {
start:
; call core::ptr::unique::Unique<T>::as_ptr
  %_3 = call i8* @"_ZN4core3ptr6unique15Unique$LT$T$GT$6as_ptr17hd1ed3c26fb28268cE"(i8* nonnull %self)
  br label %bb1

bb1:                                              ; preds = %start
; call core::ptr::unique::Unique<T>::new_unchecked
  %0 = call nonnull i8* @"_ZN4core3ptr6unique15Unique$LT$T$GT$13new_unchecked17h1d44e3af00cac920E"(i8* %_3)
  br label %bb2

bb2:                                              ; preds = %bb1
  ret i8* %0
}

; core::ptr::unique::Unique<T>::cast
; Function Attrs: inlinehint nonlazybind uwtable
define internal nonnull i8* @"_ZN4core3ptr6unique15Unique$LT$T$GT$4cast17h8f7586d274f75012E"(i64* nonnull %self) unnamed_addr #1 {
start:
; call core::ptr::unique::Unique<T>::as_ptr
  %_3 = call { i8*, i64 }* @"_ZN4core3ptr6unique15Unique$LT$T$GT$6as_ptr17h3399302d36c552c3E"(i64* nonnull %self)
  br label %bb1

bb1:                                              ; preds = %start
  %_2 = bitcast { i8*, i64 }* %_3 to i8*
; call core::ptr::unique::Unique<T>::new_unchecked
  %0 = call nonnull i8* @"_ZN4core3ptr6unique15Unique$LT$T$GT$13new_unchecked17h1d44e3af00cac920E"(i8* %_2)
  br label %bb2

bb2:                                              ; preds = %bb1
  ret i8* %0
}

; core::ptr::unique::Unique<T>::cast
; Function Attrs: inlinehint nonlazybind uwtable
define internal nonnull i8* @"_ZN4core3ptr6unique15Unique$LT$T$GT$4cast17hd3ad7022a8bee419E"(i8* nonnull %self.0, i64 %self.1) unnamed_addr #1 {
start:
; call core::ptr::unique::Unique<T>::as_ptr
  %0 = call { [0 x i8]*, i64 } @"_ZN4core3ptr6unique15Unique$LT$T$GT$6as_ptr17heb46c09f8b3fbd56E"(i8* nonnull %self.0, i64 %self.1)
  %_3.0 = extractvalue { [0 x i8]*, i64 } %0, 0
  %_3.1 = extractvalue { [0 x i8]*, i64 } %0, 1
  br label %bb1

bb1:                                              ; preds = %start
  %_2 = bitcast [0 x i8]* %_3.0 to i8*
; call core::ptr::unique::Unique<T>::new_unchecked
  %1 = call nonnull i8* @"_ZN4core3ptr6unique15Unique$LT$T$GT$13new_unchecked17h1d44e3af00cac920E"(i8* %_2)
  br label %bb2

bb2:                                              ; preds = %bb1
  ret i8* %1
}

; core::ptr::unique::Unique<T>::cast
; Function Attrs: inlinehint nonlazybind uwtable
define internal nonnull i8* @"_ZN4core3ptr6unique15Unique$LT$T$GT$4cast17hf106972347f7faf8E"(i64* nonnull %self) unnamed_addr #1 {
start:
; call core::ptr::unique::Unique<T>::as_ptr
  %_3 = call %"std::io::error::Custom"* @"_ZN4core3ptr6unique15Unique$LT$T$GT$6as_ptr17h79c4ab2c33cdaf83E"(i64* nonnull %self)
  br label %bb1

bb1:                                              ; preds = %start
  %_2 = bitcast %"std::io::error::Custom"* %_3 to i8*
; call core::ptr::unique::Unique<T>::new_unchecked
  %0 = call nonnull i8* @"_ZN4core3ptr6unique15Unique$LT$T$GT$13new_unchecked17h1d44e3af00cac920E"(i8* %_2)
  br label %bb2

bb2:                                              ; preds = %bb1
  ret i8* %0
}

; core::ptr::unique::Unique<T>::cast
; Function Attrs: inlinehint nonlazybind uwtable
define internal nonnull i8* @"_ZN4core3ptr6unique15Unique$LT$T$GT$4cast17hf79a608fd740f897E"(i64* nonnull %self) unnamed_addr #1 {
start:
; call core::ptr::unique::Unique<T>::as_ptr
  %_3 = call i8** @"_ZN4core3ptr6unique15Unique$LT$T$GT$6as_ptr17he6d2b2fcab365ab5E"(i64* nonnull %self)
  br label %bb1

bb1:                                              ; preds = %start
  %_2 = bitcast i8** %_3 to i8*
; call core::ptr::unique::Unique<T>::new_unchecked
  %0 = call nonnull i8* @"_ZN4core3ptr6unique15Unique$LT$T$GT$13new_unchecked17h1d44e3af00cac920E"(i8* %_2)
  br label %bb2

bb2:                                              ; preds = %bb1
  ret i8* %0
}

; core::ptr::unique::Unique<T>::as_ptr
; Function Attrs: inlinehint nonlazybind uwtable
define internal { i8*, i64 }* @"_ZN4core3ptr6unique15Unique$LT$T$GT$6as_ptr17h3399302d36c552c3E"(i64* nonnull %self) unnamed_addr #1 {
start:
  %_2 = bitcast i64* %self to { i8*, i64 }*
  ret { i8*, i64 }* %_2
}

; core::ptr::unique::Unique<T>::as_ptr
; Function Attrs: inlinehint nonlazybind uwtable
define internal %"std::io::error::Custom"* @"_ZN4core3ptr6unique15Unique$LT$T$GT$6as_ptr17h79c4ab2c33cdaf83E"(i64* nonnull %self) unnamed_addr #1 {
start:
  %_2 = bitcast i64* %self to %"std::io::error::Custom"*
  ret %"std::io::error::Custom"* %_2
}

; core::ptr::unique::Unique<T>::as_ptr
; Function Attrs: inlinehint nonlazybind uwtable
define internal { {}*, [3 x i64]* } @"_ZN4core3ptr6unique15Unique$LT$T$GT$6as_ptr17h80f3741ca372cf19E"(i8* nonnull %self.0, i64* align 8 dereferenceable(24) %self.1) unnamed_addr #1 {
start:
  %_2.0 = bitcast i8* %self.0 to {}*
  %_2.1 = bitcast i64* %self.1 to [3 x i64]*
  %0 = insertvalue { {}*, [3 x i64]* } undef, {}* %_2.0, 0
  %1 = insertvalue { {}*, [3 x i64]* } %0, [3 x i64]* %_2.1, 1
  ret { {}*, [3 x i64]* } %1
}

; core::ptr::unique::Unique<T>::as_ptr
; Function Attrs: inlinehint nonlazybind uwtable
define internal { {}*, [3 x i64]* } @"_ZN4core3ptr6unique15Unique$LT$T$GT$6as_ptr17haa61d289b0be4bc8E"(i8* nonnull %self.0, i64* align 8 dereferenceable(24) %self.1) unnamed_addr #1 {
start:
  %_2.0 = bitcast i8* %self.0 to {}*
  %_2.1 = bitcast i64* %self.1 to [3 x i64]*
  %0 = insertvalue { {}*, [3 x i64]* } undef, {}* %_2.0, 0
  %1 = insertvalue { {}*, [3 x i64]* } %0, [3 x i64]* %_2.1, 1
  ret { {}*, [3 x i64]* } %1
}

; core::ptr::unique::Unique<T>::as_ptr
; Function Attrs: inlinehint nonlazybind uwtable
define internal i8* @"_ZN4core3ptr6unique15Unique$LT$T$GT$6as_ptr17hd1ed3c26fb28268cE"(i8* nonnull %self) unnamed_addr #1 {
start:
  ret i8* %self
}

; core::ptr::unique::Unique<T>::as_ptr
; Function Attrs: inlinehint nonlazybind uwtable
define internal i8** @"_ZN4core3ptr6unique15Unique$LT$T$GT$6as_ptr17he6d2b2fcab365ab5E"(i64* nonnull %self) unnamed_addr #1 {
start:
  %_2 = bitcast i64* %self to i8**
  ret i8** %_2
}

; core::ptr::unique::Unique<T>::as_ptr
; Function Attrs: inlinehint nonlazybind uwtable
define internal { [0 x i8]*, i64 } @"_ZN4core3ptr6unique15Unique$LT$T$GT$6as_ptr17heb46c09f8b3fbd56E"(i8* nonnull %self.0, i64 %self.1) unnamed_addr #1 {
start:
  %_2.0 = bitcast i8* %self.0 to [0 x i8]*
  %0 = insertvalue { [0 x i8]*, i64 } undef, [0 x i8]* %_2.0, 0
  %1 = insertvalue { [0 x i8]*, i64 } %0, i64 %self.1, 1
  ret { [0 x i8]*, i64 } %1
}

; core::ptr::unique::Unique<T>::as_ptr
; Function Attrs: inlinehint nonlazybind uwtable
define internal { {}*, [3 x i64]* }* @"_ZN4core3ptr6unique15Unique$LT$T$GT$6as_ptr17hee30d7d8690b684cE"(i64* nonnull %self) unnamed_addr #1 {
start:
  %_2 = bitcast i64* %self to { {}*, [3 x i64]* }*
  ret { {}*, [3 x i64]* }* %_2
}

; core::ptr::unique::Unique<T>::as_ptr
; Function Attrs: inlinehint nonlazybind uwtable
define internal { [0 x i32]*, i64 } @"_ZN4core3ptr6unique15Unique$LT$T$GT$6as_ptr17hfd07efb25be2d67bE"(i32* nonnull %self.0, i64 %self.1) unnamed_addr #1 {
start:
  %_2.0 = bitcast i32* %self.0 to [0 x i32]*
  %0 = insertvalue { [0 x i32]*, i64 } undef, [0 x i32]* %_2.0, 0
  %1 = insertvalue { [0 x i32]*, i64 } %0, i64 %self.1, 1
  ret { [0 x i32]*, i64 } %1
}

; core::ptr::unique::Unique<T>::as_ref
; Function Attrs: inlinehint nonlazybind uwtable
define internal { {}*, [3 x i64]* } @"_ZN4core3ptr6unique15Unique$LT$T$GT$6as_ref17h4e65567cd16c4c2aE"({ i8*, i64* }* align 8 dereferenceable(16) %self) unnamed_addr #1 {
start:
  %0 = getelementptr inbounds { i8*, i64* }, { i8*, i64* }* %self, i32 0, i32 0
  %_3.0 = load i8*, i8** %0, align 8, !nonnull !8
  %1 = getelementptr inbounds { i8*, i64* }, { i8*, i64* }* %self, i32 0, i32 1
  %_3.1 = load i64*, i64** %1, align 8, !nonnull !8
; call core::ptr::unique::Unique<T>::as_ptr
  %2 = call { {}*, [3 x i64]* } @"_ZN4core3ptr6unique15Unique$LT$T$GT$6as_ptr17h80f3741ca372cf19E"(i8* nonnull %_3.0, i64* align 8 dereferenceable(24) %_3.1)
  %_2.0 = extractvalue { {}*, [3 x i64]* } %2, 0
  %_2.1 = extractvalue { {}*, [3 x i64]* } %2, 1
  br label %bb1

bb1:                                              ; preds = %start
  %3 = insertvalue { {}*, [3 x i64]* } undef, {}* %_2.0, 0
  %4 = insertvalue { {}*, [3 x i64]* } %3, [3 x i64]* %_2.1, 1
  ret { {}*, [3 x i64]* } %4
}

; core::ptr::unique::Unique<T>::as_ref
; Function Attrs: inlinehint nonlazybind uwtable
define internal { [0 x i8]*, i64 } @"_ZN4core3ptr6unique15Unique$LT$T$GT$6as_ref17h54c836a3467add55E"({ i8*, i64 }* align 8 dereferenceable(16) %self) unnamed_addr #1 {
start:
  %0 = getelementptr inbounds { i8*, i64 }, { i8*, i64 }* %self, i32 0, i32 0
  %_3.0 = load i8*, i8** %0, align 8, !nonnull !8
  %1 = getelementptr inbounds { i8*, i64 }, { i8*, i64 }* %self, i32 0, i32 1
  %_3.1 = load i64, i64* %1, align 8
; call core::ptr::unique::Unique<T>::as_ptr
  %2 = call { [0 x i8]*, i64 } @"_ZN4core3ptr6unique15Unique$LT$T$GT$6as_ptr17heb46c09f8b3fbd56E"(i8* nonnull %_3.0, i64 %_3.1)
  %_2.0 = extractvalue { [0 x i8]*, i64 } %2, 0
  %_2.1 = extractvalue { [0 x i8]*, i64 } %2, 1
  br label %bb1

bb1:                                              ; preds = %start
  %3 = insertvalue { [0 x i8]*, i64 } undef, [0 x i8]* %_2.0, 0
  %4 = insertvalue { [0 x i8]*, i64 } %3, i64 %_2.1, 1
  ret { [0 x i8]*, i64 } %4
}

; core::ptr::unique::Unique<T>::as_ref
; Function Attrs: inlinehint nonlazybind uwtable
define internal align 8 dereferenceable(24) %"std::io::error::Custom"* @"_ZN4core3ptr6unique15Unique$LT$T$GT$6as_ref17h804e3408c7685746E"(i64** align 8 dereferenceable(8) %self) unnamed_addr #1 {
start:
  %_3 = load i64*, i64** %self, align 8, !nonnull !8
; call core::ptr::unique::Unique<T>::as_ptr
  %_2 = call %"std::io::error::Custom"* @"_ZN4core3ptr6unique15Unique$LT$T$GT$6as_ptr17h79c4ab2c33cdaf83E"(i64* nonnull %_3)
  br label %bb1

bb1:                                              ; preds = %start
  ret %"std::io::error::Custom"* %_2
}

; core::ptr::unique::Unique<T>::as_ref
; Function Attrs: inlinehint nonlazybind uwtable
define internal { {}*, [3 x i64]* } @"_ZN4core3ptr6unique15Unique$LT$T$GT$6as_ref17h9f7aaafa98924375E"({ i8*, i64* }* align 8 dereferenceable(16) %self) unnamed_addr #1 {
start:
  %0 = getelementptr inbounds { i8*, i64* }, { i8*, i64* }* %self, i32 0, i32 0
  %_3.0 = load i8*, i8** %0, align 8, !nonnull !8
  %1 = getelementptr inbounds { i8*, i64* }, { i8*, i64* }* %self, i32 0, i32 1
  %_3.1 = load i64*, i64** %1, align 8, !nonnull !8
; call core::ptr::unique::Unique<T>::as_ptr
  %2 = call { {}*, [3 x i64]* } @"_ZN4core3ptr6unique15Unique$LT$T$GT$6as_ptr17haa61d289b0be4bc8E"(i8* nonnull %_3.0, i64* align 8 dereferenceable(24) %_3.1)
  %_2.0 = extractvalue { {}*, [3 x i64]* } %2, 0
  %_2.1 = extractvalue { {}*, [3 x i64]* } %2, 1
  br label %bb1

bb1:                                              ; preds = %start
  %3 = insertvalue { {}*, [3 x i64]* } undef, {}* %_2.0, 0
  %4 = insertvalue { {}*, [3 x i64]* } %3, [3 x i64]* %_2.1, 1
  ret { {}*, [3 x i64]* } %4
}

; core::ptr::unique::Unique<T>::as_ref
; Function Attrs: inlinehint nonlazybind uwtable
define internal { [0 x i32]*, i64 } @"_ZN4core3ptr6unique15Unique$LT$T$GT$6as_ref17hfd953f485a90e2b5E"({ i32*, i64 }* align 8 dereferenceable(16) %self) unnamed_addr #1 {
start:
  %0 = getelementptr inbounds { i32*, i64 }, { i32*, i64 }* %self, i32 0, i32 0
  %_3.0 = load i32*, i32** %0, align 8, !nonnull !8
  %1 = getelementptr inbounds { i32*, i64 }, { i32*, i64 }* %self, i32 0, i32 1
  %_3.1 = load i64, i64* %1, align 8
; call core::ptr::unique::Unique<T>::as_ptr
  %2 = call { [0 x i32]*, i64 } @"_ZN4core3ptr6unique15Unique$LT$T$GT$6as_ptr17hfd07efb25be2d67bE"(i32* nonnull %_3.0, i64 %_3.1)
  %_2.0 = extractvalue { [0 x i32]*, i64 } %2, 0
  %_2.1 = extractvalue { [0 x i32]*, i64 } %2, 1
  br label %bb1

bb1:                                              ; preds = %start
  %3 = insertvalue { [0 x i32]*, i64 } undef, [0 x i32]* %_2.0, 0
  %4 = insertvalue { [0 x i32]*, i64 } %3, i64 %_2.1, 1
  ret { [0 x i32]*, i64 } %4
}

; core::ptr::drop_in_place<alloc::collections::btree::mem::replace::PanicGuard>
; Function Attrs: nonlazybind uwtable
define internal void @"_ZN4core3ptr72drop_in_place$LT$alloc..collections..btree..mem..replace..PanicGuard$GT$17hd9f45c4a53c0e3eaE"(%"alloc::collections::btree::mem::replace::PanicGuard"* %_1) unnamed_addr #0 {
start:
; call <alloc::collections::btree::mem::replace::PanicGuard as core::ops::drop::Drop>::drop
  call void @"_ZN93_$LT$alloc..collections..btree..mem..replace..PanicGuard$u20$as$u20$core..ops..drop..Drop$GT$4drop17h765cebd554f135e0E"(%"alloc::collections::btree::mem::replace::PanicGuard"* nonnull align 1 %_1)
  br label %bb1

bb1:                                              ; preds = %start
  ret void
}

; core::ptr::drop_in_place<core::option::Option<std::ffi::c_str::CString>>
; Function Attrs: nonlazybind uwtable
define internal void @"_ZN4core3ptr73drop_in_place$LT$core..option..Option$LT$std..ffi..c_str..CString$GT$$GT$17h0220820fd9471886E"({ i8*, i64 }* %_1) unnamed_addr #0 {
start:
  %0 = bitcast { i8*, i64 }* %_1 to {}**
  %1 = load {}*, {}** %0, align 8
  %2 = icmp eq {}* %1, null
  %_2 = select i1 %2, i64 0, i64 1
  %3 = icmp eq i64 %_2, 0
  br i1 %3, label %bb1, label %bb2

bb1:                                              ; preds = %bb2, %start
  ret void

bb2:                                              ; preds = %start
; call core::ptr::drop_in_place<std::ffi::c_str::CString>
  call void @"_ZN4core3ptr45drop_in_place$LT$std..ffi..c_str..CString$GT$17h508e2a5367e0546cE"({ i8*, i64 }* %_1)
  br label %bb1
}

; core::ptr::drop_in_place<alloc::raw_vec::RawVec<std::ffi::c_str::CString>>
; Function Attrs: nonlazybind uwtable
define internal void @"_ZN4core3ptr75drop_in_place$LT$alloc..raw_vec..RawVec$LT$std..ffi..c_str..CString$GT$$GT$17h590cff7d39f9d4a1E"({ i64*, i64 }* %_1) unnamed_addr #0 {
start:
; call <alloc::raw_vec::RawVec<T,A> as core::ops::drop::Drop>::drop
  call void @"_ZN77_$LT$alloc..raw_vec..RawVec$LT$T$C$A$GT$$u20$as$u20$core..ops..drop..Drop$GT$4drop17h8ead766496d29c8bE"({ i64*, i64 }* align 8 dereferenceable(16) %_1)
  br label %bb1

bb1:                                              ; preds = %start
  ret void
}

; core::ptr::drop_in_place<core::option::Option<std::ffi::os_str::OsString>>
; Function Attrs: nonlazybind uwtable
define internal void @"_ZN4core3ptr75drop_in_place$LT$core..option..Option$LT$std..ffi..os_str..OsString$GT$$GT$17h0ee836b27546b805E"(%"core::option::Option<std::ffi::os_str::OsString>"* %_1) unnamed_addr #0 {
start:
  %0 = bitcast %"core::option::Option<std::ffi::os_str::OsString>"* %_1 to {}**
  %1 = load {}*, {}** %0, align 8
  %2 = icmp eq {}* %1, null
  %_2 = select i1 %2, i64 0, i64 1
  %3 = icmp eq i64 %_2, 0
  br i1 %3, label %bb1, label %bb2

bb1:                                              ; preds = %bb2, %start
  ret void

bb2:                                              ; preds = %start
  %4 = bitcast %"core::option::Option<std::ffi::os_str::OsString>"* %_1 to %"core::option::Option<std::ffi::os_str::OsString>::Some"*
  %5 = bitcast %"core::option::Option<std::ffi::os_str::OsString>::Some"* %4 to %"std::ffi::os_str::OsString"*
; call core::ptr::drop_in_place<std::ffi::os_str::OsString>
  call void @"_ZN4core3ptr47drop_in_place$LT$std..ffi..os_str..OsString$GT$17h5e92125e2d6cf3c0E"(%"std::ffi::os_str::OsString"* %5)
  br label %bb1
}

; core::ptr::mut_ptr::<impl *mut T>::guaranteed_eq
; Function Attrs: inlinehint nonlazybind uwtable
define internal zeroext i1 @"_ZN4core3ptr7mut_ptr31_$LT$impl$u20$$BP$mut$u20$T$GT$13guaranteed_eq17h19c9bf5f0944d823E"(i8* %self, i8* %other) unnamed_addr #1 {
start:
  %0 = alloca i8, align 1
  %1 = icmp eq i8* %self, %other
  %2 = zext i1 %1 to i8
  store i8 %2, i8* %0, align 1
  %3 = load i8, i8* %0, align 1, !range !9
  %4 = trunc i8 %3 to i1
  br label %bb1

bb1:                                              ; preds = %start
  ret i1 %4
}

; core::ptr::mut_ptr::<impl *mut T>::is_null
; Function Attrs: inlinehint nonlazybind uwtable
define internal zeroext i1 @"_ZN4core3ptr7mut_ptr31_$LT$impl$u20$$BP$mut$u20$T$GT$7is_null17h35938b1c82772645E"({ {}*, [3 x i64]* }* %self) unnamed_addr #1 {
start:
  %_2 = bitcast { {}*, [3 x i64]* }* %self to i8*
  br label %bb1

bb1:                                              ; preds = %start
; call core::ptr::mut_ptr::<impl *mut T>::guaranteed_eq
  %0 = call zeroext i1 @"_ZN4core3ptr7mut_ptr31_$LT$impl$u20$$BP$mut$u20$T$GT$13guaranteed_eq17h19c9bf5f0944d823E"(i8* %_2, i8* null)
  br label %bb2

bb2:                                              ; preds = %bb1
  ret i1 %0
}

; core::ptr::mut_ptr::<impl *mut T>::is_null
; Function Attrs: inlinehint nonlazybind uwtable
define internal zeroext i1 @"_ZN4core3ptr7mut_ptr31_$LT$impl$u20$$BP$mut$u20$T$GT$7is_null17hcbae12bbc8209857E"(i8* %self) unnamed_addr #1 {
start:
  br label %bb1

bb1:                                              ; preds = %start
; call core::ptr::mut_ptr::<impl *mut T>::guaranteed_eq
  %0 = call zeroext i1 @"_ZN4core3ptr7mut_ptr31_$LT$impl$u20$$BP$mut$u20$T$GT$13guaranteed_eq17h19c9bf5f0944d823E"(i8* %self, i8* null)
  br label %bb2

bb2:                                              ; preds = %bb1
  ret i1 %0
}

; core::ptr::mut_ptr::<impl *mut T>::is_null
; Function Attrs: inlinehint nonlazybind uwtable
define internal zeroext i1 @"_ZN4core3ptr7mut_ptr31_$LT$impl$u20$$BP$mut$u20$T$GT$7is_null17hcf202f7411056b72E"({ i8*, i64 }* %self) unnamed_addr #1 {
start:
  %_2 = bitcast { i8*, i64 }* %self to i8*
  br label %bb1

bb1:                                              ; preds = %start
; call core::ptr::mut_ptr::<impl *mut T>::guaranteed_eq
  %0 = call zeroext i1 @"_ZN4core3ptr7mut_ptr31_$LT$impl$u20$$BP$mut$u20$T$GT$13guaranteed_eq17h19c9bf5f0944d823E"(i8* %_2, i8* null)
  br label %bb2

bb2:                                              ; preds = %bb1
  ret i1 %0
}

; core::ptr::mut_ptr::<impl *mut T>::is_null
; Function Attrs: inlinehint nonlazybind uwtable
define internal zeroext i1 @"_ZN4core3ptr7mut_ptr31_$LT$impl$u20$$BP$mut$u20$T$GT$7is_null17he92ac48fb1a10a67E"(i8** %self) unnamed_addr #1 {
start:
  %_2 = bitcast i8** %self to i8*
  br label %bb1

bb1:                                              ; preds = %start
; call core::ptr::mut_ptr::<impl *mut T>::guaranteed_eq
  %0 = call zeroext i1 @"_ZN4core3ptr7mut_ptr31_$LT$impl$u20$$BP$mut$u20$T$GT$13guaranteed_eq17h19c9bf5f0944d823E"(i8* %_2, i8* null)
  br label %bb2

bb2:                                              ; preds = %bb1
  ret i1 %0
}

; core::ptr::mut_ptr::<impl *mut T>::is_null
; Function Attrs: inlinehint nonlazybind uwtable
define internal zeroext i1 @"_ZN4core3ptr7mut_ptr31_$LT$impl$u20$$BP$mut$u20$T$GT$7is_null17hefc5581b98e24a7fE"({ [0 x i8]*, i64 }* %self) unnamed_addr #1 {
start:
  %_2 = bitcast { [0 x i8]*, i64 }* %self to i8*
  br label %bb1

bb1:                                              ; preds = %start
; call core::ptr::mut_ptr::<impl *mut T>::guaranteed_eq
  %0 = call zeroext i1 @"_ZN4core3ptr7mut_ptr31_$LT$impl$u20$$BP$mut$u20$T$GT$13guaranteed_eq17h19c9bf5f0944d823E"(i8* %_2, i8* null)
  br label %bb2

bb2:                                              ; preds = %bb1
  ret i1 %0
}

; core::ptr::drop_in_place<std::rt::lang_start<()>::{{closure}}>
; Function Attrs: inlinehint nonlazybind uwtable
define internal void @"_ZN4core3ptr85drop_in_place$LT$std..rt..lang_start$LT$$LP$$RP$$GT$..$u7b$$u7b$closure$u7d$$u7d$$GT$17h31dbc2a5520f2ab6E"(i64** %_1) unnamed_addr #1 {
start:
  ret void
}

; core::ptr::drop_in_place<core::option::Option<alloc::boxed::Box<[u32]>>>
; Function Attrs: nonlazybind uwtable
define internal void @"_ZN4core3ptr87drop_in_place$LT$core..option..Option$LT$alloc..boxed..Box$LT$$u5b$u32$u5d$$GT$$GT$$GT$17hba8c0e24dc6f1c2dE"({ i32*, i64 }* %_1) unnamed_addr #0 {
start:
  %0 = bitcast { i32*, i64 }* %_1 to {}**
  %1 = load {}*, {}** %0, align 8
  %2 = icmp eq {}* %1, null
  %_2 = select i1 %2, i64 0, i64 1
  %3 = icmp eq i64 %_2, 0
  br i1 %3, label %bb1, label %bb2

bb1:                                              ; preds = %bb2, %start
  ret void

bb2:                                              ; preds = %start
  %4 = bitcast { i32*, i64 }* %_1 to { [0 x i32]*, i64 }*
; call core::ptr::drop_in_place<alloc::boxed::Box<[u32]>>
  call void @"_ZN4core3ptr59drop_in_place$LT$alloc..boxed..Box$LT$$u5b$u32$u5d$$GT$$GT$17hbed8fe1c3eb0ab55E"({ [0 x i32]*, i64 }* %4)
  br label %bb1
}

; core::ptr::metadata::from_raw_parts
; Function Attrs: inlinehint nonlazybind uwtable
define internal { [0 x i8]*, i64 } @_ZN4core3ptr8metadata14from_raw_parts17hb89a83b0ccc27790E({}* %data_address, i64 %metadata) unnamed_addr #1 {
start:
  %_4 = alloca { i8*, i64 }, align 8
  %_3 = alloca %"core::ptr::metadata::PtrRepr<[u8]>", align 8
  %0 = bitcast { i8*, i64 }* %_4 to {}**
  store {}* %data_address, {}** %0, align 8
  %1 = getelementptr inbounds { i8*, i64 }, { i8*, i64 }* %_4, i32 0, i32 1
  store i64 %metadata, i64* %1, align 8
  %2 = bitcast %"core::ptr::metadata::PtrRepr<[u8]>"* %_3 to { i8*, i64 }*
  %3 = getelementptr inbounds { i8*, i64 }, { i8*, i64 }* %_4, i32 0, i32 0
  %4 = load i8*, i8** %3, align 8
  %5 = getelementptr inbounds { i8*, i64 }, { i8*, i64 }* %_4, i32 0, i32 1
  %6 = load i64, i64* %5, align 8
  %7 = getelementptr inbounds { i8*, i64 }, { i8*, i64 }* %2, i32 0, i32 0
  store i8* %4, i8** %7, align 8
  %8 = getelementptr inbounds { i8*, i64 }, { i8*, i64 }* %2, i32 0, i32 1
  store i64 %6, i64* %8, align 8
  %9 = bitcast %"core::ptr::metadata::PtrRepr<[u8]>"* %_3 to { [0 x i8]*, i64 }*
  %10 = getelementptr inbounds { [0 x i8]*, i64 }, { [0 x i8]*, i64 }* %9, i32 0, i32 0
  %11 = load [0 x i8]*, [0 x i8]** %10, align 8
  %12 = getelementptr inbounds { [0 x i8]*, i64 }, { [0 x i8]*, i64 }* %9, i32 0, i32 1
  %13 = load i64, i64* %12, align 8
  %14 = insertvalue { [0 x i8]*, i64 } undef, [0 x i8]* %11, 0
  %15 = insertvalue { [0 x i8]*, i64 } %14, i64 %13, 1
  ret { [0 x i8]*, i64 } %15
}

; core::ptr::metadata::from_raw_parts_mut
; Function Attrs: inlinehint nonlazybind uwtable
define internal { [0 x i8*]*, i64 } @_ZN4core3ptr8metadata18from_raw_parts_mut17h3af66d3b148c3185E({}* %data_address, i64 %metadata) unnamed_addr #1 {
start:
  %_4 = alloca { i8*, i64 }, align 8
  %_3 = alloca %"core::ptr::metadata::PtrRepr<[*const i8]>", align 8
  %0 = bitcast { i8*, i64 }* %_4 to {}**
  store {}* %data_address, {}** %0, align 8
  %1 = getelementptr inbounds { i8*, i64 }, { i8*, i64 }* %_4, i32 0, i32 1
  store i64 %metadata, i64* %1, align 8
  %2 = bitcast %"core::ptr::metadata::PtrRepr<[*const i8]>"* %_3 to { i8*, i64 }*
  %3 = getelementptr inbounds { i8*, i64 }, { i8*, i64 }* %_4, i32 0, i32 0
  %4 = load i8*, i8** %3, align 8
  %5 = getelementptr inbounds { i8*, i64 }, { i8*, i64 }* %_4, i32 0, i32 1
  %6 = load i64, i64* %5, align 8
  %7 = getelementptr inbounds { i8*, i64 }, { i8*, i64 }* %2, i32 0, i32 0
  store i8* %4, i8** %7, align 8
  %8 = getelementptr inbounds { i8*, i64 }, { i8*, i64 }* %2, i32 0, i32 1
  store i64 %6, i64* %8, align 8
  %9 = bitcast %"core::ptr::metadata::PtrRepr<[*const i8]>"* %_3 to { [0 x i8*]*, i64 }*
  %10 = getelementptr inbounds { [0 x i8*]*, i64 }, { [0 x i8*]*, i64 }* %9, i32 0, i32 0
  %11 = load [0 x i8*]*, [0 x i8*]** %10, align 8
  %12 = getelementptr inbounds { [0 x i8*]*, i64 }, { [0 x i8*]*, i64 }* %9, i32 0, i32 1
  %13 = load i64, i64* %12, align 8
  %14 = insertvalue { [0 x i8*]*, i64 } undef, [0 x i8*]* %11, 0
  %15 = insertvalue { [0 x i8*]*, i64 } %14, i64 %13, 1
  ret { [0 x i8*]*, i64 } %15
}

; core::ptr::metadata::from_raw_parts_mut
; Function Attrs: inlinehint nonlazybind uwtable
define internal { [0 x i8]*, i64 } @_ZN4core3ptr8metadata18from_raw_parts_mut17h58ba3df96fb87609E({}* %data_address, i64 %metadata) unnamed_addr #1 {
start:
  %_4 = alloca { i8*, i64 }, align 8
  %_3 = alloca %"core::ptr::metadata::PtrRepr<[u8]>", align 8
  %0 = bitcast { i8*, i64 }* %_4 to {}**
  store {}* %data_address, {}** %0, align 8
  %1 = getelementptr inbounds { i8*, i64 }, { i8*, i64 }* %_4, i32 0, i32 1
  store i64 %metadata, i64* %1, align 8
  %2 = bitcast %"core::ptr::metadata::PtrRepr<[u8]>"* %_3 to { i8*, i64 }*
  %3 = getelementptr inbounds { i8*, i64 }, { i8*, i64 }* %_4, i32 0, i32 0
  %4 = load i8*, i8** %3, align 8
  %5 = getelementptr inbounds { i8*, i64 }, { i8*, i64 }* %_4, i32 0, i32 1
  %6 = load i64, i64* %5, align 8
  %7 = getelementptr inbounds { i8*, i64 }, { i8*, i64 }* %2, i32 0, i32 0
  store i8* %4, i8** %7, align 8
  %8 = getelementptr inbounds { i8*, i64 }, { i8*, i64 }* %2, i32 0, i32 1
  store i64 %6, i64* %8, align 8
  %9 = bitcast %"core::ptr::metadata::PtrRepr<[u8]>"* %_3 to { [0 x i8]*, i64 }*
  %10 = getelementptr inbounds { [0 x i8]*, i64 }, { [0 x i8]*, i64 }* %9, i32 0, i32 0
  %11 = load [0 x i8]*, [0 x i8]** %10, align 8
  %12 = getelementptr inbounds { [0 x i8]*, i64 }, { [0 x i8]*, i64 }* %9, i32 0, i32 1
  %13 = load i64, i64* %12, align 8
  %14 = insertvalue { [0 x i8]*, i64 } undef, [0 x i8]* %11, 0
  %15 = insertvalue { [0 x i8]*, i64 } %14, i64 %13, 1
  ret { [0 x i8]*, i64 } %15
}

; core::ptr::metadata::from_raw_parts_mut
; Function Attrs: inlinehint nonlazybind uwtable
define internal { [0 x { {}*, [3 x i64]* }]*, i64 } @_ZN4core3ptr8metadata18from_raw_parts_mut17h9486a661561172b8E({}* %data_address, i64 %metadata) unnamed_addr #1 {
start:
  %_4 = alloca { i8*, i64 }, align 8
