; ModuleID = 'build_script_build.6d4a633c-cgu.0'
source_filename = "build_script_build.6d4a633c-cgu.0"
target datalayout = "e-m:e-p270:32:32-p271:32:32-p272:64:64-i64:64-f80:128-n8:16:32:64-S128"
target triple = "x86_64-unknown-linux-gnu"

%"alloc::string::String" = type { %"alloc::vec::Vec<u8>" }
%"alloc::vec::Vec<u8>" = type { { i8*, i64 }, i64 }
%"core::panic::location::Location" = type { { [0 x i8]*, i64 }, i32, i32 }
%"core::iter::sources::empty::Empty<&str>" = type { %"core::marker::PhantomData<&str>" }
%"core::marker::PhantomData<&str>" = type {}
%"core::option::Option<usize>::Some" = type { [1 x i64], i64 }
%"core::ops::control_flow::ControlFlow<()>::Break" = type { [1 x i8], {} }
%"std::ffi::os_str::OsStr" = type { %"std::sys::unix::os_str::Slice" }
%"std::sys::unix::os_str::Slice" = type { [0 x i8] }
%"std::ffi::os_str::OsString" = type { %"std::sys::unix::os_str::Buf" }
%"std::sys::unix::os_str::Buf" = type { %"alloc::vec::Vec<u8>" }
%"alloc::collections::btree::map::IntoIter<std::ffi::os_str::OsString, core::option::Option<std::ffi::os_str::OsString>>" = type { %"alloc::collections::btree::navigate::LazyLeafRange<alloc::collections::btree::node::marker::Dying, std::ffi::os_str::OsString, core::option::Option<std::ffi::os_str::OsString>>", i64 }
%"alloc::collections::btree::navigate::LazyLeafRange<alloc::collections::btree::node::marker::Dying, std::ffi::os_str::OsString, core::option::Option<std::ffi::os_str::OsString>>" = type { %"core::option::Option<alloc::collections::btree::navigate::LazyLeafHandle<alloc::collections::btree::node::marker::Dying, std::ffi::os_str::OsString, core::option::Option<std::ffi::os_str::OsString>>>", %"core::option::Option<alloc::collections::btree::navigate::LazyLeafHandle<alloc::collections::btree::node::marker::Dying, std::ffi::os_str::OsString, core::option::Option<std::ffi::os_str::OsString>>>" }
%"core::option::Option<alloc::collections::btree::navigate::LazyLeafHandle<alloc::collections::btree::node::marker::Dying, std::ffi::os_str::OsString, core::option::Option<std::ffi::os_str::OsString>>>" = type { i64, [3 x i64] }
%"alloc::collections::btree::map::BTreeMap<std::ffi::os_str::OsString, core::option::Option<std::ffi::os_str::OsString>>" = type { { i64, i64* }, i64 }
%"core::mem::manually_drop::ManuallyDrop<alloc::collections::btree::map::BTreeMap<std::ffi::os_str::OsString, core::option::Option<std::ffi::os_str::OsString>>>" = type { %"alloc::collections::btree::map::BTreeMap<std::ffi::os_str::OsString, core::option::Option<std::ffi::os_str::OsString>>" }
%"core::result::Result<(), usize>::Err" = type { [1 x i64], i64 }
%"alloc::collections::btree::node::Handle<alloc::collections::btree::node::NodeRef<alloc::collections::btree::node::marker::Dying, std::ffi::os_str::OsString, core::option::Option<std::ffi::os_str::OsString>, alloc::collections::btree::node::marker::LeafOrInternal>, alloc::collections::btree::node::marker::KV>" = type { %"core::marker::PhantomData<alloc::collections::btree::node::marker::KV>", { i64, i64* }, i64 }
%"core::marker::PhantomData<alloc::collections::btree::node::marker::KV>" = type {}
%"core::option::Option<alloc::collections::btree::node::Handle<alloc::collections::btree::node::NodeRef<alloc::collections::btree::node::marker::Dying, std::ffi::os_str::OsString, core::option::Option<std::ffi::os_str::OsString>, alloc::collections::btree::node::marker::LeafOrInternal>, alloc::collections::btree::node::marker::KV>>" = type { [1 x i64], {}*, [1 x i64] }
%"core::option::Option<alloc::collections::btree::node::Handle<alloc::collections::btree::node::NodeRef<alloc::collections::btree::node::marker::Dying, std::ffi::os_str::OsString, core::option::Option<std::ffi::os_str::OsString>, alloc::collections::btree::node::marker::LeafOrInternal>, alloc::collections::btree::node::marker::KV>>::Some" = type { %"alloc::collections::btree::node::Handle<alloc::collections::btree::node::NodeRef<alloc::collections::btree::node::marker::Dying, std::ffi::os_str::OsString, core::option::Option<std::ffi::os_str::OsString>, alloc::collections::btree::node::marker::LeafOrInternal>, alloc::collections::btree::node::marker::KV>" }
%"core::result::Result<alloc::string::String, std::env::VarError>" = type { i64, [3 x i64] }
%"core::option::Option<std::ffi::os_str::OsString>" = type { {}*, [2 x i64] }
%"alloc::borrow::Cow<str>" = type { i64, [3 x i64] }
%"std::process::Command" = type { %"std::sys::unix::process::process_common::Command" }
%"std::sys::unix::process::process_common::Command" = type { { i8*, i64 }, %"alloc::vec::Vec<std::ffi::c_str::CString>", %"std::sys::unix::process::process_common::Argv", %"std::sys_common::process::CommandEnv", { i8*, i64 }, %"alloc::vec::Vec<alloc::boxed::Box<dyn core::ops::function::FnMut() -> core::result::Result<(), std::io::error::Error> + core::marker::Send + core::marker::Sync>>", { i32*, i64 }, { i32, i32 }, { i32, i32 }, { i32, i32 }, { i32, i32 }, { i32, i32 }, i8, i8, [6 x i8] }
%"alloc::vec::Vec<std::ffi::c_str::CString>" = type { { i64*, i64 }, i64 }
%"std::sys::unix::process::process_common::Argv" = type { %"alloc::vec::Vec<*const i8>" }
%"alloc::vec::Vec<*const i8>" = type { { i64*, i64 }, i64 }
%"std::sys_common::process::CommandEnv" = type { %"alloc::collections::btree::map::BTreeMap<std::ffi::os_str::OsString, core::option::Option<std::ffi::os_str::OsString>>", i8, i8, [6 x i8] }
%"alloc::vec::Vec<alloc::boxed::Box<dyn core::ops::function::FnMut() -> core::result::Result<(), std::io::error::Error> + core::marker::Send + core::marker::Sync>>" = type { { i64*, i64 }, i64 }
%"core::fmt::Formatter" = type { { i64, i64 }, { i64, i64 }, { {}*, [3 x i64]* }, i32, i32, i8, [7 x i8] }
%"core::fmt::Opaque" = type {}
%"core::fmt::Arguments" = type { { [0 x { [0 x i8]*, i64 }]*, i64 }, { i64*, i64 }, { [0 x { i8*, i64* }]*, i64 } }
%"core::mem::maybe_uninit::MaybeUninit<core::option::Option<std::ffi::os_str::OsString>>" = type { [3 x i64] }
%"core::mem::maybe_uninit::MaybeUninit<std::ffi::os_str::OsString>" = type { [3 x i64] }
%"core::mem::manually_drop::ManuallyDrop<alloc::collections::btree::mem::replace::PanicGuard>" = type { %"alloc::collections::btree::mem::replace::PanicGuard" }
%"alloc::collections::btree::mem::replace::PanicGuard" = type {}
%"std::env::VarError" = type { {}*, [2 x i64] }
%"std::env::VarError::NotUnicode" = type { %"std::ffi::os_str::OsString" }
%"std::io::error::Repr" = type { i8, [15 x i8] }
%"std::io::error::Repr::Custom" = type { [1 x i64], %"std::io::error::Custom"* }
%"std::io::error::Custom" = type { { {}*, [3 x i64]* }, i8, [7 x i8] }
%"std::process::Output" = type { %"alloc::vec::Vec<u8>", %"alloc::vec::Vec<u8>", i32, [1 x i32] }
%"std::io::error::Error" = type { %"std::io::error::Repr" }
%"core::mem::maybe_uninit::MaybeUninit<alloc::collections::btree::map::BTreeMap<std::ffi::os_str::OsString, core::option::Option<std::ffi::os_str::OsString>>>" = type { [3 x i64] }
%"core::mem::manually_drop::ManuallyDrop<core::option::Option<alloc::collections::btree::navigate::LazyLeafHandle<alloc::collections::btree::node::marker::Dying, std::ffi::os_str::OsString, core::option::Option<std::ffi::os_str::OsString>>>>" = type { %"core::option::Option<alloc::collections::btree::navigate::LazyLeafHandle<alloc::collections::btree::node::marker::Dying, std::ffi::os_str::OsString, core::option::Option<std::ffi::os_str::OsString>>>" }
%"core::mem::maybe_uninit::MaybeUninit<core::option::Option<alloc::collections::btree::navigate::LazyLeafHandle<alloc::collections::btree::node::marker::Dying, std::ffi::os_str::OsString, core::option::Option<std::ffi::os_str::OsString>>>>" = type { [4 x i64] }
%"alloc::collections::btree::node::Handle<alloc::collections::btree::node::NodeRef<alloc::collections::btree::node::marker::Dying, std::ffi::os_str::OsString, core::option::Option<std::ffi::os_str::OsString>, alloc::collections::btree::node::marker::Leaf>, alloc::collections::btree::node::marker::Edge>" = type { %"core::marker::PhantomData<alloc::collections::btree::node::marker::Edge>", { i64, i64* }, i64 }
%"core::marker::PhantomData<alloc::collections::btree::node::marker::Edge>" = type {}
%"core::mem::manually_drop::ManuallyDrop<alloc::collections::btree::node::Handle<alloc::collections::btree::node::NodeRef<alloc::collections::btree::node::marker::Dying, std::ffi::os_str::OsString, core::option::Option<std::ffi::os_str::OsString>, alloc::collections::btree::node::marker::Leaf>, alloc::collections::btree::node::marker::Edge>>" = type { %"alloc::collections::btree::node::Handle<alloc::collections::btree::node::NodeRef<alloc::collections::btree::node::marker::Dying, std::ffi::os_str::OsString, core::option::Option<std::ffi::os_str::OsString>, alloc::collections::btree::node::marker::Leaf>, alloc::collections::btree::node::marker::Edge>" }
%"core::mem::maybe_uninit::MaybeUninit<alloc::collections::btree::node::Handle<alloc::collections::btree::node::NodeRef<alloc::collections::btree::node::marker::Dying, std::ffi::os_str::OsString, core::option::Option<std::ffi::os_str::OsString>, alloc::collections::btree::node::marker::Leaf>, alloc::collections::btree::node::marker::Edge>>" = type { [3 x i64] }
%"core::mem::manually_drop::ManuallyDrop<alloc::collections::btree::node::Handle<alloc::collections::btree::node::NodeRef<alloc::collections::btree::node::marker::Dying, std::ffi::os_str::OsString, core::option::Option<std::ffi::os_str::OsString>, alloc::collections::btree::node::marker::LeafOrInternal>, alloc::collections::btree::node::marker::KV>>" = type { %"alloc::collections::btree::node::Handle<alloc::collections::btree::node::NodeRef<alloc::collections::btree::node::marker::Dying, std::ffi::os_str::OsString, core::option::Option<std::ffi::os_str::OsString>, alloc::collections::btree::node::marker::LeafOrInternal>, alloc::collections::btree::node::marker::KV>" }
%"core::mem::maybe_uninit::MaybeUninit<alloc::collections::btree::node::Handle<alloc::collections::btree::node::NodeRef<alloc::collections::btree::node::marker::Dying, std::ffi::os_str::OsString, core::option::Option<std::ffi::os_str::OsString>, alloc::collections::btree::node::marker::LeafOrInternal>, alloc::collections::btree::node::marker::KV>>" = type { [3 x i64] }
%"alloc::borrow::Cow<str>::Owned" = type { [1 x i64], %"alloc::string::String" }
%"core::str::iter::Split<char>" = type { %"core::str::iter::SplitInternal<char>" }
%"core::str::iter::SplitInternal<char>" = type { i64, i64, %"core::str::pattern::CharSearcher", i8, i8, [6 x i8] }
%"core::str::pattern::CharSearcher" = type { { [0 x i8]*, i64 }, i64, i64, i64, i32, [4 x i8] }
%"std::sys::unix::process::process_common::Stdio::Fd" = type { [1 x i32], i32 }
%"core::option::Option<std::ffi::os_str::OsString>::Some" = type { %"std::ffi::os_str::OsString" }
%"core::ptr::metadata::PtrRepr<[u8]>" = type { [2 x i64] }
%"core::ptr::metadata::PtrRepr<[alloc::boxed::Box<dyn core::ops::function::FnMut() -> core::result::Result<(), std::io::error::Error> + core::marker::Send + core::marker::Sync>]>" = type { [2 x i64] }
%"core::ptr::metadata::PtrRepr<[*const i8]>" = type { [2 x i64] }
%"core::ptr::metadata::PtrRepr<[std::ffi::c_str::CString]>" = type { [2 x i64] }
%"alloc::collections::btree::node::LeafNode<std::ffi::os_str::OsString, core::option::Option<std::ffi::os_str::OsString>>" = type { i64*, [11 x %"core::mem::maybe_uninit::MaybeUninit<std::ffi::os_str::OsString>"], [11 x %"core::mem::maybe_uninit::MaybeUninit<core::option::Option<std::ffi::os_str::OsString>>"], i16, i16, [2 x i16] }
%"alloc::collections::btree::node::InternalNode<std::ffi::os_str::OsString, core::option::Option<std::ffi::os_str::OsString>>" = type { %"alloc::collections::btree::node::LeafNode<std::ffi::os_str::OsString, core::option::Option<std::ffi::os_str::OsString>>", [12 x i8*] }
%"core::result::Result<std::process::Output, std::io::error::Error>" = type { i64, [7 x i64] }
%"core::result::Result<std::process::Output, std::io::error::Error>::Ok" = type { [1 x i64], %"std::process::Output" }
%"core::result::Result<std::process::Output, std::io::error::Error>::Err" = type { [1 x i64], %"std::io::error::Error" }
%"core::option::Option<u32>::Some" = type { [1 x i32], i32 }
%"core::result::Result<u32, core::num::error::ParseIntError>" = type { i8, [7 x i8] }
%"core::option::Option<(usize, usize)>" = type { i64, [2 x i64] }
%"core::option::Option<(usize, usize)>::Some" = type { [1 x i64], { i64, i64 } }
%"core::str::pattern::TwoWaySearcher" = type { i64, i64, i64, i64, i64, i64, i64, i64 }
%"core::str::pattern::SearchStep" = type { i64, [2 x i64] }
%"core::str::pattern::StrSearcher" = type { { [0 x i8]*, i64 }, { [0 x i8]*, i64 }, %"core::str::pattern::StrSearcherImpl" }
%"core::str::pattern::StrSearcherImpl" = type { i64, [8 x i64] }
%"core::result::Result<&str, usize>" = type { i64, [2 x i64] }
%"core::ops::control_flow::ControlFlow<core::result::Result<core::convert::Infallible, usize>, &str>" = type { i64, [2 x i64] }
%"core::ops::control_flow::ControlFlow<core::result::Result<core::convert::Infallible, usize>, &str>::Continue" = type { [1 x i64], { [0 x i8]*, i64 } }
%"core::ops::control_flow::ControlFlow<core::result::Result<core::convert::Infallible, usize>, &str>::Break" = type { [1 x i64], i64 }
%"core::option::Option<alloc::collections::btree::node::Handle<alloc::collections::btree::node::NodeRef<alloc::collections::btree::node::marker::Dying, std::ffi::os_str::OsString, core::option::Option<std::ffi::os_str::OsString>, alloc::collections::btree::node::marker::Internal>, alloc::collections::btree::node::marker::Edge>>" = type { [1 x i64], {}*, [1 x i64] }
%"alloc::collections::btree::node::Handle<alloc::collections::btree::node::NodeRef<alloc::collections::btree::node::marker::Dying, std::ffi::os_str::OsString, core::option::Option<std::ffi::os_str::OsString>, alloc::collections::btree::node::marker::Internal>, alloc::collections::btree::node::marker::Edge>" = type { %"core::marker::PhantomData<alloc::collections::btree::node::marker::Edge>", { i64, i64* }, i64 }
%"core::option::Option<alloc::collections::btree::node::Handle<alloc::collections::btree::node::NodeRef<alloc::collections::btree::node::marker::Dying, std::ffi::os_str::OsString, core::option::Option<std::ffi::os_str::OsString>, alloc::collections::btree::node::marker::Internal>, alloc::collections::btree::node::marker::Edge>>::Some" = type { %"alloc::collections::btree::node::Handle<alloc::collections::btree::node::NodeRef<alloc::collections::btree::node::marker::Dying, std::ffi::os_str::OsString, core::option::Option<std::ffi::os_str::OsString>, alloc::collections::btree::node::marker::Internal>, alloc::collections::btree::node::marker::Edge>" }
%"core::result::Result<&str, usize>::Err" = type { [1 x i64], i64 }
%"core::result::Result<&str, usize>::Ok" = type { [1 x i64], { [0 x i8]*, i64 } }
%"core::result::Result<alloc::collections::btree::node::Handle<alloc::collections::btree::node::NodeRef<alloc::collections::btree::node::marker::Dying, std::ffi::os_str::OsString, core::option::Option<std::ffi::os_str::OsString>, alloc::collections::btree::node::marker::Internal>, alloc::collections::btree::node::marker::Edge>, alloc::collections::btree::node::NodeRef<alloc::collections::btree::node::marker::Dying, std::ffi::os_str::OsString, core::option::Option<std::ffi::os_str::OsString>, alloc::collections::btree::node::marker::LeafOrInternal>>" = type { i64, [3 x i64] }
%"core::result::Result<alloc::collections::btree::node::Handle<alloc::collections::btree::node::NodeRef<alloc::collections::btree::node::marker::Dying, std::ffi::os_str::OsString, core::option::Option<std::ffi::os_str::OsString>, alloc::collections::btree::node::marker::Internal>, alloc::collections::btree::node::marker::Edge>, alloc::collections::btree::node::NodeRef<alloc::collections::btree::node::marker::Dying, std::ffi::os_str::OsString, core::option::Option<std::ffi::os_str::OsString>, alloc::collections::btree::node::marker::LeafOrInternal>>::Err" = type { [1 x i64], { i64, i64* } }
%"core::result::Result<alloc::collections::btree::node::Handle<alloc::collections::btree::node::NodeRef<alloc::collections::btree::node::marker::Dying, std::ffi::os_str::OsString, core::option::Option<std::ffi::os_str::OsString>, alloc::collections::btree::node::marker::Internal>, alloc::collections::btree::node::marker::Edge>, alloc::collections::btree::node::NodeRef<alloc::collections::btree::node::marker::Dying, std::ffi::os_str::OsString, core::option::Option<std::ffi::os_str::OsString>, alloc::collections::btree::node::marker::LeafOrInternal>>::Ok" = type { [1 x i64], %"alloc::collections::btree::node::Handle<alloc::collections::btree::node::NodeRef<alloc::collections::btree::node::marker::Dying, std::ffi::os_str::OsString, core::option::Option<std::ffi::os_str::OsString>, alloc::collections::btree::node::marker::Internal>, alloc::collections::btree::node::marker::Edge>" }
%"core::option::Option<(alloc::collections::btree::node::Handle<alloc::collections::btree::node::NodeRef<alloc::collections::btree::node::marker::Dying, std::ffi::os_str::OsString, core::option::Option<std::ffi::os_str::OsString>, alloc::collections::btree::node::marker::Leaf>, alloc::collections::btree::node::marker::Edge>, alloc::collections::btree::node::Handle<alloc::collections::btree::node::NodeRef<alloc::collections::btree::node::marker::Dying, std::ffi::os_str::OsString, core::option::Option<std::ffi::os_str::OsString>, alloc::collections::btree::node::marker::LeafOrInternal>, alloc::collections::btree::node::marker::KV>)>" = type { [1 x i64], {}*, [4 x i64] }
%"core::option::Option<(alloc::collections::btree::node::Handle<alloc::collections::btree::node::NodeRef<alloc::collections::btree::node::marker::Dying, std::ffi::os_str::OsString, core::option::Option<std::ffi::os_str::OsString>, alloc::collections::btree::node::marker::Leaf>, alloc::collections::btree::node::marker::Edge>, alloc::collections::btree::node::Handle<alloc::collections::btree::node::NodeRef<alloc::collections::btree::node::marker::Dying, std::ffi::os_str::OsString, core::option::Option<std::ffi::os_str::OsString>, alloc::collections::btree::node::marker::LeafOrInternal>, alloc::collections::btree::node::marker::KV>)>::Some" = type { { %"alloc::collections::btree::node::Handle<alloc::collections::btree::node::NodeRef<alloc::collections::btree::node::marker::Dying, std::ffi::os_str::OsString, core::option::Option<std::ffi::os_str::OsString>, alloc::collections::btree::node::marker::Leaf>, alloc::collections::btree::node::marker::Edge>", %"alloc::collections::btree::node::Handle<alloc::collections::btree::node::NodeRef<alloc::collections::btree::node::marker::Dying, std::ffi::os_str::OsString, core::option::Option<std::ffi::os_str::OsString>, alloc::collections::btree::node::marker::LeafOrInternal>, alloc::collections::btree::node::marker::KV>" } }
%"core::result::Result<&str, core::str::error::Utf8Error>" = type { i64, [2 x i64] }
%"core::result::Result<&str, core::str::error::Utf8Error>::Ok" = type { [1 x i64], { [0 x i8]*, i64 } }
%"core::option::Option<()>::Some" = type { [1 x i8], {} }
%"core::result::Result<u32, core::num::error::ParseIntError>::Ok" = type { [1 x i32], i32 }
%"core::option::Option<std::process::Output>" = type { {}*, [6 x i64] }
%"core::option::Option<std::process::Output>::Some" = type { %"std::process::Output" }
%"core::result::Result<alloc::string::String, std::env::VarError>::Ok" = type { [1 x i64], %"alloc::string::String" }
%"core::result::Result<alloc::string::String, std::env::VarError>::Err" = type { [1 x i64], %"std::env::VarError" }
%"alloc::alloc::Global" = type {}
%"alloc::collections::btree::node::Handle<alloc::collections::btree::node::NodeRef<alloc::collections::btree::node::marker::Dying, std::ffi::os_str::OsString, core::option::Option<std::ffi::os_str::OsString>, alloc::collections::btree::node::marker::Internal>, alloc::collections::btree::node::marker::KV>" = type { %"core::marker::PhantomData<alloc::collections::btree::node::marker::KV>", { i64, i64* }, i64 }
%"alloc::collections::btree::node::Handle<alloc::collections::btree::node::NodeRef<alloc::collections::btree::node::marker::Dying, std::ffi::os_str::OsString, core::option::Option<std::ffi::os_str::OsString>, alloc::collections::btree::node::marker::Leaf>, alloc::collections::btree::node::marker::KV>" = type { %"core::marker::PhantomData<alloc::collections::btree::node::marker::KV>", { i64, i64* }, i64 }
%"alloc::collections::btree::node::Handle<alloc::collections::btree::node::NodeRef<alloc::collections::btree::node::marker::Dying, std::ffi::os_str::OsString, core::option::Option<std::ffi::os_str::OsString>, alloc::collections::btree::node::marker::LeafOrInternal>, alloc::collections::btree::node::marker::Edge>" = type { %"core::marker::PhantomData<alloc::collections::btree::node::marker::Edge>", { i64, i64* }, i64 }
%"core::result::Result<alloc::collections::btree::node::Handle<alloc::collections::btree::node::NodeRef<alloc::collections::btree::node::marker::Dying, std::ffi::os_str::OsString, core::option::Option<std::ffi::os_str::OsString>, alloc::collections::btree::node::marker::LeafOrInternal>, alloc::collections::btree::node::marker::KV>, alloc::collections::btree::node::Handle<alloc::collections::btree::node::NodeRef<alloc::collections::btree::node::marker::Dying, std::ffi::os_str::OsString, core::option::Option<std::ffi::os_str::OsString>, alloc::collections::btree::node::marker::LeafOrInternal>, alloc::collections::btree::node::marker::Edge>>" = type { i64, [3 x i64] }
%"core::result::Result<alloc::collections::btree::node::Handle<alloc::collections::btree::node::NodeRef<alloc::collections::btree::node::marker::Dying, std::ffi::os_str::OsString, core::option::Option<std::ffi::os_str::OsString>, alloc::collections::btree::node::marker::LeafOrInternal>, alloc::collections::btree::node::marker::KV>, alloc::collections::btree::node::Handle<alloc::collections::btree::node::NodeRef<alloc::collections::btree::node::marker::Dying, std::ffi::os_str::OsString, core::option::Option<std::ffi::os_str::OsString>, alloc::collections::btree::node::marker::LeafOrInternal>, alloc::collections::btree::node::marker::Edge>>::Err" = type { [1 x i64], %"alloc::collections::btree::node::Handle<alloc::collections::btree::node::NodeRef<alloc::collections::btree::node::marker::Dying, std::ffi::os_str::OsString, core::option::Option<std::ffi::os_str::OsString>, alloc::collections::btree::node::marker::LeafOrInternal>, alloc::collections::btree::node::marker::Edge>" }
%"core::result::Result<alloc::collections::btree::node::Handle<alloc::collections::btree::node::NodeRef<alloc::collections::btree::node::marker::Dying, std::ffi::os_str::OsString, core::option::Option<std::ffi::os_str::OsString>, alloc::collections::btree::node::marker::LeafOrInternal>, alloc::collections::btree::node::marker::KV>, alloc::collections::btree::node::Handle<alloc::collections::btree::node::NodeRef<alloc::collections::btree::node::marker::Dying, std::ffi::os_str::OsString, core::option::Option<std::ffi::os_str::OsString>, alloc::collections::btree::node::marker::LeafOrInternal>, alloc::collections::btree::node::marker::Edge>>::Ok" = type { [1 x i64], %"alloc::collections::btree::node::Handle<alloc::collections::btree::node::NodeRef<alloc::collections::btree::node::marker::Dying, std::ffi::os_str::OsString, core::option::Option<std::ffi::os_str::OsString>, alloc::collections::btree::node::marker::LeafOrInternal>, alloc::collections::btree::node::marker::KV>" }
%"alloc::collections::btree::node::ForceResult<alloc::collections::btree::node::Handle<alloc::collections::btree::node::NodeRef<alloc::collections::btree::node::marker::Dying, std::ffi::os_str::OsString, core::option::Option<std::ffi::os_str::OsString>, alloc::collections::btree::node::marker::Leaf>, alloc::collections::btree::node::marker::KV>, alloc::collections::btree::node::Handle<alloc::collections::btree::node::NodeRef<alloc::collections::btree::node::marker::Dying, std::ffi::os_str::OsString, core::option::Option<std::ffi::os_str::OsString>, alloc::collections::btree::node::marker::Internal>, alloc::collections::btree::node::marker::KV>>" = type { i64, [3 x i64] }
%"alloc::collections::btree::node::ForceResult<alloc::collections::btree::node::NodeRef<alloc::collections::btree::node::marker::Dying, std::ffi::os_str::OsString, core::option::Option<std::ffi::os_str::OsString>, alloc::collections::btree::node::marker::Leaf>, alloc::collections::btree::node::NodeRef<alloc::collections::btree::node::marker::Dying, std::ffi::os_str::OsString, core::option::Option<std::ffi::os_str::OsString>, alloc::collections::btree::node::marker::Internal>>" = type { i64, [2 x i64] }
%"alloc::collections::btree::node::ForceResult<alloc::collections::btree::node::NodeRef<alloc::collections::btree::node::marker::Dying, std::ffi::os_str::OsString, core::option::Option<std::ffi::os_str::OsString>, alloc::collections::btree::node::marker::Leaf>, alloc::collections::btree::node::NodeRef<alloc::collections::btree::node::marker::Dying, std::ffi::os_str::OsString, core::option::Option<std::ffi::os_str::OsString>, alloc::collections::btree::node::marker::Internal>>::Leaf" = type { [1 x i64], { i64, i64* } }
%"alloc::collections::btree::node::ForceResult<alloc::collections::btree::node::Handle<alloc::collections::btree::node::NodeRef<alloc::collections::btree::node::marker::Dying, std::ffi::os_str::OsString, core::option::Option<std::ffi::os_str::OsString>, alloc::collections::btree::node::marker::Leaf>, alloc::collections::btree::node::marker::KV>, alloc::collections::btree::node::Handle<alloc::collections::btree::node::NodeRef<alloc::collections::btree::node::marker::Dying, std::ffi::os_str::OsString, core::option::Option<std::ffi::os_str::OsString>, alloc::collections::btree::node::marker::Internal>, alloc::collections::btree::node::marker::KV>>::Leaf" = type { [1 x i64], %"alloc::collections::btree::node::Handle<alloc::collections::btree::node::NodeRef<alloc::collections::btree::node::marker::Dying, std::ffi::os_str::OsString, core::option::Option<std::ffi::os_str::OsString>, alloc::collections::btree::node::marker::Leaf>, alloc::collections::btree::node::marker::KV>" }
%"alloc::collections::btree::node::ForceResult<alloc::collections::btree::node::NodeRef<alloc::collections::btree::node::marker::Dying, std::ffi::os_str::OsString, core::option::Option<std::ffi::os_str::OsString>, alloc::collections::btree::node::marker::Leaf>, alloc::collections::btree::node::NodeRef<alloc::collections::btree::node::marker::Dying, std::ffi::os_str::OsString, core::option::Option<std::ffi::os_str::OsString>, alloc::collections::btree::node::marker::Internal>>::Internal" = type { [1 x i64], { i64, i64* } }
%"alloc::collections::btree::node::ForceResult<alloc::collections::btree::node::Handle<alloc::collections::btree::node::NodeRef<alloc::collections::btree::node::marker::Dying, std::ffi::os_str::OsString, core::option::Option<std::ffi::os_str::OsString>, alloc::collections::btree::node::marker::Leaf>, alloc::collections::btree::node::marker::KV>, alloc::collections::btree::node::Handle<alloc::collections::btree::node::NodeRef<alloc::collections::btree::node::marker::Dying, std::ffi::os_str::OsString, core::option::Option<std::ffi::os_str::OsString>, alloc::collections::btree::node::marker::Internal>, alloc::collections::btree::node::marker::KV>>::Internal" = type { [1 x i64], %"alloc::collections::btree::node::Handle<alloc::collections::btree::node::NodeRef<alloc::collections::btree::node::marker::Dying, std::ffi::os_str::OsString, core::option::Option<std::ffi::os_str::OsString>, alloc::collections::btree::node::marker::Internal>, alloc::collections::btree::node::marker::KV>" }
%"alloc::collections::btree::navigate::LazyLeafHandle<alloc::collections::btree::node::marker::Dying, std::ffi::os_str::OsString, core::option::Option<std::ffi::os_str::OsString>>" = type { i64, [3 x i64] }
%"alloc::collections::btree::navigate::LazyLeafHandle<alloc::collections::btree::node::marker::Dying, std::ffi::os_str::OsString, core::option::Option<std::ffi::os_str::OsString>>::Root" = type { [1 x i64], { i64, i64* } }
%"core::option::Option<alloc::collections::btree::navigate::LazyLeafHandle<alloc::collections::btree::node::marker::Dying, std::ffi::os_str::OsString, core::option::Option<std::ffi::os_str::OsString>>>::Some" = type { %"alloc::collections::btree::navigate::LazyLeafHandle<alloc::collections::btree::node::marker::Dying, std::ffi::os_str::OsString, core::option::Option<std::ffi::os_str::OsString>>" }
%"alloc::collections::btree::navigate::LazyLeafHandle<alloc::collections::btree::node::marker::Dying, std::ffi::os_str::OsString, core::option::Option<std::ffi::os_str::OsString>>::Edge" = type { [1 x i64], %"alloc::collections::btree::node::Handle<alloc::collections::btree::node::NodeRef<alloc::collections::btree::node::marker::Dying, std::ffi::os_str::OsString, core::option::Option<std::ffi::os_str::OsString>, alloc::collections::btree::node::marker::Leaf>, alloc::collections::btree::node::marker::Edge>" }
%"core::option::Option<alloc::collections::btree::node::Handle<alloc::collections::btree::node::NodeRef<alloc::collections::btree::node::marker::Dying, std::ffi::os_str::OsString, core::option::Option<std::ffi::os_str::OsString>, alloc::collections::btree::node::marker::Leaf>, alloc::collections::btree::node::marker::Edge>>" = type { [1 x i64], {}*, [1 x i64] }
%"core::ops::control_flow::ControlFlow<core::option::Option<core::convert::Infallible>, alloc::collections::btree::navigate::LazyLeafHandle<alloc::collections::btree::node::marker::Dying, std::ffi::os_str::OsString, core::option::Option<std::ffi::os_str::OsString>>>" = type { i64, [3 x i64] }
%"core::ops::control_flow::ControlFlow<core::option::Option<core::convert::Infallible>, alloc::collections::btree::navigate::LazyLeafHandle<alloc::collections::btree::node::marker::Dying, std::ffi::os_str::OsString, core::option::Option<std::ffi::os_str::OsString>>>::Continue" = type { %"alloc::collections::btree::navigate::LazyLeafHandle<alloc::collections::btree::node::marker::Dying, std::ffi::os_str::OsString, core::option::Option<std::ffi::os_str::OsString>>" }
%"core::option::Option<alloc::collections::btree::node::Handle<alloc::collections::btree::node::NodeRef<alloc::collections::btree::node::marker::Dying, std::ffi::os_str::OsString, core::option::Option<std::ffi::os_str::OsString>, alloc::collections::btree::node::marker::Leaf>, alloc::collections::btree::node::marker::Edge>>::Some" = type { %"alloc::collections::btree::node::Handle<alloc::collections::btree::node::NodeRef<alloc::collections::btree::node::marker::Dying, std::ffi::os_str::OsString, core::option::Option<std::ffi::os_str::OsString>, alloc::collections::btree::node::marker::Leaf>, alloc::collections::btree::node::marker::Edge>" }
%"core::option::Option<(core::ptr::non_null::NonNull<u8>, core::alloc::layout::Layout)>" = type { {}*, [2 x i64] }
%"core::option::Option<(core::ptr::non_null::NonNull<u8>, core::alloc::layout::Layout)>::Some" = type { { i8*, { i64, i64 } } }
%"alloc::borrow::Cow<str>::Borrowed" = type { [1 x i64], { [0 x i8]*, i64 } }
%"core::ops::control_flow::ControlFlow<core::option::Option<core::convert::Infallible>, std::process::Output>" = type { {}*, [6 x i64] }
%"core::ops::control_flow::ControlFlow<core::option::Option<core::convert::Infallible>, std::process::Output>::Continue" = type { %"std::process::Output" }
%"core::ops::control_flow::ControlFlow<core::option::Option<core::convert::Infallible>, u32>::Continue" = type { [1 x i32], i32 }
%"core::ops::control_flow::ControlFlow<core::option::Option<core::convert::Infallible>, std::ffi::os_str::OsString>" = type { {}*, [2 x i64] }
%"core::ops::control_flow::ControlFlow<core::option::Option<core::convert::Infallible>, std::ffi::os_str::OsString>::Continue" = type { %"std::ffi::os_str::OsString" }
%"core::ops::control_flow::ControlFlow<core::option::Option<core::convert::Infallible>>::Continue" = type { [1 x i8], {} }
%"core::str::pattern::StrSearcherImpl::TwoWay" = type { [1 x i64], %"core::str::pattern::TwoWaySearcher" }
%"core::str::pattern::SearchStep::Match" = type { [1 x i64], i64, i64 }
%"core::str::pattern::StrSearcherImpl::Empty" = type { [1 x i64], %"core::str::pattern::EmptyNeedle" }
%"core::str::pattern::EmptyNeedle" = type { i64, i64, i8, i8, i8, [5 x i8] }
%"core::str::pattern::SearchStep::Reject" = type { [1 x i64], i64, i64 }
%"core::ops::control_flow::ControlFlow<()>::Continue" = type { [1 x i8], {} }
%"core::ops::control_flow::ControlFlow<(), core::convert::Infallible>::Break" = type { {} }
%"core::ops::control_flow::ControlFlow<core::ops::control_flow::ControlFlow<(), core::convert::Infallible>>::Continue" = type { [1 x i8], {} }
%"core::ops::control_flow::ControlFlow<core::ops::control_flow::ControlFlow<(), core::convert::Infallible>>::Break" = type { [1 x i8], %"core::ops::control_flow::ControlFlow<(), core::convert::Infallible>::Break" }
%"unwind::libunwind::_Unwind_Exception" = type { i64, void (i32, %"unwind::libunwind::_Unwind_Exception"*)*, [6 x i64] }
%"unwind::libunwind::_Unwind_Context" = type { [0 x i8] }

@vtable.0 = private unnamed_addr constant <{ i8*, [16 x i8], i8*, i8*, i8*, [0 x i8] }> <{ i8* bitcast (void (i64**)* @"_ZN4core3ptr85drop_in_place$LT$std..rt..lang_start$LT$$LP$$RP$$GT$..$u7b$$u7b$closure$u7d$$u7d$$GT$17hcec8cb2acaddc71bE" to i8*), [16 x i8] c"\08\00\00\00\00\00\00\00\08\00\00\00\00\00\00\00", i8* bitcast (i32 (i64**)* @"_ZN4core3ops8function6FnOnce40call_once$u7b$$u7b$vtable.shim$u7d$$u7d$17hb23a15917a73a376E" to i8*), i8* bitcast (i32 (i64**)* @"_ZN3std2rt10lang_start28_$u7b$$u7b$closure$u7d$$u7d$17h3dc3ce69baacdd32E" to i8*), i8* bitcast (i32 (i64**)* @"_ZN3std2rt10lang_start28_$u7b$$u7b$closure$u7d$$u7d$17h3dc3ce69baacdd32E" to i8*), [0 x i8] zeroinitializer }>, align 8
@alloc166 = private unnamed_addr constant <{ [12 x i8] }> <{ [12 x i8] c"invalid args" }>, align 1
@alloc167 = private unnamed_addr constant <{ [75 x i8] }> <{ [75 x i8] c"/rustc/34926f0a1681458588a2d4240c0715ef9eff7d35/library/core/src/fmt/mod.rs" }>, align 1
@alloc168 = private unnamed_addr constant <{ i8*, [16 x i8] }> <{ i8* getelementptr inbounds (<{ [75 x i8] }>, <{ [75 x i8] }>* @alloc167, i32 0, i32 0, i32 0), [16 x i8] c"K\00\00\00\00\00\00\00k\01\00\00\0D\00\00\00" }>, align 8
@alloc169 = private unnamed_addr constant <{ [75 x i8] }> <{ [75 x i8] c"/rustc/34926f0a1681458588a2d4240c0715ef9eff7d35/library/core/src/ptr/mod.rs" }>, align 1
@alloc170 = private unnamed_addr constant <{ i8*, [16 x i8] }> <{ i8* getelementptr inbounds (<{ [75 x i8] }>, <{ [75 x i8] }>* @alloc169, i32 0, i32 0, i32 0), [16 x i8] c"K\00\00\00\00\00\00\00\BE\02\00\00\0D\00\00\00" }>, align 8
@alloc175 = private unnamed_addr constant <{ [83 x i8] }> <{ [83 x i8] c"/rustc/34926f0a1681458588a2d4240c0715ef9eff7d35/library/core/src/str/validations.rs" }>, align 1
@alloc172 = private unnamed_addr constant <{ i8*, [16 x i8] }> <{ i8* getelementptr inbounds (<{ [83 x i8] }>, <{ [83 x i8] }>* @alloc175, i32 0, i32 0, i32 0), [16 x i8] c"S\00\00\00\00\00\00\001\00\00\00$\00\00\00" }>, align 8
@alloc174 = private unnamed_addr constant <{ i8*, [16 x i8] }> <{ i8* getelementptr inbounds (<{ [83 x i8] }>, <{ [83 x i8] }>* @alloc175, i32 0, i32 0, i32 0), [16 x i8] c"S\00\00\00\00\00\00\008\00\00\00(\00\00\00" }>, align 8
@alloc176 = private unnamed_addr constant <{ i8*, [16 x i8] }> <{ i8* getelementptr inbounds (<{ [83 x i8] }>, <{ [83 x i8] }>* @alloc175, i32 0, i32 0, i32 0), [16 x i8] c"S\00\00\00\00\00\00\00@\00\00\00,\00\00\00" }>, align 8
@alloc221 = private unnamed_addr constant <{ [79 x i8] }> <{ [79 x i8] c"/rustc/34926f0a1681458588a2d4240c0715ef9eff7d35/library/core/src/str/pattern.rs" }>, align 1
@alloc178 = private unnamed_addr constant <{ i8*, [16 x i8] }> <{ i8* getelementptr inbounds (<{ [79 x i8] }>, <{ [79 x i8] }>* @alloc221, i32 0, i32 0, i32 0), [16 x i8] c"O\00\00\00\00\00\00\00\8C\05\00\00\14\00\00\00" }>, align 8
@alloc180 = private unnamed_addr constant <{ i8*, [16 x i8] }> <{ i8* getelementptr inbounds (<{ [79 x i8] }>, <{ [79 x i8] }>* @alloc221, i32 0, i32 0, i32 0), [16 x i8] c"O\00\00\00\00\00\00\00\8C\05\00\00!\00\00\00" }>, align 8
@alloc182 = private unnamed_addr constant <{ i8*, [16 x i8] }> <{ i8* getelementptr inbounds (<{ [79 x i8] }>, <{ [79 x i8] }>* @alloc221, i32 0, i32 0, i32 0), [16 x i8] c"O\00\00\00\00\00\00\00\98\05\00\00\14\00\00\00" }>, align 8
@alloc184 = private unnamed_addr constant <{ i8*, [16 x i8] }> <{ i8* getelementptr inbounds (<{ [79 x i8] }>, <{ [79 x i8] }>* @alloc221, i32 0, i32 0, i32 0), [16 x i8] c"O\00\00\00\00\00\00\00\98\05\00\00!\00\00\00" }>, align 8
@alloc189 = private unnamed_addr constant <{ [80 x i8] }> <{ [80 x i8] c"/rustc/34926f0a1681458588a2d4240c0715ef9eff7d35/library/core/src/char/methods.rs" }>, align 1
@alloc186 = private unnamed_addr constant <{ i8*, [16 x i8] }> <{ i8* getelementptr inbounds (<{ [80 x i8] }>, <{ [80 x i8] }>* @alloc189, i32 0, i32 0, i32 0), [16 x i8] c"P\00\00\00\00\00\00\00{\06\00\00\16\00\00\00" }>, align 8
@alloc188 = private unnamed_addr constant <{ i8*, [16 x i8] }> <{ i8* getelementptr inbounds (<{ [80 x i8] }>, <{ [80 x i8] }>* @alloc189, i32 0, i32 0, i32 0), [16 x i8] c"P\00\00\00\00\00\00\00\95\06\00\00\0A\00\00\00" }>, align 8
@alloc101 = private unnamed_addr constant <{ [18 x i8] }> <{ [18 x i8] c"encode_utf8: need " }>, align 1
@alloc103 = private unnamed_addr constant <{ [19 x i8] }> <{ [19 x i8] c" bytes to encode U+" }>, align 1
@alloc104 = private unnamed_addr constant <{ [21 x i8] }> <{ [21 x i8] c", but the buffer has " }>, align 1
@alloc102 = private unnamed_addr constant <{ i8*, [8 x i8], i8*, [8 x i8], i8*, [8 x i8] }> <{ i8* getelementptr inbounds (<{ [18 x i8] }>, <{ [18 x i8] }>* @alloc101, i32 0, i32 0, i32 0), [8 x i8] c"\12\00\00\00\00\00\00\00", i8* getelementptr inbounds (<{ [19 x i8] }>, <{ [19 x i8] }>* @alloc103, i32 0, i32 0, i32 0), [8 x i8] c"\13\00\00\00\00\00\00\00", i8* getelementptr inbounds (<{ [21 x i8] }>, <{ [21 x i8] }>* @alloc104, i32 0, i32 0, i32 0), [8 x i8] c"\15\00\00\00\00\00\00\00" }>, align 8
@alloc190 = private unnamed_addr constant <{ i8*, [16 x i8] }> <{ i8* getelementptr inbounds (<{ [80 x i8] }>, <{ [80 x i8] }>* @alloc189, i32 0, i32 0, i32 0), [16 x i8] c"P\00\00\00\00\00\00\00\8E\06\00\00\0E\00\00\00" }>, align 8
@alloc191 = private unnamed_addr constant <{ [88 x i8] }> <{ [88 x i8] c"/rustc/34926f0a1681458588a2d4240c0715ef9eff7d35/library/core/src/iter/traits/iterator.rs" }>, align 1
@alloc192 = private unnamed_addr constant <{ i8*, [16 x i8] }> <{ i8* getelementptr inbounds (<{ [88 x i8] }>, <{ [88 x i8] }>* @alloc191, i32 0, i32 0, i32 0), [16 x i8] c"X\00\00\00\00\00\00\00\13\01\00\00\0D\00\00\00" }>, align 8
@alloc127 = private unnamed_addr constant <{ [1 x i8] }> <{ [1 x i8] c"\01" }>, align 1
@alloc193 = private unnamed_addr constant <{ [77 x i8] }> <{ [77 x i8] c"/rustc/34926f0a1681458588a2d4240c0715ef9eff7d35/library/core/src/slice/mod.rs" }>, align 1
@alloc194 = private unnamed_addr constant <{ i8*, [16 x i8] }> <{ i8* getelementptr inbounds (<{ [77 x i8] }>, <{ [77 x i8] }>* @alloc193, i32 0, i32 0, i32 0), [16 x i8] c"M\00\00\00\00\00\00\00a\08\00\00'\00\00\00" }>, align 8
@alloc196 = private unnamed_addr constant <{ [43 x i8] }> <{ [43 x i8] c"called `Option::unwrap()` on a `None` value" }>, align 1
@alloc197 = private unnamed_addr constant <{ [43 x i8] }> <{ [43 x i8] c"called `Result::unwrap()` on an `Err` value" }>, align 1
@vtable.1 = private unnamed_addr constant <{ i8*, [16 x i8], i8*, [0 x i8] }> <{ i8* bitcast (void (%"std::env::VarError"*)* @"_ZN4core3ptr39drop_in_place$LT$std..env..VarError$GT$17h6a14be61b986bff1E" to i8*), [16 x i8] c"\18\00\00\00\00\00\00\00\08\00\00\00\00\00\00\00", i8* bitcast (i1 (%"std::env::VarError"*, %"core::fmt::Formatter"*)* @"_ZN55_$LT$std..env..VarError$u20$as$u20$core..fmt..Debug$GT$3fmt17hd28f418a0de5ba91E" to i8*), [0 x i8] zeroinitializer }>, align 8
@alloc79 = private unnamed_addr constant <{ [0 x i8] }> zeroinitializer, align 8
@alloc206 = private unnamed_addr constant <{ [47 x i8] }> <{ [47 x i8] c"assertion failed: BorrowType::PERMITS_TRAVERSAL" }>, align 1
@alloc209 = private unnamed_addr constant <{ [91 x i8] }> <{ [91 x i8] c"/rustc/34926f0a1681458588a2d4240c0715ef9eff7d35/library/alloc/src/collections/btree/node.rs" }>, align 1
@alloc203 = private unnamed_addr constant <{ i8*, [16 x i8] }> <{ i8* getelementptr inbounds (<{ [91 x i8] }>, <{ [91 x i8] }>* @alloc209, i32 0, i32 0, i32 0), [16 x i8] c"[\00\00\00\00\00\00\00\E5\03\00\00\09\00\00\00" }>, align 8
@alloc205 = private unnamed_addr constant <{ i8*, [16 x i8] }> <{ i8* getelementptr inbounds (<{ [91 x i8] }>, <{ [91 x i8] }>* @alloc209, i32 0, i32 0, i32 0), [16 x i8] c"[\00\00\00\00\00\00\00\EE\03\00\00I\00\00\00" }>, align 8
@alloc208 = private unnamed_addr constant <{ i8*, [16 x i8] }> <{ i8* getelementptr inbounds (<{ [91 x i8] }>, <{ [91 x i8] }>* @alloc209, i32 0, i32 0, i32 0), [16 x i8] c"[\00\00\00\00\00\00\00>\01\00\00\09\00\00\00" }>, align 8
@alloc210 = private unnamed_addr constant <{ i8*, [16 x i8] }> <{ i8* getelementptr inbounds (<{ [91 x i8] }>, <{ [91 x i8] }>* @alloc209, i32 0, i32 0, i32 0), [16 x i8] c"[\00\00\00\00\00\00\00F\01\00\00B\00\00\00" }>, align 8
@alloc213 = private unnamed_addr constant <{ [95 x i8] }> <{ [95 x i8] c"/rustc/34926f0a1681458588a2d4240c0715ef9eff7d35/library/alloc/src/collections/btree/navigate.rs" }>, align 1
@alloc212 = private unnamed_addr constant <{ i8*, [16 x i8] }> <{ i8* getelementptr inbounds (<{ [95 x i8] }>, <{ [95 x i8] }>* @alloc213, i32 0, i32 0, i32 0), [16 x i8] c"_\00\00\00\00\00\00\00?\02\00\00V\00\00\00" }>, align 8
@alloc214 = private unnamed_addr constant <{ i8*, [16 x i8] }> <{ i8* getelementptr inbounds (<{ [95 x i8] }>, <{ [95 x i8] }>* @alloc213, i32 0, i32 0, i32 0), [16 x i8] c"_\00\00\00\00\00\00\00\B8\00\00\00'\00\00\00" }>, align 8
@alloc215 = private unnamed_addr constant <{ [72 x i8] }> <{ [72 x i8] c"/rustc/34926f0a1681458588a2d4240c0715ef9eff7d35/library/alloc/src/str.rs" }>, align 1
@alloc216 = private unnamed_addr constant <{ i8*, [16 x i8] }> <{ i8* getelementptr inbounds (<{ [72 x i8] }>, <{ [72 x i8] }>* @alloc215, i32 0, i32 0, i32 0), [16 x i8] c"H\00\00\00\00\00\00\00\D1\00\00\00\0A\00\00\00" }>, align 8
@alloc217 = private unnamed_addr constant <{ [77 x i8] }> <{ [77 x i8] c"/rustc/34926f0a1681458588a2d4240c0715ef9eff7d35/library/std/src/ffi/os_str.rs" }>, align 1
@alloc218 = private unnamed_addr constant <{ i8*, [16 x i8] }> <{ i8* getelementptr inbounds (<{ [77 x i8] }>, <{ [77 x i8] }>* @alloc217, i32 0, i32 0, i32 0), [16 x i8] c"M\00\00\00\00\00\00\00\93\01\00\00\0A\00\00\00" }>, align 8
@alloc220 = private unnamed_addr constant <{ i8*, [16 x i8] }> <{ i8* getelementptr inbounds (<{ [79 x i8] }>, <{ [79 x i8] }>* @alloc221, i32 0, i32 0, i32 0), [16 x i8] c"O\00\00\00\00\00\00\00\1C\04\00\00\17\00\00\00" }>, align 8
@alloc222 = private unnamed_addr constant <{ i8*, [16 x i8] }> <{ i8* getelementptr inbounds (<{ [79 x i8] }>, <{ [79 x i8] }>* @alloc221, i32 0, i32 0, i32 0), [16 x i8] c"O\00\00\00\00\00\00\00\B7\01\00\00&\00\00\00" }>, align 8
@alloc223 = private unnamed_addr constant <{ [78 x i8] }> <{ [78 x i8] c"/rustc/34926f0a1681458588a2d4240c0715ef9eff7d35/library/core/src/slice/iter.rs" }>, align 1
@alloc224 = private unnamed_addr constant <{ i8*, [16 x i8] }> <{ i8* getelementptr inbounds (<{ [78 x i8] }>, <{ [78 x i8] }>* @alloc223, i32 0, i32 0, i32 0), [16 x i8] c"N\00\00\00\00\00\00\00\86\00\00\00\01\00\00\00" }>, align 8
@str.2 = internal constant [28 x i8] c"attempt to add with overflow"
@alloc2 = private unnamed_addr constant <{ [32 x i8] }> <{ [32 x i8] c"cargo:rerun-if-changed=build.rs\0A" }>, align 1
@alloc3 = private unnamed_addr constant <{ i8*, [8 x i8] }> <{ i8* getelementptr inbounds (<{ [32 x i8] }>, <{ [32 x i8] }>* @alloc2, i32 0, i32 0, i32 0), [8 x i8] c" \00\00\00\00\00\00\00" }>, align 8
@alloc7 = private unnamed_addr constant <{ [40 x i8] }> <{ [40 x i8] c"Minimum supported rustc version is 1.31\0A" }>, align 1
@alloc8 = private unnamed_addr constant <{ i8*, [8 x i8] }> <{ i8* getelementptr inbounds (<{ [40 x i8] }>, <{ [40 x i8] }>* @alloc7, i32 0, i32 0, i32 0), [8 x i8] c"(\00\00\00\00\00\00\00" }>, align 8
@alloc225 = private unnamed_addr constant <{ [7 x i8] }> <{ [7 x i8] c"DOCS_RS" }>, align 1
@alloc13 = private unnamed_addr constant <{ [41 x i8] }> <{ [41 x i8] c"cargo:rustc-cfg=procmacro2_semver_exempt\0A" }>, align 1
@alloc14 = private unnamed_addr constant <{ i8*, [8 x i8] }> <{ i8* getelementptr inbounds (<{ [41 x i8] }>, <{ [41 x i8] }>* @alloc13, i32 0, i32 0, i32 0), [8 x i8] c")\00\00\00\00\00\00\00" }>, align 8
@alloc18 = private unnamed_addr constant <{ [31 x i8] }> <{ [31 x i8] c"cargo:rustc-cfg=span_locations\0A" }>, align 1
@alloc19 = private unnamed_addr constant <{ i8*, [8 x i8] }> <{ i8* getelementptr inbounds (<{ [31 x i8] }>, <{ [31 x i8] }>* @alloc18, i32 0, i32 0, i32 0), [8 x i8] c"\1F\00\00\00\00\00\00\00" }>, align 8
@alloc23 = private unnamed_addr constant <{ [44 x i8] }> <{ [44 x i8] c"cargo:rustc-cfg=no_libprocmacro_unwind_safe\0A" }>, align 1
@alloc24 = private unnamed_addr constant <{ i8*, [8 x i8] }> <{ i8* getelementptr inbounds (<{ [44 x i8] }>, <{ [44 x i8] }>* @alloc23, i32 0, i32 0, i32 0), [8 x i8] c",\00\00\00\00\00\00\00" }>, align 8
@alloc28 = private unnamed_addr constant <{ [46 x i8] }> <{ [46 x i8] c"cargo:rustc-cfg=no_bind_by_move_pattern_guard\0A" }>, align 1
@alloc29 = private unnamed_addr constant <{ i8*, [8 x i8] }> <{ i8* getelementptr inbounds (<{ [46 x i8] }>, <{ [46 x i8] }>* @alloc28, i32 0, i32 0, i32 0), [8 x i8] c".\00\00\00\00\00\00\00" }>, align 8
@alloc33 = private unnamed_addr constant <{ [36 x i8] }> <{ [36 x i8] c"cargo:rustc-cfg=no_lexerror_display\0A" }>, align 1
@alloc34 = private unnamed_addr constant <{ i8*, [8 x i8] }> <{ i8* getelementptr inbounds (<{ [36 x i8] }>, <{ [36 x i8] }>* @alloc33, i32 0, i32 0, i32 0), [8 x i8] c"$\00\00\00\00\00\00\00" }>, align 8
@alloc38 = private unnamed_addr constant <{ [27 x i8] }> <{ [27 x i8] c"cargo:rustc-cfg=no_hygiene\0A" }>, align 1
@alloc39 = private unnamed_addr constant <{ i8*, [8 x i8] }> <{ i8* getelementptr inbounds (<{ [27 x i8] }>, <{ [27 x i8] }>* @alloc38, i32 0, i32 0, i32 0), [8 x i8] c"\1B\00\00\00\00\00\00\00" }>, align 8
@alloc43 = private unnamed_addr constant <{ [36 x i8] }> <{ [36 x i8] c"cargo:rustc-cfg=no_literal_from_str\0A" }>, align 1
@alloc44 = private unnamed_addr constant <{ i8*, [8 x i8] }> <{ i8* getelementptr inbounds (<{ [36 x i8] }>, <{ [36 x i8] }>* @alloc43, i32 0, i32 0, i32 0), [8 x i8] c"$\00\00\00\00\00\00\00" }>, align 8
@alloc48 = private unnamed_addr constant <{ [36 x i8] }> <{ [36 x i8] c"cargo:rustc-cfg=no_group_open_close\0A" }>, align 1
@alloc49 = private unnamed_addr constant <{ i8*, [8 x i8] }> <{ i8* getelementptr inbounds (<{ [36 x i8] }>, <{ [36 x i8] }>* @alloc48, i32 0, i32 0, i32 0), [8 x i8] c"$\00\00\00\00\00\00\00" }>, align 8
@alloc53 = private unnamed_addr constant <{ [32 x i8] }> <{ [32 x i8] c"cargo:rustc-cfg=no_is_available\0A" }>, align 1
@alloc54 = private unnamed_addr constant <{ i8*, [8 x i8] }> <{ i8* getelementptr inbounds (<{ [32 x i8] }>, <{ [32 x i8] }>* @alloc53, i32 0, i32 0, i32 0), [8 x i8] c" \00\00\00\00\00\00\00" }>, align 8
@alloc226 = private unnamed_addr constant <{ [6 x i8] }> <{ [6 x i8] c"TARGET" }>, align 1
@alloc255 = private unnamed_addr constant <{ [84 x i8] }> <{ [84 x i8] c"/home/cj/.cargo/registry/src/github.com-1ecc6299db9ec823/proc-macro2-1.0.36/build.rs" }>, align 1
@alloc228 = private unnamed_addr constant <{ i8*, [16 x i8] }> <{ i8* getelementptr inbounds (<{ [84 x i8] }>, <{ [84 x i8] }>* @alloc255, i32 0, i32 0, i32 0), [16 x i8] c"T\00\00\00\00\00\00\00d\00\00\00%\00\00\00" }>, align 8
@alloc59 = private unnamed_addr constant <{ [31 x i8] }> <{ [31 x i8] c"cargo:rustc-cfg=use_proc_macro\0A" }>, align 1
@alloc60 = private unnamed_addr constant <{ i8*, [8 x i8] }> <{ i8* getelementptr inbounds (<{ [31 x i8] }>, <{ [31 x i8] }>* @alloc59, i32 0, i32 0, i32 0), [8 x i8] c"\1F\00\00\00\00\00\00\00" }>, align 8
@alloc64 = private unnamed_addr constant <{ [32 x i8] }> <{ [32 x i8] c"cargo:rustc-cfg=wrap_proc_macro\0A" }>, align 1
@alloc65 = private unnamed_addr constant <{ i8*, [8 x i8] }> <{ i8* getelementptr inbounds (<{ [32 x i8] }>, <{ [32 x i8] }>* @alloc64, i32 0, i32 0, i32 0), [8 x i8] c" \00\00\00\00\00\00\00" }>, align 8
@alloc229 = private unnamed_addr constant <{ [15 x i8] }> <{ [15 x i8] c"proc_macro_span" }>, align 1
@alloc71 = private unnamed_addr constant <{ [32 x i8] }> <{ [32 x i8] c"cargo:rustc-cfg=proc_macro_span\0A" }>, align 1
@alloc72 = private unnamed_addr constant <{ i8*, [8 x i8] }> <{ i8* getelementptr inbounds (<{ [32 x i8] }>, <{ [32 x i8] }>* @alloc71, i32 0, i32 0, i32 0), [8 x i8] c" \00\00\00\00\00\00\00" }>, align 8
@alloc76 = private unnamed_addr constant <{ [31 x i8] }> <{ [31 x i8] c"cargo:rustc-cfg=super_unstable\0A" }>, align 1
@alloc77 = private unnamed_addr constant <{ i8*, [8 x i8] }> <{ i8* getelementptr inbounds (<{ [31 x i8] }>, <{ [31 x i8] }>* @alloc76, i32 0, i32 0, i32 0), [8 x i8] c"\1F\00\00\00\00\00\00\00" }>, align 8
@alloc230 = private unnamed_addr constant <{ [6 x i8] }> <{ [6 x i8] c"wasm32" }>, align 1
@alloc231 = private unnamed_addr constant <{ [5 x i8] }> <{ [5 x i8] c"RUSTC" }>, align 1
@alloc232 = private unnamed_addr constant <{ [9 x i8] }> <{ [9 x i8] c"--version" }>, align 1
@alloc233 = private unnamed_addr constant <{ [7 x i8] }> <{ [7 x i8] c"nightly" }>, align 1
@alloc234 = private unnamed_addr constant <{ [3 x i8] }> <{ [3 x i8] c"dev" }>, align 1
@alloc86 = private unnamed_addr constant <{ [7 x i8] }> <{ [7 x i8] c"rustc 1" }>, align 1
@alloc87 = private unnamed_addr constant <{ i8*, [8 x i8] }> <{ i8* getelementptr inbounds (<{ [7 x i8] }>, <{ [7 x i8] }>* @alloc86, i32 0, i32 0, i32 0), [8 x i8] c"\07\00\00\00\00\00\00\00" }>, align 8
@alloc235 = private unnamed_addr constant <{ [23 x i8] }> <{ [23 x i8] c"CARGO_ENCODED_RUSTFLAGS" }>, align 1
@alloc236 = private unnamed_addr constant <{ [9 x i8] }> <{ [9 x i8] c"RUSTFLAGS" }>, align 1
@vtable.3 = private unnamed_addr constant <{ i8*, [16 x i8], i8*, i8*, i8*, i8*, [0 x i8] }> <{ i8* bitcast (void (%"core::iter::sources::empty::Empty<&str>"*)* @"_ZN4core3ptr69drop_in_place$LT$core..iter..sources..empty..Empty$LT$$RF$str$GT$$GT$17h89a7ea7ca41df39fE" to i8*), [16 x i8] c"\00\00\00\00\00\00\00\00\01\00\00\00\00\00\00\00", i8* bitcast ({ i8*, i64 } (%"core::iter::sources::empty::Empty<&str>"*)* @"_ZN101_$LT$core..iter..sources..empty..Empty$LT$T$GT$$u20$as$u20$core..iter..traits..iterator..Iterator$GT$4next17hc09184635aa109dcE" to i8*), i8* bitcast (void ({ i64, { i64, i64 } }*, %"core::iter::sources::empty::Empty<&str>"*)* @"_ZN101_$LT$core..iter..sources..empty..Empty$LT$T$GT$$u20$as$u20$core..iter..traits..iterator..Iterator$GT$9size_hint17hd3713f3b5dc37d9dE" to i8*), i8* bitcast ({ i64, i64 } (%"core::iter::sources::empty::Empty<&str>"*, i64)* @_ZN4core4iter6traits8iterator8Iterator10advance_by17h3b8012a681ac1183E to i8*), i8* bitcast ({ i8*, i64 } (%"core::iter::sources::empty::Empty<&str>"*, i64)* @_ZN4core4iter6traits8iterator8Iterator3nth17h4aa6d68868d81222E to i8*), [0 x i8] zeroinitializer }>, align 8
@vtable.4 = private unnamed_addr constant <{ i8*, [16 x i8], i8*, i8*, i8*, i8*, [0 x i8] }> <{ i8* bitcast (void (%"core::str::iter::Split<char>"*)* @"_ZN4core3ptr55drop_in_place$LT$core..str..iter..Split$LT$char$GT$$GT$17h2b5511f108503dd9E" to i8*), [16 x i8] c"H\00\00\00\00\00\00\00\08\00\00\00\00\00\00\00", i8* bitcast ({ i8*, i64 } (%"core::str::iter::Split<char>"*)* @"_ZN90_$LT$core..str..iter..Split$LT$P$GT$$u20$as$u20$core..iter..traits..iterator..Iterator$GT$4next17hc5f43cd6e06e2cf2E" to i8*), i8* bitcast (void ({ i64, { i64, i64 } }*, %"core::str::iter::Split<char>"*)* @_ZN4core4iter6traits8iterator8Iterator9size_hint17hd1f6cceaa72259cdE to i8*), i8* bitcast ({ i64, i64 } (%"core::str::iter::Split<char>"*, i64)* @_ZN4core4iter6traits8iterator8Iterator10advance_by17h5de91ea76f3b291aE to i8*), i8* bitcast ({ i8*, i64 } (%"core::str::iter::Split<char>"*, i64)* @_ZN4core4iter6traits8iterator8Iterator3nth17h7c57a87ded27914eE to i8*), [0 x i8] zeroinitializer }>, align 8
@alloc250 = private unnamed_addr constant <{ [2 x i8] }> <{ [2 x i8] c"-Z" }>, align 1
@alloc252 = private unnamed_addr constant <{ i8*, [16 x i8] }> <{ i8* getelementptr inbounds (<{ [84 x i8] }>, <{ [84 x i8] }>* @alloc255, i32 0, i32 0, i32 0), [16 x i8] c"T\00\00\00\00\00\00\00\B1\00\00\00\15\00\00\00" }>, align 8
@alloc254 = private unnamed_addr constant <{ [15 x i8] }> <{ [15 x i8] c"allow-features=" }>, align 1
@alloc256 = private unnamed_addr constant <{ i8*, [16 x i8] }> <{ i8* getelementptr inbounds (<{ [84 x i8] }>, <{ [84 x i8] }>* @alloc255, i32 0, i32 0, i32 0), [16 x i8] c"T\00\00\00\00\00\00\00\B4\00\00\00\15\00\00\00" }>, align 8

; <alloc::string::String as core::ops::index::Index<core::ops::range::RangeFull>>::index
; Function Attrs: inlinehint nonlazybind uwtable
define internal { [0 x i8]*, i64 } @"_ZN100_$LT$alloc..string..String$u20$as$u20$core..ops..index..Index$LT$core..ops..range..RangeFull$GT$$GT$5index17h8fc15e4ad08df015E"(%"alloc::string::String"* align 8 dereferenceable(24) %self, %"core::panic::location::Location"* align 8 dereferenceable(24) %0) unnamed_addr #0 {
start:
  %_6 = bitcast %"alloc::string::String"* %self to %"alloc::vec::Vec<u8>"*
; call <alloc::vec::Vec<T,A> as core::ops::deref::Deref>::deref
  %1 = call { [0 x i8]*, i64 } @"_ZN72_$LT$alloc..vec..Vec$LT$T$C$A$GT$$u20$as$u20$core..ops..deref..Deref$GT$5deref17h3f46b57c871e920dE"(%"alloc::vec::Vec<u8>"* align 8 dereferenceable(24) %_6)
  %_4.0 = extractvalue { [0 x i8]*, i64 } %1, 0
  %_4.1 = extractvalue { [0 x i8]*, i64 } %1, 1
  br label %bb1

bb1:                                              ; preds = %start
; call core::str::converts::from_utf8_unchecked
  %2 = call { [0 x i8]*, i64 } @_ZN4core3str8converts19from_utf8_unchecked17hddaa401456b125ddE([0 x i8]* nonnull align 1 %_4.0, i64 %_4.1)
  %3 = extractvalue { [0 x i8]*, i64 } %2, 0
  %4 = extractvalue { [0 x i8]*, i64 } %2, 1
  br label %bb2

bb2:                                              ; preds = %bb1
  %5 = insertvalue { [0 x i8]*, i64 } undef, [0 x i8]* %3, 0
  %6 = insertvalue { [0 x i8]*, i64 } %5, i64 %4, 1
  ret { [0 x i8]*, i64 } %6
}

; <core::iter::sources::empty::Empty<T> as core::iter::traits::iterator::Iterator>::next
; Function Attrs: nonlazybind uwtable
define internal { i8*, i64 } @"_ZN101_$LT$core..iter..sources..empty..Empty$LT$T$GT$$u20$as$u20$core..iter..traits..iterator..Iterator$GT$4next17hc09184635aa109dcE"(%"core::iter::sources::empty::Empty<&str>"* nonnull align 1 %self) unnamed_addr #1 {
start:
  %0 = alloca { i8*, i64 }, align 8
  %1 = bitcast { i8*, i64 }* %0 to {}**
  store {}* null, {}** %1, align 8
  %2 = getelementptr inbounds { i8*, i64 }, { i8*, i64 }* %0, i32 0, i32 0
  %3 = load i8*, i8** %2, align 8
  %4 = getelementptr inbounds { i8*, i64 }, { i8*, i64 }* %0, i32 0, i32 1
  %5 = load i64, i64* %4, align 8
  %6 = insertvalue { i8*, i64 } undef, i8* %3, 0
  %7 = insertvalue { i8*, i64 } %6, i64 %5, 1
  ret { i8*, i64 } %7
}

; <core::iter::sources::empty::Empty<T> as core::iter::traits::iterator::Iterator>::size_hint
; Function Attrs: nonlazybind uwtable
define internal void @"_ZN101_$LT$core..iter..sources..empty..Empty$LT$T$GT$$u20$as$u20$core..iter..traits..iterator..Iterator$GT$9size_hint17hd3713f3b5dc37d9dE"({ i64, { i64, i64 } }* noalias nocapture sret({ i64, { i64, i64 } }) dereferenceable(24) %0, %"core::iter::sources::empty::Empty<&str>"* nonnull align 1 %self) unnamed_addr #1 {
start:
  %_2 = alloca { i64, i64 }, align 8
  %1 = bitcast { i64, i64 }* %_2 to %"core::option::Option<usize>::Some"*
  %2 = getelementptr inbounds %"core::option::Option<usize>::Some", %"core::option::Option<usize>::Some"* %1, i32 0, i32 1
  store i64 0, i64* %2, align 8
  %3 = bitcast { i64, i64 }* %_2 to i64*
  store i64 1, i64* %3, align 8
  %4 = bitcast { i64, { i64, i64 } }* %0 to i64*
  store i64 0, i64* %4, align 8
  %5 = getelementptr inbounds { i64, { i64, i64 } }, { i64, { i64, i64 } }* %0, i32 0, i32 1
  %6 = getelementptr inbounds { i64, i64 }, { i64, i64 }* %_2, i32 0, i32 0
  %7 = load i64, i64* %6, align 8, !range !3
  %8 = getelementptr inbounds { i64, i64 }, { i64, i64 }* %_2, i32 0, i32 1
  %9 = load i64, i64* %8, align 8
  %10 = getelementptr inbounds { i64, i64 }, { i64, i64 }* %5, i32 0, i32 0
  store i64 %7, i64* %10, align 8
  %11 = getelementptr inbounds { i64, i64 }, { i64, i64 }* %5, i32 0, i32 1
  store i64 %9, i64* %11, align 8
  ret void
}

; <core::ops::control_flow::ControlFlow<B,C> as core::ops::try_trait::FromResidual>::from_residual
; Function Attrs: inlinehint nonlazybind uwtable
define internal zeroext i1 @"_ZN104_$LT$core..ops..control_flow..ControlFlow$LT$B$C$C$GT$$u20$as$u20$core..ops..try_trait..FromResidual$GT$13from_residual17h22df90be137e78e4E"() unnamed_addr #0 {
start:
  %0 = alloca i8, align 1
  %1 = bitcast i8* %0 to %"core::ops::control_flow::ControlFlow<()>::Break"*
  %2 = getelementptr inbounds %"core::ops::control_flow::ControlFlow<()>::Break", %"core::ops::control_flow::ControlFlow<()>::Break"* %1, i32 0, i32 1
  store i8 1, i8* %0, align 1
  %3 = load i8, i8* %0, align 1, !range !4
  %4 = trunc i8 %3 to i1
  ret i1 %4
}

; <std::ffi::os_str::OsString as core::ops::index::Index<core::ops::range::RangeFull>>::index
; Function Attrs: inlinehint nonlazybind uwtable
define internal { %"std::ffi::os_str::OsStr"*, i64 } @"_ZN105_$LT$std..ffi..os_str..OsString$u20$as$u20$core..ops..index..Index$LT$core..ops..range..RangeFull$GT$$GT$5index17h6e7c8e66c88f45d9E"(%"std::ffi::os_str::OsString"* align 8 dereferenceable(24) %self, %"core::panic::location::Location"* align 8 dereferenceable(24) %0) unnamed_addr #0 {
start:
  %_5 = bitcast %"std::ffi::os_str::OsString"* %self to %"std::sys::unix::os_str::Buf"*
; call std::sys::unix::os_str::Buf::as_slice
  %1 = call { %"std::sys::unix::os_str::Slice"*, i64 } @_ZN3std3sys4unix6os_str3Buf8as_slice17h38b5d3b5dd1e4712E(%"std::sys::unix::os_str::Buf"* align 8 dereferenceable(24) %_5)
  %_4.0 = extractvalue { %"std::sys::unix::os_str::Slice"*, i64 } %1, 0
  %_4.1 = extractvalue { %"std::sys::unix::os_str::Slice"*, i64 } %1, 1
  br label %bb1

bb1:                                              ; preds = %start
; call std::ffi::os_str::OsStr::from_inner
  %2 = call { %"std::ffi::os_str::OsStr"*, i64 } @_ZN3std3ffi6os_str5OsStr10from_inner17h7753821bcf766850E(%"std::sys::unix::os_str::Slice"* nonnull align 1 %_4.0, i64 %_4.1)
  %3 = extractvalue { %"std::ffi::os_str::OsStr"*, i64 } %2, 0
  %4 = extractvalue { %"std::ffi::os_str::OsStr"*, i64 } %2, 1
  br label %bb2

bb2:                                              ; preds = %bb1
  %5 = insertvalue { %"std::ffi::os_str::OsStr"*, i64 } undef, %"std::ffi::os_str::OsStr"* %3, 0
  %6 = insertvalue { %"std::ffi::os_str::OsStr"*, i64 } %5, i64 %4, 1
  ret { %"std::ffi::os_str::OsStr"*, i64 } %6
}

; <core::ops::range::Range<usize> as core::slice::index::SliceIndex<[T]>>::get_unchecked
; Function Attrs: inlinehint nonlazybind uwtable
define internal { [0 x i8]*, i64 } @"_ZN106_$LT$core..ops..range..Range$LT$usize$GT$$u20$as$u20$core..slice..index..SliceIndex$LT$$u5b$T$u5d$$GT$$GT$13get_unchecked17h0b484110233b36e1E"(i64 %self.0, i64 %self.1, [0 x i8]* %slice.0, i64 %slice.1) unnamed_addr #0 {
start:
  %0 = alloca i8*, align 8
; call core::ptr::const_ptr::<impl *const [T]>::as_ptr
  %_4 = call i8* @"_ZN4core3ptr9const_ptr43_$LT$impl$u20$$BP$const$u20$$u5b$T$u5d$$GT$6as_ptr17h92dd3b06adba4ef1E"([0 x i8]* %slice.0, i64 %slice.1)
  br label %bb1

bb1:                                              ; preds = %start
  %1 = getelementptr inbounds i8, i8* %_4, i64 %self.0
  store i8* %1, i8** %0, align 8
  %2 = load i8*, i8** %0, align 8
  br label %bb2

bb2:                                              ; preds = %bb1
  %_7 = sub i64 %self.1, %self.0
; call core::ptr::slice_from_raw_parts
  %3 = call { [0 x i8]*, i64 } @_ZN4core3ptr20slice_from_raw_parts17h7a48ed1ebd413f86E(i8* %2, i64 %_7)
  %4 = extractvalue { [0 x i8]*, i64 } %3, 0
  %5 = extractvalue { [0 x i8]*, i64 } %3, 1
  br label %bb3

bb3:                                              ; preds = %bb2
  %6 = insertvalue { [0 x i8]*, i64 } undef, [0 x i8]* %4, 0
  %7 = insertvalue { [0 x i8]*, i64 } %6, i64 %5, 1
  ret { [0 x i8]*, i64 } %7
}

; <core::ops::range::Range<usize> as core::slice::index::SliceIndex<[T]>>::get_unchecked_mut
; Function Attrs: inlinehint nonlazybind uwtable
define internal { [0 x i8]*, i64 } @"_ZN106_$LT$core..ops..range..Range$LT$usize$GT$$u20$as$u20$core..slice..index..SliceIndex$LT$$u5b$T$u5d$$GT$$GT$17get_unchecked_mut17h46228455121fc39dE"(i64 %self.0, i64 %self.1, [0 x i8]* %slice.0, i64 %slice.1) unnamed_addr #0 {
start:
  %0 = alloca i8*, align 8
  %1 = bitcast [0 x i8]* %slice.0 to i8*
  br label %bb1

bb1:                                              ; preds = %start
  %2 = getelementptr inbounds i8, i8* %1, i64 %self.0
  store i8* %2, i8** %0, align 8
  %_3.i = load i8*, i8** %0, align 8
  br label %bb2

bb2:                                              ; preds = %bb1
  %_7 = sub i64 %self.1, %self.0
; call core::ptr::slice_from_raw_parts_mut
  %3 = call { [0 x i8]*, i64 } @_ZN4core3ptr24slice_from_raw_parts_mut17h8a9c88a1201dbd10E(i8* %_3.i, i64 %_7)
  %4 = extractvalue { [0 x i8]*, i64 } %3, 0
  %5 = extractvalue { [0 x i8]*, i64 } %3, 1
  br label %bb3

bb3:                                              ; preds = %bb2
  %6 = insertvalue { [0 x i8]*, i64 } undef, [0 x i8]* %4, 0
  %7 = insertvalue { [0 x i8]*, i64 } %6, i64 %5, 1
  ret { [0 x i8]*, i64 } %7
}

; <core::ops::range::Range<usize> as core::slice::index::SliceIndex<[T]>>::get
; Function Attrs: inlinehint nonlazybind uwtable
define internal { i8*, i64 } @"_ZN106_$LT$core..ops..range..Range$LT$usize$GT$$u20$as$u20$core..slice..index..SliceIndex$LT$$u5b$T$u5d$$GT$$GT$3get17h476aef3eddb5db7fE"(i64 %self.0, i64 %self.1, [0 x i8]* nonnull align 1 %slice.0, i64 %slice.1) unnamed_addr #0 {
start:
  %_3 = alloca i8, align 1
  %0 = alloca { i8*, i64 }, align 8
  %_4 = icmp ugt i64 %self.0, %self.1
  br i1 %_4, label %bb1, label %bb2

bb2:                                              ; preds = %start
  %_7 = icmp ugt i64 %self.1, %slice.1
  %1 = zext i1 %_7 to i8
  store i8 %1, i8* %_3, align 1
  br label %bb3

bb1:                                              ; preds = %start
  store i8 1, i8* %_3, align 1
  br label %bb3

bb3:                                              ; preds = %bb2, %bb1
  %2 = load i8, i8* %_3, align 1, !range !4
  %3 = trunc i8 %2 to i1
  br i1 %3, label %bb4, label %bb5

bb5:                                              ; preds = %bb3
; call <core::ops::range::Range<usize> as core::slice::index::SliceIndex<[T]>>::get_unchecked
  %4 = call { [0 x i8]*, i64 } @"_ZN106_$LT$core..ops..range..Range$LT$usize$GT$$u20$as$u20$core..slice..index..SliceIndex$LT$$u5b$T$u5d$$GT$$GT$13get_unchecked17h0b484110233b36e1E"(i64 %self.0, i64 %self.1, [0 x i8]* %slice.0, i64 %slice.1)
  %_13.0 = extractvalue { [0 x i8]*, i64 } %4, 0
  %_13.1 = extractvalue { [0 x i8]*, i64 } %4, 1
  br label %bb6

bb4:                                              ; preds = %bb3
  %5 = bitcast { i8*, i64 }* %0 to {}**
  store {}* null, {}** %5, align 8
  br label %bb7

bb7:                                              ; preds = %bb6, %bb4
  %6 = getelementptr inbounds { i8*, i64 }, { i8*, i64 }* %0, i32 0, i32 0
  %7 = load i8*, i8** %6, align 8
  %8 = getelementptr inbounds { i8*, i64 }, { i8*, i64 }* %0, i32 0, i32 1
  %9 = load i64, i64* %8, align 8
  %10 = insertvalue { i8*, i64 } undef, i8* %7, 0
  %11 = insertvalue { i8*, i64 } %10, i64 %9, 1
  ret { i8*, i64 } %11

bb6:                                              ; preds = %bb5
  %12 = bitcast { i8*, i64 }* %0 to { [0 x i8]*, i64 }*
  %13 = getelementptr inbounds { [0 x i8]*, i64 }, { [0 x i8]*, i64 }* %12, i32 0, i32 0
  store [0 x i8]* %_13.0, [0 x i8]** %13, align 8
  %14 = getelementptr inbounds { [0 x i8]*, i64 }, { [0 x i8]*, i64 }* %12, i32 0, i32 1
  store i64 %_13.1, i64* %14, align 8
  br label %bb7
}

; <core::ops::range::Range<usize> as core::slice::index::SliceIndex<[T]>>::index
; Function Attrs: inlinehint nonlazybind uwtable
define internal { [0 x i8]*, i64 } @"_ZN106_$LT$core..ops..range..Range$LT$usize$GT$$u20$as$u20$core..slice..index..SliceIndex$LT$$u5b$T$u5d$$GT$$GT$5index17h4d5c55ffbbcf560cE"(i64 %self.0, i64 %self.1, [0 x i8]* nonnull align 1 %slice.0, i64 %slice.1, %"core::panic::location::Location"* align 8 dereferenceable(24) %0) unnamed_addr #0 {
start:
  %_3 = icmp ugt i64 %self.0, %self.1
  br i1 %_3, label %bb1, label %bb2

bb2:                                              ; preds = %start
  %_8 = icmp ugt i64 %self.1, %slice.1
  br i1 %_8, label %bb3, label %bb4

bb1:                                              ; preds = %start
; call core::slice::index::slice_index_order_fail
  call void @_ZN4core5slice5index22slice_index_order_fail17ha673a48f2cebcf85E(i64 %self.0, i64 %self.1, %"core::panic::location::Location"* align 8 dereferenceable(24) %0) #13
  unreachable

bb4:                                              ; preds = %bb2
; call <core::ops::range::Range<usize> as core::slice::index::SliceIndex<[T]>>::get_unchecked
  %1 = call { [0 x i8]*, i64 } @"_ZN106_$LT$core..ops..range..Range$LT$usize$GT$$u20$as$u20$core..slice..index..SliceIndex$LT$$u5b$T$u5d$$GT$$GT$13get_unchecked17h0b484110233b36e1E"(i64 %self.0, i64 %self.1, [0 x i8]* %slice.0, i64 %slice.1)
  %_15.0 = extractvalue { [0 x i8]*, i64 } %1, 0
  %_15.1 = extractvalue { [0 x i8]*, i64 } %1, 1
  br label %bb5

bb3:                                              ; preds = %bb2
; call core::slice::index::slice_end_index_len_fail
  call void @_ZN4core5slice5index24slice_end_index_len_fail17hfcd4a63042ccbeccE(i64 %self.1, i64 %slice.1, %"core::panic::location::Location"* align 8 dereferenceable(24) %0) #13
  unreachable

bb5:                                              ; preds = %bb4
  %2 = insertvalue { [0 x i8]*, i64 } undef, [0 x i8]* %_15.0, 0
  %3 = insertvalue { [0 x i8]*, i64 } %2, i64 %_15.1, 1
  ret { [0 x i8]*, i64 } %3
}

; <core::ops::range::Range<usize> as core::slice::index::SliceIndex<[T]>>::index_mut
; Function Attrs: inlinehint nonlazybind uwtable
define internal { [0 x i8]*, i64 } @"_ZN106_$LT$core..ops..range..Range$LT$usize$GT$$u20$as$u20$core..slice..index..SliceIndex$LT$$u5b$T$u5d$$GT$$GT$9index_mut17h8655d849725eb0dbE"(i64 %self.0, i64 %self.1, [0 x i8]* nonnull align 1 %slice.0, i64 %slice.1, %"core::panic::location::Location"* align 8 dereferenceable(24) %0) unnamed_addr #0 {
start:
  %_4 = icmp ugt i64 %self.0, %self.1
  br i1 %_4, label %bb1, label %bb2

bb2:                                              ; preds = %start
  %_9 = icmp ugt i64 %self.1, %slice.1
  br i1 %_9, label %bb3, label %bb4

bb1:                                              ; preds = %start
; call core::slice::index::slice_index_order_fail
  call void @_ZN4core5slice5index22slice_index_order_fail17ha673a48f2cebcf85E(i64 %self.0, i64 %self.1, %"core::panic::location::Location"* align 8 dereferenceable(24) %0) #13
  unreachable

bb4:                                              ; preds = %bb2
; call <core::ops::range::Range<usize> as core::slice::index::SliceIndex<[T]>>::get_unchecked_mut
  %1 = call { [0 x i8]*, i64 } @"_ZN106_$LT$core..ops..range..Range$LT$usize$GT$$u20$as$u20$core..slice..index..SliceIndex$LT$$u5b$T$u5d$$GT$$GT$17get_unchecked_mut17h46228455121fc39dE"(i64 %self.0, i64 %self.1, [0 x i8]* %slice.0, i64 %slice.1)
  %_18.0 = extractvalue { [0 x i8]*, i64 } %1, 0
  %_18.1 = extractvalue { [0 x i8]*, i64 } %1, 1
  br label %bb5

bb3:                                              ; preds = %bb2
; call core::slice::index::slice_end_index_len_fail
  call void @_ZN4core5slice5index24slice_end_index_len_fail17hfcd4a63042ccbeccE(i64 %self.1, i64 %slice.1, %"core::panic::location::Location"* align 8 dereferenceable(24) %0) #13
  unreachable

bb5:                                              ; preds = %bb4
  %2 = insertvalue { [0 x i8]*, i64 } undef, [0 x i8]* %_18.0, 0
  %3 = insertvalue { [0 x i8]*, i64 } %2, i64 %_18.1, 1
  ret { [0 x i8]*, i64 } %3
}

; <core::ops::range::RangeTo<usize> as core::slice::index::SliceIndex<[T]>>::index
; Function Attrs: inlinehint nonlazybind uwtable
define internal { [0 x i8]*, i64 } @"_ZN108_$LT$core..ops..range..RangeTo$LT$usize$GT$$u20$as$u20$core..slice..index..SliceIndex$LT$$u5b$T$u5d$$GT$$GT$5index17h35876a9e029226f5E"(i64 %self, [0 x i8]* nonnull align 1 %slice.0, i64 %slice.1, %"core::panic::location::Location"* align 8 dereferenceable(24) %0) unnamed_addr #0 {
start:
  %_3 = alloca { i64, i64 }, align 8
  %1 = bitcast { i64, i64 }* %_3 to i64*
  store i64 0, i64* %1, align 8
  %2 = getelementptr inbounds { i64, i64 }, { i64, i64 }* %_3, i32 0, i32 1
  store i64 %self, i64* %2, align 8
  %3 = getelementptr inbounds { i64, i64 }, { i64, i64 }* %_3, i32 0, i32 0
  %4 = load i64, i64* %3, align 8
  %5 = getelementptr inbounds { i64, i64 }, { i64, i64 }* %_3, i32 0, i32 1
  %6 = load i64, i64* %5, align 8
; call <core::ops::range::Range<usize> as core::slice::index::SliceIndex<[T]>>::index
  %7 = call { [0 x i8]*, i64 } @"_ZN106_$LT$core..ops..range..Range$LT$usize$GT$$u20$as$u20$core..slice..index..SliceIndex$LT$$u5b$T$u5d$$GT$$GT$5index17h4d5c55ffbbcf560cE"(i64 %4, i64 %6, [0 x i8]* nonnull align 1 %slice.0, i64 %slice.1, %"core::panic::location::Location"* align 8 dereferenceable(24) %0)
  %8 = extractvalue { [0 x i8]*, i64 } %7, 0
  %9 = extractvalue { [0 x i8]*, i64 } %7, 1
  br label %bb1

bb1:                                              ; preds = %start
  %10 = insertvalue { [0 x i8]*, i64 } undef, [0 x i8]* %8, 0
  %11 = insertvalue { [0 x i8]*, i64 } %10, i64 %9, 1
  ret { [0 x i8]*, i64 } %11
}

; <core::ops::range::RangeTo<usize> as core::slice::index::SliceIndex<[T]>>::index_mut
; Function Attrs: inlinehint nonlazybind uwtable
define internal { [0 x i8]*, i64 } @"_ZN108_$LT$core..ops..range..RangeTo$LT$usize$GT$$u20$as$u20$core..slice..index..SliceIndex$LT$$u5b$T$u5d$$GT$$GT$9index_mut17h41cb7af30e2dfa2cE"(i64 %self, [0 x i8]* nonnull align 1 %slice.0, i64 %slice.1, %"core::panic::location::Location"* align 8 dereferenceable(24) %0) unnamed_addr #0 {
start:
  %_5 = alloca { i64, i64 }, align 8
  %1 = bitcast { i64, i64 }* %_5 to i64*
  store i64 0, i64* %1, align 8
  %2 = getelementptr inbounds { i64, i64 }, { i64, i64 }* %_5, i32 0, i32 1
  store i64 %self, i64* %2, align 8
  %3 = getelementptr inbounds { i64, i64 }, { i64, i64 }* %_5, i32 0, i32 0
  %4 = load i64, i64* %3, align 8
  %5 = getelementptr inbounds { i64, i64 }, { i64, i64 }* %_5, i32 0, i32 1
  %6 = load i64, i64* %5, align 8
; call <core::ops::range::Range<usize> as core::slice::index::SliceIndex<[T]>>::index_mut
  %7 = call { [0 x i8]*, i64 } @"_ZN106_$LT$core..ops..range..Range$LT$usize$GT$$u20$as$u20$core..slice..index..SliceIndex$LT$$u5b$T$u5d$$GT$$GT$9index_mut17h8655d849725eb0dbE"(i64 %4, i64 %6, [0 x i8]* nonnull align 1 %slice.0, i64 %slice.1, %"core::panic::location::Location"* align 8 dereferenceable(24) %0)
  %_4.0 = extractvalue { [0 x i8]*, i64 } %7, 0
  %_4.1 = extractvalue { [0 x i8]*, i64 } %7, 1
  br label %bb1

bb1:                                              ; preds = %start
  %8 = insertvalue { [0 x i8]*, i64 } undef, [0 x i8]* %_4.0, 0
  %9 = insertvalue { [0 x i8]*, i64 } %8, i64 %_4.1, 1
  ret { [0 x i8]*, i64 } %9
}

; <alloc::collections::btree::map::BTreeMap<K,V> as core::iter::traits::collect::IntoIterator>::into_iter
; Function Attrs: nonlazybind uwtable
define internal void @"_ZN115_$LT$alloc..collections..btree..map..BTreeMap$LT$K$C$V$GT$$u20$as$u20$core..iter..traits..collect..IntoIterator$GT$9into_iter17h897bc9ce1c4729e6E"(%"alloc::collections::btree::map::IntoIter<std::ffi::os_str::OsString, core::option::Option<std::ffi::os_str::OsString>>"* noalias nocapture sret(%"alloc::collections::btree::map::IntoIter<std::ffi::os_str::OsString, core::option::Option<std::ffi::os_str::OsString>>") dereferenceable(72) %0, %"alloc::collections::btree::map::BTreeMap<std::ffi::os_str::OsString, core::option::Option<std::ffi::os_str::OsString>>"* noalias nocapture dereferenceable(24) %self) unnamed_addr #1 {
start:
  %_2.i = alloca %"alloc::collections::btree::map::BTreeMap<std::ffi::os_str::OsString, core::option::Option<std::ffi::os_str::OsString>>", align 8
  %_17 = alloca %"alloc::collections::btree::navigate::LazyLeafRange<alloc::collections::btree::node::marker::Dying, std::ffi::os_str::OsString, core::option::Option<std::ffi::os_str::OsString>>", align 8
  %_13 = alloca %"alloc::collections::btree::navigate::LazyLeafRange<alloc::collections::btree::node::marker::Dying, std::ffi::os_str::OsString, core::option::Option<std::ffi::os_str::OsString>>", align 8
  %full_range = alloca %"alloc::collections::btree::navigate::LazyLeafRange<alloc::collections::btree::node::marker::Dying, std::ffi::os_str::OsString, core::option::Option<std::ffi::os_str::OsString>>", align 8
  %_4 = alloca { i64, i64* }, align 8
  %_3 = alloca %"alloc::collections::btree::map::BTreeMap<std::ffi::os_str::OsString, core::option::Option<std::ffi::os_str::OsString>>", align 8
  %me = alloca %"core::mem::manually_drop::ManuallyDrop<alloc::collections::btree::map::BTreeMap<std::ffi::os_str::OsString, core::option::Option<std::ffi::os_str::OsString>>>", align 8
  %1 = bitcast %"alloc::collections::btree::map::BTreeMap<std::ffi::os_str::OsString, core::option::Option<std::ffi::os_str::OsString>>"* %_3 to i8*
  %2 = bitcast %"alloc::collections::btree::map::BTreeMap<std::ffi::os_str::OsString, core::option::Option<std::ffi::os_str::OsString>>"* %self to i8*
  call void @llvm.memcpy.p0i8.p0i8.i64(i8* align 8 %1, i8* align 8 %2, i64 24, i1 false)
  call void @llvm.experimental.noalias.scope.decl(metadata !5)
  call void @llvm.experimental.noalias.scope.decl(metadata !8)
  %3 = bitcast %"alloc::collections::btree::map::BTreeMap<std::ffi::os_str::OsString, core::option::Option<std::ffi::os_str::OsString>>"* %_2.i to i8*
  %4 = bitcast %"alloc::collections::btree::map::BTreeMap<std::ffi::os_str::OsString, core::option::Option<std::ffi::os_str::OsString>>"* %_3 to i8*
  call void @llvm.memcpy.p0i8.p0i8.i64(i8* align 8 %3, i8* align 8 %4, i64 24, i1 false), !noalias !5
  %5 = bitcast %"core::mem::manually_drop::ManuallyDrop<alloc::collections::btree::map::BTreeMap<std::ffi::os_str::OsString, core::option::Option<std::ffi::os_str::OsString>>>"* %me to %"alloc::collections::btree::map::BTreeMap<std::ffi::os_str::OsString, core::option::Option<std::ffi::os_str::OsString>>"*
  %6 = bitcast %"alloc::collections::btree::map::BTreeMap<std::ffi::os_str::OsString, core::option::Option<std::ffi::os_str::OsString>>"* %5 to i8*
  %7 = bitcast %"alloc::collections::btree::map::BTreeMap<std::ffi::os_str::OsString, core::option::Option<std::ffi::os_str::OsString>>"* %_2.i to i8*
  call void @llvm.memcpy.p0i8.p0i8.i64(i8* align 8 %6, i8* align 8 %7, i64 24, i1 false), !noalias !8
  br label %bb1

bb1:                                              ; preds = %start
  %_3.i = bitcast %"core::mem::manually_drop::ManuallyDrop<alloc::collections::btree::map::BTreeMap<std::ffi::os_str::OsString, core::option::Option<std::ffi::os_str::OsString>>>"* %me to %"alloc::collections::btree::map::BTreeMap<std::ffi::os_str::OsString, core::option::Option<std::ffi::os_str::OsString>>"*
  br label %bb2

bb2:                                              ; preds = %bb1
  %_5 = bitcast %"alloc::collections::btree::map::BTreeMap<std::ffi::os_str::OsString, core::option::Option<std::ffi::os_str::OsString>>"* %_3.i to { i64, i64* }*
; call core::option::Option<T>::take
  %8 = call { i64, i64* } @"_ZN4core6option15Option$LT$T$GT$4take17h2a35eb1a1fd4cfa5E"({ i64, i64* }* align 8 dereferenceable(16) %_5)
  store { i64, i64* } %8, { i64, i64* }* %_4, align 8
  br label %bb3

bb3:                                              ; preds = %bb2
  %9 = getelementptr inbounds { i64, i64* }, { i64, i64* }* %_4, i32 0, i32 1
  %10 = bitcast i64** %9 to {}**
  %11 = load {}*, {}** %10, align 8
  %12 = icmp eq {}* %11, null
  %_8 = select i1 %12, i64 0, i64 1
  %13 = icmp eq i64 %_8, 1
  br i1 %13, label %bb4, label %bb8

bb4:                                              ; preds = %bb3
  %14 = getelementptr inbounds { i64, i64* }, { i64, i64* }* %_4, i32 0, i32 0
  %root.0 = load i64, i64* %14, align 8
  %15 = getelementptr inbounds { i64, i64* }, { i64, i64* }* %_4, i32 0, i32 1
  %root.1 = load i64*, i64** %15, align 8, !nonnull !10
; call alloc::collections::btree::node::NodeRef<alloc::collections::btree::node::marker::Owned,K,V,Type>::into_dying
  %16 = call { i64, i64* } @"_ZN5alloc11collections5btree4node76NodeRef$LT$alloc..collections..btree..node..marker..Owned$C$K$C$V$C$Type$GT$10into_dying17h6a15007b8a1a2f60E"(i64 %root.0, i64* nonnull %root.1)
  %_11.0 = extractvalue { i64, i64* } %16, 0
  %_11.1 = extractvalue { i64, i64* } %16, 1
  br label %bb5

bb8:                                              ; preds = %bb3
; call alloc::collections::btree::navigate::LazyLeafRange<BorrowType,K,V>::none
  call void @"_ZN5alloc11collections5btree8navigate39LazyLeafRange$LT$BorrowType$C$K$C$V$GT$4none17h195e2a098560a3d7E"(%"alloc::collections::btree::navigate::LazyLeafRange<alloc::collections::btree::node::marker::Dying, std::ffi::os_str::OsString, core::option::Option<std::ffi::os_str::OsString>>"* noalias nocapture sret(%"alloc::collections::btree::navigate::LazyLeafRange<alloc::collections::btree::node::marker::Dying, std::ffi::os_str::OsString, core::option::Option<std::ffi::os_str::OsString>>") dereferenceable(64) %_17)
  br label %bb9

bb9:                                              ; preds = %bb8
  %17 = bitcast %"alloc::collections::btree::map::IntoIter<std::ffi::os_str::OsString, core::option::Option<std::ffi::os_str::OsString>>"* %0 to %"alloc::collections::btree::navigate::LazyLeafRange<alloc::collections::btree::node::marker::Dying, std::ffi::os_str::OsString, core::option::Option<std::ffi::os_str::OsString>>"*
  %18 = bitcast %"alloc::collections::btree::navigate::LazyLeafRange<alloc::collections::btree::node::marker::Dying, std::ffi::os_str::OsString, core::option::Option<std::ffi::os_str::OsString>>"* %17 to i8*
  %19 = bitcast %"alloc::collections::btree::navigate::LazyLeafRange<alloc::collections::btree::node::marker::Dying, std::ffi::os_str::OsString, core::option::Option<std::ffi::os_str::OsString>>"* %_17 to i8*
  call void @llvm.memcpy.p0i8.p0i8.i64(i8* align 8 %18, i8* align 8 %19, i64 64, i1 false)
  %20 = getelementptr inbounds %"alloc::collections::btree::map::IntoIter<std::ffi::os_str::OsString, core::option::Option<std::ffi::os_str::OsString>>", %"alloc::collections::btree::map::IntoIter<std::ffi::os_str::OsString, core::option::Option<std::ffi::os_str::OsString>>"* %0, i32 0, i32 1
  store i64 0, i64* %20, align 8
  br label %bb10

bb10:                                             ; preds = %bb7, %bb9
  ret void

bb5:                                              ; preds = %bb4
; call alloc::collections::btree::navigate::<impl alloc::collections::btree::node::NodeRef<alloc::collections::btree::node::marker::Dying,K,V,alloc::collections::btree::node::marker::LeafOrInternal>>::full_range
  call void @"_ZN5alloc11collections5btree8navigate178_$LT$impl$u20$alloc..collections..btree..node..NodeRef$LT$alloc..collections..btree..node..marker..Dying$C$K$C$V$C$alloc..collections..btree..node..marker..LeafOrInternal$GT$$GT$10full_range17h0f63187a6ec859eaE"(%"alloc::collections::btree::navigate::LazyLeafRange<alloc::collections::btree::node::marker::Dying, std::ffi::os_str::OsString, core::option::Option<std::ffi::os_str::OsString>>"* noalias nocapture sret(%"alloc::collections::btree::navigate::LazyLeafRange<alloc::collections::btree::node::marker::Dying, std::ffi::os_str::OsString, core::option::Option<std::ffi::os_str::OsString>>") dereferenceable(64) %full_range, i64 %_11.0, i64* nonnull %_11.1)
  br label %bb6

bb6:                                              ; preds = %bb5
  %21 = bitcast %"alloc::collections::btree::navigate::LazyLeafRange<alloc::collections::btree::node::marker::Dying, std::ffi::os_str::OsString, core::option::Option<std::ffi::os_str::OsString>>"* %_13 to i8*
  %22 = bitcast %"alloc::collections::btree::navigate::LazyLeafRange<alloc::collections::btree::node::marker::Dying, std::ffi::os_str::OsString, core::option::Option<std::ffi::os_str::OsString>>"* %full_range to i8*
  call void @llvm.memcpy.p0i8.p0i8.i64(i8* align 8 %21, i8* align 8 %22, i64 64, i1 false)
  %23 = bitcast %"core::mem::manually_drop::ManuallyDrop<alloc::collections::btree::map::BTreeMap<std::ffi::os_str::OsString, core::option::Option<std::ffi::os_str::OsString>>>"* %me to %"alloc::collections::btree::map::BTreeMap<std::ffi::os_str::OsString, core::option::Option<std::ffi::os_str::OsString>>"*
  br label %bb7

bb7:                                              ; preds = %bb6
  %24 = getelementptr inbounds %"alloc::collections::btree::map::BTreeMap<std::ffi::os_str::OsString, core::option::Option<std::ffi::os_str::OsString>>", %"alloc::collections::btree::map::BTreeMap<std::ffi::os_str::OsString, core::option::Option<std::ffi::os_str::OsString>>"* %23, i32 0, i32 1
  %_14 = load i64, i64* %24, align 8
  %25 = bitcast %"alloc::collections::btree::map::IntoIter<std::ffi::os_str::OsString, core::option::Option<std::ffi::os_str::OsString>>"* %0 to %"alloc::collections::btree::navigate::LazyLeafRange<alloc::collections::btree::node::marker::Dying, std::ffi::os_str::OsString, core::option::Option<std::ffi::os_str::OsString>>"*
  %26 = bitcast %"alloc::collections::btree::navigate::LazyLeafRange<alloc::collections::btree::node::marker::Dying, std::ffi::os_str::OsString, core::option::Option<std::ffi::os_str::OsString>>"* %25 to i8*
  %27 = bitcast %"alloc::collections::btree::navigate::LazyLeafRange<alloc::collections::btree::node::marker::Dying, std::ffi::os_str::OsString, core::option::Option<std::ffi::os_str::OsString>>"* %_13 to i8*
  call void @llvm.memcpy.p0i8.p0i8.i64(i8* align 8 %26, i8* align 8 %27, i64 64, i1 false)
  %28 = getelementptr inbounds %"alloc::collections::btree::map::IntoIter<std::ffi::os_str::OsString, core::option::Option<std::ffi::os_str::OsString>>", %"alloc::collections::btree::map::IntoIter<std::ffi::os_str::OsString, core::option::Option<std::ffi::os_str::OsString>>"* %0, i32 0, i32 1
  store i64 %_14, i64* %28, align 8
  br label %bb10
}

; <core::ptr::non_null::NonNull<T> as core::convert::From<core::ptr::unique::Unique<T>>>::from
; Function Attrs: inlinehint nonlazybind uwtable
define internal nonnull i8* @"_ZN119_$LT$core..ptr..non_null..NonNull$LT$T$GT$$u20$as$u20$core..convert..From$LT$core..ptr..unique..Unique$LT$T$GT$$GT$$GT$4from17h02cfeef3dc143e8aE"(i8* nonnull %unique) unnamed_addr #0 {
start:
; call core::ptr::unique::Unique<T>::as_ptr
  %_2 = call i8* @"_ZN4core3ptr6unique15Unique$LT$T$GT$6as_ptr17hed5b76f064c29d68E"(i8* nonnull %unique)
  br label %bb1

bb1:                                              ; preds = %start
; call core::ptr::non_null::NonNull<T>::new_unchecked
  %0 = call nonnull i8* @"_ZN4core3ptr8non_null16NonNull$LT$T$GT$13new_unchecked17h6c8516836164b8b5E"(i8* %_2)
  br label %bb2

bb2:                                              ; preds = %bb1
  ret i8* %0
}

; <core::result::Result<T,F> as core::ops::try_trait::FromResidual<core::result::Result<core::convert::Infallible,E>>>::from_residual
; Function Attrs: inlinehint nonlazybind uwtable
define internal { i64, i64 } @"_ZN153_$LT$core..result..Result$LT$T$C$F$GT$$u20$as$u20$core..ops..try_trait..FromResidual$LT$core..result..Result$LT$core..convert..Infallible$C$E$GT$$GT$$GT$13from_residual17hd5150509d790d3c5E"(i64 %0, %"core::panic::location::Location"* align 8 dereferenceable(24) %1) unnamed_addr #0 {
start:
  %2 = alloca { i64, i64 }, align 8
  %residual = alloca i64, align 8
  store i64 %0, i64* %residual, align 8
  %e = load i64, i64* %residual, align 8
; call <T as core::convert::From<T>>::from
  %_3 = call i64 @"_ZN50_$LT$T$u20$as$u20$core..convert..From$LT$T$GT$$GT$4from17h79b9afaf88ea75beE"(i64 %e)
  br label %bb1

bb1:                                              ; preds = %start
  %3 = bitcast { i64, i64 }* %2 to %"core::result::Result<(), usize>::Err"*
  %4 = getelementptr inbounds %"core::result::Result<(), usize>::Err", %"core::result::Result<(), usize>::Err"* %3, i32 0, i32 1
  store i64 %_3, i64* %4, align 8
  %5 = bitcast { i64, i64 }* %2 to i64*
  store i64 1, i64* %5, align 8
  %6 = getelementptr inbounds { i64, i64 }, { i64, i64 }* %2, i32 0, i32 0
  %7 = load i64, i64* %6, align 8, !range !3
  %8 = getelementptr inbounds { i64, i64 }, { i64, i64 }* %2, i32 0, i32 1
  %9 = load i64, i64* %8, align 8
  %10 = insertvalue { i64, i64 } undef, i64 %7, 0
  %11 = insertvalue { i64, i64 } %10, i64 %9, 1
  ret { i64, i64 } %11
}

; <<alloc::collections::btree::map::IntoIter<K,V> as core::ops::drop::Drop>::drop::DropGuard<K,V> as core::ops::drop::Drop>::drop
; Function Attrs: nonlazybind uwtable
define internal void @"_ZN166_$LT$$LT$alloc..collections..btree..map..IntoIter$LT$K$C$V$GT$$u20$as$u20$core..ops..drop..Drop$GT$..drop..DropGuard$LT$K$C$V$GT$$u20$as$u20$core..ops..drop..Drop$GT$4drop17h84151ba84ab8d909E"(i64** align 8 dereferenceable(8) %self) unnamed_addr #1 {
start:
  %_7 = alloca %"alloc::collections::btree::node::Handle<alloc::collections::btree::node::NodeRef<alloc::collections::btree::node::marker::Dying, std::ffi::os_str::OsString, core::option::Option<std::ffi::os_str::OsString>, alloc::collections::btree::node::marker::LeafOrInternal>, alloc::collections::btree::node::marker::KV>", align 8
  %kv = alloca %"alloc::collections::btree::node::Handle<alloc::collections::btree::node::NodeRef<alloc::collections::btree::node::marker::Dying, std::ffi::os_str::OsString, core::option::Option<std::ffi::os_str::OsString>, alloc::collections::btree::node::marker::LeafOrInternal>, alloc::collections::btree::node::marker::KV>", align 8
  %_2 = alloca %"core::option::Option<alloc::collections::btree::node::Handle<alloc::collections::btree::node::NodeRef<alloc::collections::btree::node::marker::Dying, std::ffi::os_str::OsString, core::option::Option<std::ffi::os_str::OsString>, alloc::collections::btree::node::marker::LeafOrInternal>, alloc::collections::btree::node::marker::KV>>", align 8
  br label %bb1

bb1:                                              ; preds = %bb4, %start
  %0 = bitcast i64** %self to %"alloc::collections::btree::map::IntoIter<std::ffi::os_str::OsString, core::option::Option<std::ffi::os_str::OsString>>"**
  %_3 = load %"alloc::collections::btree::map::IntoIter<std::ffi::os_str::OsString, core::option::Option<std::ffi::os_str::OsString>>"*, %"alloc::collections::btree::map::IntoIter<std::ffi::os_str::OsString, core::option::Option<std::ffi::os_str::OsString>>"** %0, align 8, !nonnull !10
; call alloc::collections::btree::map::IntoIter<K,V>::dying_next
  call void @"_ZN5alloc11collections5btree3map21IntoIter$LT$K$C$V$GT$10dying_next17he0119b8077d44b77E"(%"core::option::Option<alloc::collections::btree::node::Handle<alloc::collections::btree::node::NodeRef<alloc::collections::btree::node::marker::Dying, std::ffi::os_str::OsString, core::option::Option<std::ffi::os_str::OsString>, alloc::collections::btree::node::marker::LeafOrInternal>, alloc::collections::btree::node::marker::KV>>"* noalias nocapture sret(%"core::option::Option<alloc::collections::btree::node::Handle<alloc::collections::btree::node::NodeRef<alloc::collections::btree::node::marker::Dying, std::ffi::os_str::OsString, core::option::Option<std::ffi::os_str::OsString>, alloc::collections::btree::node::marker::LeafOrInternal>, alloc::collections::btree::node::marker::KV>>") dereferenceable(24) %_2, %"alloc::collections::btree::map::IntoIter<std::ffi::os_str::OsString, core::option::Option<std::ffi::os_str::OsString>>"* align 8 dereferenceable(72) %_3)
  br label %bb2

bb2:                                              ; preds = %bb1
  %1 = getelementptr inbounds %"core::option::Option<alloc::collections::btree::node::Handle<alloc::collections::btree::node::NodeRef<alloc::collections::btree::node::marker::Dying, std::ffi::os_str::OsString, core::option::Option<std::ffi::os_str::OsString>, alloc::collections::btree::node::marker::LeafOrInternal>, alloc::collections::btree::node::marker::KV>>", %"core::option::Option<alloc::collections::btree::node::Handle<alloc::collections::btree::node::NodeRef<alloc::collections::btree::node::marker::Dying, std::ffi::os_str::OsString, core::option::Option<std::ffi::os_str::OsString>, alloc::collections::btree::node::marker::LeafOrInternal>, alloc::collections::btree::node::marker::KV>>"* %_2, i32 0, i32 1
  %2 = load {}*, {}** %1, align 8
  %3 = icmp eq {}* %2, null
  %_4 = select i1 %3, i64 0, i64 1
  %4 = icmp eq i64 %_4, 1
  br i1 %4, label %bb3, label %bb5

bb3:                                              ; preds = %bb2
  %5 = bitcast %"core::option::Option<alloc::collections::btree::node::Handle<alloc::collections::btree::node::NodeRef<alloc::collections::btree::node::marker::Dying, std::ffi::os_str::OsString, core::option::Option<std::ffi::os_str::OsString>, alloc::collections::btree::node::marker::LeafOrInternal>, alloc::collections::btree::node::marker::KV>>"* %_2 to %"core::option::Option<alloc::collections::btree::node::Handle<alloc::collections::btree::node::NodeRef<alloc::collections::btree::node::marker::Dying, std::ffi::os_str::OsString, core::option::Option<std::ffi::os_str::OsString>, alloc::collections::btree::node::marker::LeafOrInternal>, alloc::collections::btree::node::marker::KV>>::Some"*
  %6 = bitcast %"core::option::Option<alloc::collections::btree::node::Handle<alloc::collections::btree::node::NodeRef<alloc::collections::btree::node::marker::Dying, std::ffi::os_str::OsString, core::option::Option<std::ffi::os_str::OsString>, alloc::collections::btree::node::marker::LeafOrInternal>, alloc::collections::btree::node::marker::KV>>::Some"* %5 to %"alloc::collections::btree::node::Handle<alloc::collections::btree::node::NodeRef<alloc::collections::btree::node::marker::Dying, std::ffi::os_str::OsString, core::option::Option<std::ffi::os_str::OsString>, alloc::collections::btree::node::marker::LeafOrInternal>, alloc::collections::btree::node::marker::KV>"*
  %7 = bitcast %"alloc::collections::btree::node::Handle<alloc::collections::btree::node::NodeRef<alloc::collections::btree::node::marker::Dying, std::ffi::os_str::OsString, core::option::Option<std::ffi::os_str::OsString>, alloc::collections::btree::node::marker::LeafOrInternal>, alloc::collections::btree::node::marker::KV>"* %kv to i8*
  %8 = bitcast %"alloc::collections::btree::node::Handle<alloc::collections::btree::node::NodeRef<alloc::collections::btree::node::marker::Dying, std::ffi::os_str::OsString, core::option::Option<std::ffi::os_str::OsString>, alloc::collections::btree::node::marker::LeafOrInternal>, alloc::collections::btree::node::marker::KV>"* %6 to i8*
  call void @llvm.memcpy.p0i8.p0i8.i64(i8* align 8 %7, i8* align 8 %8, i64 24, i1 false)
  %9 = bitcast %"alloc::collections::btree::node::Handle<alloc::collections::btree::node::NodeRef<alloc::collections::btree::node::marker::Dying, std::ffi::os_str::OsString, core::option::Option<std::ffi::os_str::OsString>, alloc::collections::btree::node::marker::LeafOrInternal>, alloc::collections::btree::node::marker::KV>"* %_7 to i8*
  %10 = bitcast %"alloc::collections::btree::node::Handle<alloc::collections::btree::node::NodeRef<alloc::collections::btree::node::marker::Dying, std::ffi::os_str::OsString, core::option::Option<std::ffi::os_str::OsString>, alloc::collections::btree::node::marker::LeafOrInternal>, alloc::collections::btree::node::marker::KV>"* %kv to i8*
  call void @llvm.memcpy.p0i8.p0i8.i64(i8* align 8 %9, i8* align 8 %10, i64 24, i1 false)
; call alloc::collections::btree::node::Handle<alloc::collections::btree::node::NodeRef<alloc::collections::btree::node::marker::Dying,K,V,NodeType>,alloc::collections::btree::node::marker::KV>::drop_key_val
  call void @"_ZN5alloc11collections5btree4node173Handle$LT$alloc..collections..btree..node..NodeRef$LT$alloc..collections..btree..node..marker..Dying$C$K$C$V$C$NodeType$GT$$C$alloc..collections..btree..node..marker..KV$GT$12drop_key_val17h834756f47ea2dca8E"(%"alloc::collections::btree::node::Handle<alloc::collections::btree::node::NodeRef<alloc::collections::btree::node::marker::Dying, std::ffi::os_str::OsString, core::option::Option<std::ffi::os_str::OsString>, alloc::collections::btree::node::marker::LeafOrInternal>, alloc::collections::btree::node::marker::KV>"* noalias nocapture dereferenceable(24) %_7)
  br label %bb4

bb5:                                              ; preds = %bb2
  ret void

bb4:                                              ; preds = %bb3
  br label %bb1
}

; std::sys_common::backtrace::__rust_begin_short_backtrace
; Function Attrs: noinline nonlazybind uwtable
define internal void @_ZN3std10sys_common9backtrace28__rust_begin_short_backtrace17h2d5d313a490842fcE(void ()* nonnull %f) unnamed_addr #2 personality i32 (i32, i32, i64, %"unwind::libunwind::_Unwind_Exception"*, %"unwind::libunwind::_Unwind_Context"*)* @rust_eh_personality {
start:
  %0 = alloca { i8*, i32 }, align 8
; call core::ops::function::FnOnce::call_once
  call void @_ZN4core3ops8function6FnOnce9call_once17h4ad42c4537ae2eb7E(void ()* nonnull %f)
  br label %bb1

bb1:                                              ; preds = %start
; invoke core::hint::black_box
  invoke void @_ZN4core4hint9black_box17hb286315bd29ec90eE()
          to label %bb2 unwind label %cleanup

bb2:                                              ; preds = %bb1
  ret void

bb3:                                              ; preds = %cleanup
  br label %bb4

cleanup:                                          ; preds = %bb1
  %1 = landingpad { i8*, i32 }
          cleanup
  %2 = extractvalue { i8*, i32 } %1, 0
  %3 = extractvalue { i8*, i32 } %1, 1
  %4 = getelementptr inbounds { i8*, i32 }, { i8*, i32 }* %0, i32 0, i32 0
  store i8* %2, i8** %4, align 8
  %5 = getelementptr inbounds { i8*, i32 }, { i8*, i32 }* %0, i32 0, i32 1
  store i32 %3, i32* %5, align 8
  br label %bb3

bb4:                                              ; preds = %bb3
  %6 = bitcast { i8*, i32 }* %0 to i8**
  %7 = load i8*, i8** %6, align 8
  %8 = getelementptr inbounds { i8*, i32 }, { i8*, i32 }* %0, i32 0, i32 1
  %9 = load i32, i32* %8, align 8
  %10 = insertvalue { i8*, i32 } undef, i8* %7, 0
  %11 = insertvalue { i8*, i32 } %10, i32 %9, 1
  resume { i8*, i32 } %11
}

; std::rt::lang_start
; Function Attrs: nonlazybind uwtable
define hidden i64 @_ZN3std2rt10lang_start17hb55c9829a3e1bb46E(void ()* nonnull %main, i64 %argc, i8** %argv) unnamed_addr #1 {
start:
  %_8 = alloca i64*, align 8
  %_4 = alloca i64, align 8
  %0 = bitcast i64** %_8 to void ()**
  store void ()* %main, void ()** %0, align 8
  %_5.0 = bitcast i64** %_8 to {}*
; call std::rt::lang_start_internal
  %1 = call i64 @_ZN3std2rt19lang_start_internal17h75965f95c98f11d8E({}* nonnull align 1 %_5.0, [3 x i64]* align 8 dereferenceable(24) bitcast (<{ i8*, [16 x i8], i8*, i8*, i8*, [0 x i8] }>* @vtable.0 to [3 x i64]*), i64 %argc, i8** %argv)
  store i64 %1, i64* %_4, align 8
  br label %bb1

bb1:                                              ; preds = %start
  %v = load i64, i64* %_4, align 8
  ret i64 %v
}

; std::rt::lang_start::{{closure}}
; Function Attrs: inlinehint nonlazybind uwtable
define internal i32 @"_ZN3std2rt10lang_start28_$u7b$$u7b$closure$u7d$$u7d$17h3dc3ce69baacdd32E"(i64** align 8 dereferenceable(8) %_1) unnamed_addr #0 {
start:
  %0 = bitcast i64** %_1 to void ()**
  %_3 = load void ()*, void ()** %0, align 8, !nonnull !10
; call std::sys_common::backtrace::__rust_begin_short_backtrace
  call void @_ZN3std10sys_common9backtrace28__rust_begin_short_backtrace17h2d5d313a490842fcE(void ()* nonnull %_3)
  br label %bb1

bb1:                                              ; preds = %start
; call <() as std::process::Termination>::report
  %1 = call i32 @"_ZN54_$LT$$LP$$RP$$u20$as$u20$std..process..Termination$GT$6report17h0f7db116b0b7757bE"()
  br label %bb2

bb2:                                              ; preds = %bb1
  ret i32 %1
}

; std::env::var
; Function Attrs: nonlazybind uwtable
define internal void @_ZN3std3env3var17he648a0c354990902E(%"core::result::Result<alloc::string::String, std::env::VarError>"* noalias nocapture sret(%"core::result::Result<alloc::string::String, std::env::VarError>") dereferenceable(32) %0, [0 x i8]* nonnull align 1 %1, i64 %2) unnamed_addr #1 personality i32 (i32, i32, i64, %"unwind::libunwind::_Unwind_Exception"*, %"unwind::libunwind::_Unwind_Context"*)* @rust_eh_personality {
start:
  %3 = alloca { i8*, i32 }, align 8
  %key = alloca { [0 x i8]*, i64 }, align 8
  %4 = getelementptr inbounds { [0 x i8]*, i64 }, { [0 x i8]*, i64 }* %key, i32 0, i32 0
  store [0 x i8]* %1, [0 x i8]** %4, align 8
  %5 = getelementptr inbounds { [0 x i8]*, i64 }, { [0 x i8]*, i64 }* %key, i32 0, i32 1
  store i64 %2, i64* %5, align 8
; invoke <&T as core::convert::AsRef<U>>::as_ref
  %6 = invoke { %"std::ffi::os_str::OsStr"*, i64 } @"_ZN55_$LT$$RF$T$u20$as$u20$core..convert..AsRef$LT$U$GT$$GT$6as_ref17haaa5304c3993dafbE"({ [0 x i8]*, i64 }* align 8 dereferenceable(16) %key)
          to label %bb1 unwind label %cleanup

bb1:                                              ; preds = %start
  %_3.0 = extractvalue { %"std::ffi::os_str::OsStr"*, i64 } %6, 0
  %_3.1 = extractvalue { %"std::ffi::os_str::OsStr"*, i64 } %6, 1
; invoke std::env::_var
  invoke void @_ZN3std3env4_var17he1594e4854f7d5e9E(%"core::result::Result<alloc::string::String, std::env::VarError>"* noalias nocapture sret(%"core::result::Result<alloc::string::String, std::env::VarError>") dereferenceable(32) %0, %"std::ffi::os_str::OsStr"* nonnull align 1 %_3.0, i64 %_3.1)
          to label %bb2 unwind label %cleanup

bb4:                                              ; preds = %cleanup
  br label %bb5

cleanup:                                          ; preds = %bb1, %start
  %7 = landingpad { i8*, i32 }
          cleanup
  %8 = extractvalue { i8*, i32 } %7, 0
  %9 = extractvalue { i8*, i32 } %7, 1
  %10 = getelementptr inbounds { i8*, i32 }, { i8*, i32 }* %3, i32 0, i32 0
  store i8* %8, i8** %10, align 8
  %11 = getelementptr inbounds { i8*, i32 }, { i8*, i32 }* %3, i32 0, i32 1
  store i32 %9, i32* %11, align 8
  br label %bb4

bb2:                                              ; preds = %bb1
  br label %bb3

bb5:                                              ; preds = %bb4
  %12 = bitcast { i8*, i32 }* %3 to i8**
  %13 = load i8*, i8** %12, align 8
  %14 = getelementptr inbounds { i8*, i32 }, { i8*, i32 }* %3, i32 0, i32 1
  %15 = load i32, i32* %14, align 8
  %16 = insertvalue { i8*, i32 } undef, i8* %13, 0
  %17 = insertvalue { i8*, i32 } %16, i32 %15, 1
  resume { i8*, i32 } %17

bb3:                                              ; preds = %bb2
  ret void
}

; std::env::var_os
; Function Attrs: nonlazybind uwtable
define internal void @_ZN3std3env6var_os17hc63c42bad6d14e96E(%"core::option::Option<std::ffi::os_str::OsString>"* noalias nocapture sret(%"core::option::Option<std::ffi::os_str::OsString>") dereferenceable(24) %0, [0 x i8]* nonnull align 1 %1, i64 %2) unnamed_addr #1 personality i32 (i32, i32, i64, %"unwind::libunwind::_Unwind_Exception"*, %"unwind::libunwind::_Unwind_Context"*)* @rust_eh_personality {
start:
  %3 = alloca { i8*, i32 }, align 8
  %key = alloca { [0 x i8]*, i64 }, align 8
  %4 = getelementptr inbounds { [0 x i8]*, i64 }, { [0 x i8]*, i64 }* %key, i32 0, i32 0
  store [0 x i8]* %1, [0 x i8]** %4, align 8
  %5 = getelementptr inbounds { [0 x i8]*, i64 }, { [0 x i8]*, i64 }* %key, i32 0, i32 1
  store i64 %2, i64* %5, align 8
; invoke <&T as core::convert::AsRef<U>>::as_ref
  %6 = invoke { %"std::ffi::os_str::OsStr"*, i64 } @"_ZN55_$LT$$RF$T$u20$as$u20$core..convert..AsRef$LT$U$GT$$GT$6as_ref17haaa5304c3993dafbE"({ [0 x i8]*, i64 }* align 8 dereferenceable(16) %key)
          to label %bb1 unwind label %cleanup

bb1:                                              ; preds = %start
  %_3.0 = extractvalue { %"std::ffi::os_str::OsStr"*, i64 } %6, 0
  %_3.1 = extractvalue { %"std::ffi::os_str::OsStr"*, i64 } %6, 1
; invoke std::env::_var_os
  invoke void @_ZN3std3env7_var_os17hb7fb9924a0249547E(%"core::option::Option<std::ffi::os_str::OsString>"* noalias nocapture sret(%"core::option::Option<std::ffi::os_str::OsString>") dereferenceable(24) %0, %"std::ffi::os_str::OsStr"* nonnull align 1 %_3.0, i64 %_3.1)
          to label %bb2 unwind label %cleanup

bb4:                                              ; preds = %cleanup
  br label %bb5

cleanup:                                          ; preds = %bb1, %start
  %7 = landingpad { i8*, i32 }
          cleanup
  %8 = extractvalue { i8*, i32 } %7, 0
  %9 = extractvalue { i8*, i32 } %7, 1
  %10 = getelementptr inbounds { i8*, i32 }, { i8*, i32 }* %3, i32 0, i32 0
  store i8* %8, i8** %10, align 8
  %11 = getelementptr inbounds { i8*, i32 }, { i8*, i32 }* %3, i32 0, i32 1
  store i32 %9, i32* %11, align 8
  br label %bb4

bb2:                                              ; preds = %bb1
  br label %bb3

bb5:                                              ; preds = %bb4
  %12 = bitcast { i8*, i32 }* %3 to i8**
  %13 = load i8*, i8** %12, align 8
  %14 = getelementptr inbounds { i8*, i32 }, { i8*, i32 }* %3, i32 0, i32 1
  %15 = load i32, i32* %14, align 8
  %16 = insertvalue { i8*, i32 } undef, i8* %13, 0
  %17 = insertvalue { i8*, i32 } %16, i32 %15, 1
  resume { i8*, i32 } %17

bb3:                                              ; preds = %bb2
  ret void
}

; std::ffi::os_str::OsStr::from_inner
; Function Attrs: inlinehint nonlazybind uwtable
define internal { %"std::ffi::os_str::OsStr"*, i64 } @_ZN3std3ffi6os_str5OsStr10from_inner17h7753821bcf766850E(%"std::sys::unix::os_str::Slice"* nonnull align 1 %inner.0, i64 %inner.1) unnamed_addr #0 {
start:
  %_2.0 = bitcast %"std::sys::unix::os_str::Slice"* %inner.0 to %"std::ffi::os_str::OsStr"*
  %0 = insertvalue { %"std::ffi::os_str::OsStr"*, i64 } undef, %"std::ffi::os_str::OsStr"* %_2.0, 0
  %1 = insertvalue { %"std::ffi::os_str::OsStr"*, i64 } %0, i64 %inner.1, 1
  ret { %"std::ffi::os_str::OsStr"*, i64 } %1
}

; std::ffi::os_str::OsStr::to_string_lossy
; Function Attrs: inlinehint nonlazybind uwtable
define internal void @_ZN3std3ffi6os_str5OsStr15to_string_lossy17h5ec4e129e3df3fd2E(%"alloc::borrow::Cow<str>"* noalias nocapture sret(%"alloc::borrow::Cow<str>") dereferenceable(32) %0, %"std::ffi::os_str::OsStr"* nonnull align 1 %self.0, i64 %self.1) unnamed_addr #0 {
start:
  %1 = mul i64 %self.1, 1
  %2 = add i64 0, %1
  %3 = add i64 %2, 0
  %4 = bitcast %"std::ffi::os_str::OsStr"* %self.0 to i8*
  %5 = getelementptr i8, i8* %4, i64 0
  %_2.0 = bitcast i8* %5 to %"std::sys::unix::os_str::Slice"*
; call std::sys::unix::os_str::Slice::to_string_lossy
  call void @_ZN3std3sys4unix6os_str5Slice15to_string_lossy17h5a8bf229dd44565eE(%"alloc::borrow::Cow<str>"* noalias nocapture sret(%"alloc::borrow::Cow<str>") dereferenceable(32) %0, %"std::sys::unix::os_str::Slice"* nonnull align 1 %_2.0, i64 %self.1)
  br label %bb1

bb1:                                              ; preds = %start
  ret void
}

; std::ffi::os_str::<impl core::convert::AsRef<std::ffi::os_str::OsStr> for str>::as_ref
; Function Attrs: inlinehint nonlazybind uwtable
define internal { %"std::ffi::os_str::OsStr"*, i64 } @"_ZN3std3ffi6os_str85_$LT$impl$u20$core..convert..AsRef$LT$std..ffi..os_str..OsStr$GT$$u20$for$u20$str$GT$6as_ref17hbe87aeee01fe3c87E"([0 x i8]* nonnull align 1 %self.0, i64 %self.1) unnamed_addr #0 {
start:
; call std::sys::unix::os_str::Slice::from_str
  %0 = call { %"std::sys::unix::os_str::Slice"*, i64 } @_ZN3std3sys4unix6os_str5Slice8from_str17hda565af5618c36f8E([0 x i8]* nonnull align 1 %self.0, i64 %self.1)
  %_3.0 = extractvalue { %"std::sys::unix::os_str::Slice"*, i64 } %0, 0
  %_3.1 = extractvalue { %"std::sys::unix::os_str::Slice"*, i64 } %0, 1
  br label %bb1

bb1:                                              ; preds = %start
; call std::ffi::os_str::OsStr::from_inner
  %1 = call { %"std::ffi::os_str::OsStr"*, i64 } @_ZN3std3ffi6os_str5OsStr10from_inner17h7753821bcf766850E(%"std::sys::unix::os_str::Slice"* nonnull align 1 %_3.0, i64 %_3.1)
  %2 = extractvalue { %"std::ffi::os_str::OsStr"*, i64 } %1, 0
  %3 = extractvalue { %"std::ffi::os_str::OsStr"*, i64 } %1, 1
  br label %bb2

bb2:                                              ; preds = %bb1
  %4 = insertvalue { %"std::ffi::os_str::OsStr"*, i64 } undef, %"std::ffi::os_str::OsStr"* %2, 0
  %5 = insertvalue { %"std::ffi::os_str::OsStr"*, i64 } %4, i64 %3, 1
  ret { %"std::ffi::os_str::OsStr"*, i64 } %5
}

; std::sys::unix::os_str::Buf::as_slice
; Function Attrs: inlinehint nonlazybind uwtable
define internal { %"std::sys::unix::os_str::Slice"*, i64 } @_ZN3std3sys4unix6os_str3Buf8as_slice17h38b5d3b5dd1e4712E(%"std::sys::unix::os_str::Buf"* align 8 dereferenceable(24) %self) unnamed_addr #0 {
start:
  %0 = alloca { %"std::sys::unix::os_str::Slice"*, i64 }, align 8
  %_4 = bitcast %"std::sys::unix::os_str::Buf"* %self to %"alloc::vec::Vec<u8>"*
; call <alloc::vec::Vec<T,A> as core::ops::deref::Deref>::deref
  %1 = call { [0 x i8]*, i64 } @"_ZN72_$LT$alloc..vec..Vec$LT$T$C$A$GT$$u20$as$u20$core..ops..deref..Deref$GT$5deref17h3f46b57c871e920dE"(%"alloc::vec::Vec<u8>"* align 8 dereferenceable(24) %_4)
  %_3.0 = extractvalue { [0 x i8]*, i64 } %1, 0
  %_3.1 = extractvalue { [0 x i8]*, i64 } %1, 1
  br label %bb1

bb1:                                              ; preds = %start
  %2 = bitcast { %"std::sys::unix::os_str::Slice"*, i64 }* %0 to { [0 x i8]*, i64 }*
  %3 = getelementptr inbounds { [0 x i8]*, i64 }, { [0 x i8]*, i64 }* %2, i32 0, i32 0
  store [0 x i8]* %_3.0, [0 x i8]** %3, align 8
  %4 = getelementptr inbounds { [0 x i8]*, i64 }, { [0 x i8]*, i64 }* %2, i32 0, i32 1
  store i64 %_3.1, i64* %4, align 8
  %5 = getelementptr inbounds { %"std::sys::unix::os_str::Slice"*, i64 }, { %"std::sys::unix::os_str::Slice"*, i64 }* %0, i32 0, i32 0
  %6 = load %"std::sys::unix::os_str::Slice"*, %"std::sys::unix::os_str::Slice"** %5, align 8, !nonnull !10
  %7 = getelementptr inbounds { %"std::sys::unix::os_str::Slice"*, i64 }, { %"std::sys::unix::os_str::Slice"*, i64 }* %0, i32 0, i32 1
  %8 = load i64, i64* %7, align 8
  br label %bb2

bb2:                                              ; preds = %bb1
  %9 = insertvalue { %"std::sys::unix::os_str::Slice"*, i64 } undef, %"std::sys::unix::os_str::Slice"* %6, 0
  %10 = insertvalue { %"std::sys::unix::os_str::Slice"*, i64 } %9, i64 %8, 1
  ret { %"std::sys::unix::os_str::Slice"*, i64 } %10
}

; std::sys::unix::os_str::Slice::from_u8_slice
; Function Attrs: inlinehint nonlazybind uwtable
define internal { %"std::sys::unix::os_str::Slice"*, i64 } @_ZN3std3sys4unix6os_str5Slice13from_u8_slice17h67a0e9f6935272f9E([0 x i8]* nonnull align 1 %s.0, i64 %s.1) unnamed_addr #0 {
start:
  %0 = alloca { %"std::sys::unix::os_str::Slice"*, i64 }, align 8
  %1 = bitcast { %"std::sys::unix::os_str::Slice"*, i64 }* %0 to { [0 x i8]*, i64 }*
  %2 = getelementptr inbounds { [0 x i8]*, i64 }, { [0 x i8]*, i64 }* %1, i32 0, i32 0
  store [0 x i8]* %s.0, [0 x i8]** %2, align 8
  %3 = getelementptr inbounds { [0 x i8]*, i64 }, { [0 x i8]*, i64 }* %1, i32 0, i32 1
  store i64 %s.1, i64* %3, align 8
  %4 = getelementptr inbounds { %"std::sys::unix::os_str::Slice"*, i64 }, { %"std::sys::unix::os_str::Slice"*, i64 }* %0, i32 0, i32 0
  %5 = load %"std::sys::unix::os_str::Slice"*, %"std::sys::unix::os_str::Slice"** %4, align 8, !nonnull !10
  %6 = getelementptr inbounds { %"std::sys::unix::os_str::Slice"*, i64 }, { %"std::sys::unix::os_str::Slice"*, i64 }* %0, i32 0, i32 1
  %7 = load i64, i64* %6, align 8
  br label %bb1

bb1:                                              ; preds = %start
  %8 = insertvalue { %"std::sys::unix::os_str::Slice"*, i64 } undef, %"std::sys::unix::os_str::Slice"* %5, 0
  %9 = insertvalue { %"std::sys::unix::os_str::Slice"*, i64 } %8, i64 %7, 1
  ret { %"std::sys::unix::os_str::Slice"*, i64 } %9
}

; std::sys::unix::os_str::Slice::from_str
; Function Attrs: inlinehint nonlazybind uwtable
define internal { %"std::sys::unix::os_str::Slice"*, i64 } @_ZN3std3sys4unix6os_str5Slice8from_str17hda565af5618c36f8E([0 x i8]* nonnull align 1 %s.0, i64 %s.1) unnamed_addr #0 {
start:
  %0 = alloca { [0 x i8]*, i64 }, align 8
  %1 = getelementptr inbounds { [0 x i8]*, i64 }, { [0 x i8]*, i64 }* %0, i32 0, i32 0
  store [0 x i8]* %s.0, [0 x i8]** %1, align 8
  %2 = getelementptr inbounds { [0 x i8]*, i64 }, { [0 x i8]*, i64 }* %0, i32 0, i32 1
  store i64 %s.1, i64* %2, align 8
  %3 = getelementptr inbounds { [0 x i8]*, i64 }, { [0 x i8]*, i64 }* %0, i32 0, i32 0
  %4 = load [0 x i8]*, [0 x i8]** %3, align 8, !nonnull !10
  %5 = getelementptr inbounds { [0 x i8]*, i64 }, { [0 x i8]*, i64 }* %0, i32 0, i32 1
  %6 = load i64, i64* %5, align 8
  %7 = insertvalue { [0 x i8]*, i64 } undef, [0 x i8]* %4, 0
  %8 = insertvalue { [0 x i8]*, i64 } %7, i64 %6, 1
  %_3.0 = extractvalue { [0 x i8]*, i64 } %8, 0
  %_3.1 = extractvalue { [0 x i8]*, i64 } %8, 1
  br label %bb1

bb1:                                              ; preds = %start
; call std::sys::unix::os_str::Slice::from_u8_slice
  %9 = call { %"std::sys::unix::os_str::Slice"*, i64 } @_ZN3std3sys4unix6os_str5Slice13from_u8_slice17h67a0e9f6935272f9E([0 x i8]* nonnull align 1 %_3.0, i64 %_3.1)
  %10 = extractvalue { %"std::sys::unix::os_str::Slice"*, i64 } %9, 0
  %11 = extractvalue { %"std::sys::unix::os_str::Slice"*, i64 } %9, 1
  br label %bb2

bb2:                                              ; preds = %bb1
  %12 = insertvalue { %"std::sys::unix::os_str::Slice"*, i64 } undef, %"std::sys::unix::os_str::Slice"* %10, 0
  %13 = insertvalue { %"std::sys::unix::os_str::Slice"*, i64 } %12, i64 %11, 1
  ret { %"std::sys::unix::os_str::Slice"*, i64 } %13
}

; std::sys::unix::process::process_common::ExitCode::as_i32
; Function Attrs: inlinehint nonlazybind uwtable
define internal i32 @_ZN3std3sys4unix7process14process_common8ExitCode6as_i3217h8d118f1fa9007934E(i8* align 1 dereferenceable(1) %self) unnamed_addr #0 {
start:
  %_2 = load i8, i8* %self, align 1
  %0 = zext i8 %_2 to i32
  ret i32 %0
}

; std::process::Command::arg
; Function Attrs: nonlazybind uwtable
define internal align 8 dereferenceable(200) %"std::process::Command"* @_ZN3std7process7Command3arg17h926b57cd95f0cb25E(%"std::process::Command"* align 8 dereferenceable(200) %self, [0 x i8]* nonnull align 1 %0, i64 %1) unnamed_addr #1 personality i32 (i32, i32, i64, %"unwind::libunwind::_Unwind_Exception"*, %"unwind::libunwind::_Unwind_Context"*)* @rust_eh_personality {
start:
  %2 = alloca { i8*, i32 }, align 8
  %arg = alloca { [0 x i8]*, i64 }, align 8
  %3 = getelementptr inbounds { [0 x i8]*, i64 }, { [0 x i8]*, i64 }* %arg, i32 0, i32 0
  store [0 x i8]* %0, [0 x i8]** %3, align 8
  %4 = getelementptr inbounds { [0 x i8]*, i64 }, { [0 x i8]*, i64 }* %arg, i32 0, i32 1
  store i64 %1, i64* %4, align 8
  %_5 = bitcast %"std::process::Command"* %self to %"std::sys::unix::process::process_common::Command"*
; invoke <&T as core::convert::AsRef<U>>::as_ref
  %5 = invoke { %"std::ffi::os_str::OsStr"*, i64 } @"_ZN55_$LT$$RF$T$u20$as$u20$core..convert..AsRef$LT$U$GT$$GT$6as_ref17haaa5304c3993dafbE"({ [0 x i8]*, i64 }* align 8 dereferenceable(16) %arg)
          to label %bb1 unwind label %cleanup

bb1:                                              ; preds = %start
  %_7.0 = extractvalue { %"std::ffi::os_str::OsStr"*, i64 } %5, 0
  %_7.1 = extractvalue { %"std::ffi::os_str::OsStr"*, i64 } %5, 1
; invoke std::sys::unix::process::process_common::Command::arg
  invoke void @_ZN3std3sys4unix7process14process_common7Command3arg17h81c66916bc915c6aE(%"std::sys::unix::process::process_common::Command"* align 8 dereferenceable(200) %_5, %"std::ffi::os_str::OsStr"* nonnull align 1 %_7.0, i64 %_7.1)
          to label %bb2 unwind label %cleanup

bb4:                                              ; preds = %cleanup
  br label %bb5

cleanup:                                          ; preds = %bb1, %start
  %6 = landingpad { i8*, i32 }
          cleanup
  %7 = extractvalue { i8*, i32 } %6, 0
  %8 = extractvalue { i8*, i32 } %6, 1
  %9 = getelementptr inbounds { i8*, i32 }, { i8*, i32 }* %2, i32 0, i32 0
  store i8* %7, i8** %9, align 8
  %10 = getelementptr inbounds { i8*, i32 }, { i8*, i32 }* %2, i32 0, i32 1
  store i32 %8, i32* %10, align 8
  br label %bb4

bb2:                                              ; preds = %bb1
  br label %bb3

bb5:                                              ; preds = %bb4
  %11 = bitcast { i8*, i32 }* %2 to i8**
  %12 = load i8*, i8** %11, align 8
  %13 = getelementptr inbounds { i8*, i32 }, { i8*, i32 }* %2, i32 0, i32 1
  %14 = load i32, i32* %13, align 8
  %15 = insertvalue { i8*, i32 } undef, i8* %12, 0
  %16 = insertvalue { i8*, i32 } %15, i32 %14, 1
  resume { i8*, i32 } %16

bb3:                                              ; preds = %bb2
  ret %"std::process::Command"* %self
}

; std::process::Command::new
; Function Attrs: nonlazybind uwtable
define internal void @_ZN3std7process7Command3new17ha56af2f418ca21f8E(%"std::process::Command"* noalias nocapture sret(%"std::process::Command") dereferenceable(200) %0, %"std::ffi::os_str::OsString"* noalias nocapture dereferenceable(24) %program) unnamed_addr #1 personality i32 (i32, i32, i64, %"unwind::libunwind::_Unwind_Exception"*, %"unwind::libunwind::_Unwind_Context"*)* @rust_eh_personality {
start:
  %1 = alloca { i8*, i32 }, align 8
  %_2 = alloca %"std::sys::unix::process::process_common::Command", align 8
; invoke <std::ffi::os_str::OsString as core::convert::AsRef<std::ffi::os_str::OsStr>>::as_ref
  %2 = invoke { %"std::ffi::os_str::OsStr"*, i64 } @"_ZN98_$LT$std..ffi..os_str..OsString$u20$as$u20$core..convert..AsRef$LT$std..ffi..os_str..OsStr$GT$$GT$6as_ref17h9cedb96f24724e24E"(%"std::ffi::os_str::OsString"* align 8 dereferenceable(24) %program)
          to label %bb1 unwind label %cleanup

bb1:                                              ; preds = %start
  %_4.0 = extractvalue { %"std::ffi::os_str::OsStr"*, i64 } %2, 0
  %_4.1 = extractvalue { %"std::ffi::os_str::OsStr"*, i64 } %2, 1
; invoke std::sys::unix::process::process_common::Command::new
  invoke void @_ZN3std3sys4unix7process14process_common7Command3new17h1e558472110c8f47E(%"std::sys::unix::process::process_common::Command"* noalias nocapture sret(%"std::sys::unix::process::process_common::Command") dereferenceable(200) %_2, %"std::ffi::os_str::OsStr"* nonnull align 1 %_4.0, i64 %_4.1)
          to label %bb2 unwind label %cleanup

bb4:                                              ; preds = %cleanup
; call core::ptr::drop_in_place<std::ffi::os_str::OsString>
  call void @"_ZN4core3ptr47drop_in_place$LT$std..ffi..os_str..OsString$GT$17ha3b52ed70e7626b8E"(%"std::ffi::os_str::OsString"* %program) #14
  br label %bb5

cleanup:                                          ; preds = %bb1, %start
  %3 = landingpad { i8*, i32 }
          cleanup
  %4 = extractvalue { i8*, i32 } %3, 0
  %5 = extractvalue { i8*, i32 } %3, 1
  %6 = getelementptr inbounds { i8*, i32 }, { i8*, i32 }* %1, i32 0, i32 0
  store i8* %4, i8** %6, align 8
  %7 = getelementptr inbounds { i8*, i32 }, { i8*, i32 }* %1, i32 0, i32 1
  store i32 %5, i32* %7, align 8
  br label %bb4

bb2:                                              ; preds = %bb1
  %8 = bitcast %"std::process::Command"* %0 to %"std::sys::unix::process::process_common::Command"*
  %9 = bitcast %"std::sys::unix::process::process_common::Command"* %8 to i8*
  %10 = bitcast %"std::sys::unix::process::process_common::Command"* %_2 to i8*
  call void @llvm.memcpy.p0i8.p0i8.i64(i8* align 8 %9, i8* align 8 %10, i64 200, i1 false)
; call core::ptr::drop_in_place<std::ffi::os_str::OsString>
  call void @"_ZN4core3ptr47drop_in_place$LT$std..ffi..os_str..OsString$GT$17ha3b52ed70e7626b8E"(%"std::ffi::os_str::OsString"* %program)
  br label %bb3

bb5:                                              ; preds = %bb4
  %11 = bitcast { i8*, i32 }* %1 to i8**
  %12 = load i8*, i8** %11, align 8
  %13 = getelementptr inbounds { i8*, i32 }, { i8*, i32 }* %1, i32 0, i32 1
  %14 = load i32, i32* %13, align 8
  %15 = insertvalue { i8*, i32 } undef, i8* %12, 0
  %16 = insertvalue { i8*, i32 } %15, i32 %14, 1
  resume { i8*, i32 } %16

bb3:                                              ; preds = %bb2
  ret void
}

; <usize as core::iter::range::Step>::forward_unchecked
; Function Attrs: inlinehint nonlazybind uwtable
define internal i64 @"_ZN49_$LT$usize$u20$as$u20$core..iter..range..Step$GT$17forward_unchecked17h6a8c45c24320b5beE"(i64 %start1, i64 %n) unnamed_addr #0 {
start:
  %0 = alloca i64, align 8
  %1 = add nuw i64 %start1, %n
  store i64 %1, i64* %0, align 8
  %2 = load i64, i64* %0, align 8
  br label %bb1

bb1:                                              ; preds = %start
  ret i64 %2
}

; <usize as core::iter::range::Step>::backward_unchecked
; Function Attrs: inlinehint nonlazybind uwtable
define internal i64 @"_ZN49_$LT$usize$u20$as$u20$core..iter..range..Step$GT$18backward_unchecked17h0d800092527f0807E"(i64 %start1, i64 %n) unnamed_addr #0 {
start:
  %0 = alloca i64, align 8
  %1 = sub nuw i64 %start1, %n
  store i64 %1, i64* %0, align 8
  %2 = load i64, i64* %0, align 8
  br label %bb1

bb1:                                              ; preds = %start
  ret i64 %2
}

; core::cmp::Ord::max
; Function Attrs: inlinehint nonlazybind uwtable
define internal i64 @_ZN4core3cmp3Ord3max17h424f3ebd6e443360E(i64 %self, i64 %other) unnamed_addr #0 {
start:
; call core::cmp::max_by
  %0 = call i64 @_ZN4core3cmp6max_by17h0e2fcf60be139ec2E(i64 %self, i64 %other)
  br label %bb1

bb1:                                              ; preds = %start
  ret i64 %0
}

; core::cmp::max
; Function Attrs: inlinehint nonlazybind uwtable
define internal i64 @_ZN4core3cmp3max17h4a8ebef7bb759a29E(i64 %v1, i64 %v2) unnamed_addr #0 {
start:
; call core::cmp::Ord::max
  %0 = call i64 @_ZN4core3cmp3Ord3max17h424f3ebd6e443360E(i64 %v1, i64 %v2)
  br label %bb1

bb1:                                              ; preds = %start
  ret i64 %0
}

; core::cmp::impls::<impl core::cmp::Ord for usize>::cmp
; Function Attrs: inlinehint nonlazybind uwtable
define internal i8 @"_ZN4core3cmp5impls50_$LT$impl$u20$core..cmp..Ord$u20$for$u20$usize$GT$3cmp17hdf49579bc7770dc5E"(i64* align 8 dereferenceable(8) %self, i64* align 8 dereferenceable(8) %other) unnamed_addr #0 {
start:
  %0 = alloca i8, align 1
  %_4 = load i64, i64* %self, align 8
  %_5 = load i64, i64* %other, align 8
  %_3 = icmp ult i64 %_4, %_5
  br i1 %_3, label %bb1, label %bb2

bb2:                                              ; preds = %start
  %_7 = load i64, i64* %self, align 8
  %_8 = load i64, i64* %other, align 8
  %_6 = icmp eq i64 %_7, %_8
  br i1 %_6, label %bb3, label %bb4

bb1:                                              ; preds = %start
  store i8 -1, i8* %0, align 1
  br label %bb6

bb6:                                              ; preds = %bb5, %bb1
  %1 = load i8, i8* %0, align 1, !range !11
  ret i8 %1

bb4:                                              ; preds = %bb2
  store i8 1, i8* %0, align 1
  br label %bb5

bb3:                                              ; preds = %bb2
  store i8 0, i8* %0, align 1
  br label %bb5

bb5:                                              ; preds = %bb4, %bb3
  br label %bb6
}

; core::cmp::impls::<impl core::cmp::PartialOrd for usize>::lt
; Function Attrs: inlinehint nonlazybind uwtable
define internal zeroext i1 @"_ZN4core3cmp5impls57_$LT$impl$u20$core..cmp..PartialOrd$u20$for$u20$usize$GT$2lt17h6c71f5de9fb3efd4E"(i64* align 8 dereferenceable(8) %self, i64* align 8 dereferenceable(8) %other) unnamed_addr #0 {
start:
  %_3 = load i64, i64* %self, align 8
  %_4 = load i64, i64* %other, align 8
  %0 = icmp ult i64 %_3, %_4
  ret i1 %0
}

; core::cmp::impls::<impl core::cmp::PartialEq for ()>::eq
; Function Attrs: inlinehint nonlazybind uwtable
define internal zeroext i1 @"_ZN4core3cmp5impls59_$LT$impl$u20$core..cmp..PartialEq$u20$for$u20$$LP$$RP$$GT$2eq17h9f76eb3fd6b95741E"({}* nonnull align 1 %self, {}* nonnull align 1 %_other) unnamed_addr #0 {
start:
  ret i1 true
}

; core::cmp::impls::<impl core::cmp::PartialEq<&B> for &A>::eq
; Function Attrs: inlinehint nonlazybind uwtable
define internal zeroext i1 @"_ZN4core3cmp5impls69_$LT$impl$u20$core..cmp..PartialEq$LT$$RF$B$GT$$u20$for$u20$$RF$A$GT$2eq17h2768cdf283d2722eE"({ [0 x i8]*, i64 }* align 8 dereferenceable(16) %self, { [0 x i8]*, i64 }* align 8 dereferenceable(16) %other) unnamed_addr #0 {
start:
  %0 = getelementptr inbounds { [0 x i8]*, i64 }, { [0 x i8]*, i64 }* %self, i32 0, i32 0
  %_3.0 = load [0 x i8]*, [0 x i8]** %0, align 8, !nonnull !10
  %1 = getelementptr inbounds { [0 x i8]*, i64 }, { [0 x i8]*, i64 }* %self, i32 0, i32 1
  %_3.1 = load i64, i64* %1, align 8
  %2 = getelementptr inbounds { [0 x i8]*, i64 }, { [0 x i8]*, i64 }* %other, i32 0, i32 0
  %_4.0 = load [0 x i8]*, [0 x i8]** %2, align 8, !nonnull !10
  %3 = getelementptr inbounds { [0 x i8]*, i64 }, { [0 x i8]*, i64 }* %other, i32 0, i32 1
  %_4.1 = load i64, i64* %3, align 8
; call core::str::traits::<impl core::cmp::PartialEq for str>::eq
  %4 = call zeroext i1 @"_ZN4core3str6traits54_$LT$impl$u20$core..cmp..PartialEq$u20$for$u20$str$GT$2eq17hc832a8bd94794d11E"([0 x i8]* nonnull align 1 %_3.0, i64 %_3.1, [0 x i8]* nonnull align 1 %_4.0, i64 %_4.1)
  br label %bb1

bb1:                                              ; preds = %start
  ret i1 %4
}

; core::cmp::impls::<impl core::cmp::PartialEq<&B> for &A>::eq
; Function Attrs: inlinehint nonlazybind uwtable
define internal zeroext i1 @"_ZN4core3cmp5impls69_$LT$impl$u20$core..cmp..PartialEq$LT$$RF$B$GT$$u20$for$u20$$RF$A$GT$2eq17h4589dceff88549bfE"({ [0 x i8]*, i64 }* align 8 dereferenceable(16) %self, { [0 x i8]*, i64 }* align 8 dereferenceable(16) %other) unnamed_addr #0 {
start:
  %0 = getelementptr inbounds { [0 x i8]*, i64 }, { [0 x i8]*, i64 }* %self, i32 0, i32 0
  %_3.0 = load [0 x i8]*, [0 x i8]** %0, align 8, !nonnull !10
  %1 = getelementptr inbounds { [0 x i8]*, i64 }, { [0 x i8]*, i64 }* %self, i32 0, i32 1
  %_3.1 = load i64, i64* %1, align 8
  %2 = getelementptr inbounds { [0 x i8]*, i64 }, { [0 x i8]*, i64 }* %other, i32 0, i32 0
  %_4.0 = load [0 x i8]*, [0 x i8]** %2, align 8, !nonnull !10
  %3 = getelementptr inbounds { [0 x i8]*, i64 }, { [0 x i8]*, i64 }* %other, i32 0, i32 1
  %_4.1 = load i64, i64* %3, align 8
; call core::slice::cmp::<impl core::cmp::PartialEq<[B]> for [A]>::eq
  %4 = call zeroext i1 @"_ZN4core5slice3cmp81_$LT$impl$u20$core..cmp..PartialEq$LT$$u5b$B$u5d$$GT$$u20$for$u20$$u5b$A$u5d$$GT$2eq17h391a3775a2686059E"([0 x i8]* nonnull align 1 %_3.0, i64 %_3.1, [0 x i8]* nonnull align 1 %_4.0, i64 %_4.1)
  br label %bb1

bb1:                                              ; preds = %start
  ret i1 %4
}

; core::cmp::impls::<impl core::cmp::PartialEq<&B> for &A>::ne
; Function Attrs: inlinehint nonlazybind uwtable
define internal zeroext i1 @"_ZN4core3cmp5impls69_$LT$impl$u20$core..cmp..PartialEq$LT$$RF$B$GT$$u20$for$u20$$RF$A$GT$2ne17hd9bd4249b9e65714E"({ [0 x i8]*, i64 }* align 8 dereferenceable(16) %self, { [0 x i8]*, i64 }* align 8 dereferenceable(16) %other) unnamed_addr #0 {
start:
  %0 = getelementptr inbounds { [0 x i8]*, i64 }, { [0 x i8]*, i64 }* %self, i32 0, i32 0
  %_3.0 = load [0 x i8]*, [0 x i8]** %0, align 8, !nonnull !10
  %1 = getelementptr inbounds { [0 x i8]*, i64 }, { [0 x i8]*, i64 }* %self, i32 0, i32 1
  %_3.1 = load i64, i64* %1, align 8
  %2 = getelementptr inbounds { [0 x i8]*, i64 }, { [0 x i8]*, i64 }* %other, i32 0, i32 0
  %_4.0 = load [0 x i8]*, [0 x i8]** %2, align 8, !nonnull !10
  %3 = getelementptr inbounds { [0 x i8]*, i64 }, { [0 x i8]*, i64 }* %other, i32 0, i32 1
  %_4.1 = load i64, i64* %3, align 8
; call core::str::traits::<impl core::cmp::PartialEq for str>::ne
  %4 = call zeroext i1 @"_ZN4core3str6traits54_$LT$impl$u20$core..cmp..PartialEq$u20$for$u20$str$GT$2ne17h7cc24f55a739091cE"([0 x i8]* nonnull align 1 %_3.0, i64 %_3.1, [0 x i8]* nonnull align 1 %_4.0, i64 %_4.1)
  br label %bb1

bb1:                                              ; preds = %start
  ret i1 %4
}

; core::cmp::max_by
; Function Attrs: inlinehint nonlazybind uwtable
define internal i64 @_ZN4core3cmp6max_by17h0e2fcf60be139ec2E(i64 %0, i64 %1) unnamed_addr #0 personality i32 (i32, i32, i64, %"unwind::libunwind::_Unwind_Exception"*, %"unwind::libunwind::_Unwind_Context"*)* @rust_eh_personality {
start:
  %2 = alloca { i8*, i32 }, align 8
  %_13 = alloca i8, align 1
  %_12 = alloca i8, align 1
  %_6 = alloca { i64*, i64* }, align 8
  %_4 = alloca i8, align 1
  %3 = alloca i64, align 8
  %v2 = alloca i64, align 8
  %v1 = alloca i64, align 8
  store i64 %0, i64* %v1, align 8
  store i64 %1, i64* %v2, align 8
  store i8 0, i8* %_13, align 1
  store i8 0, i8* %_12, align 1
  store i8 1, i8* %_13, align 1
  store i8 1, i8* %_12, align 1
  %4 = bitcast { i64*, i64* }* %_6 to i64**
  store i64* %v1, i64** %4, align 8
  %5 = getelementptr inbounds { i64*, i64* }, { i64*, i64* }* %_6, i32 0, i32 1
  store i64* %v2, i64** %5, align 8
  %6 = getelementptr inbounds { i64*, i64* }, { i64*, i64* }* %_6, i32 0, i32 0
  %7 = load i64*, i64** %6, align 8, !nonnull !10
  %8 = getelementptr inbounds { i64*, i64* }, { i64*, i64* }* %_6, i32 0, i32 1
  %9 = load i64*, i64** %8, align 8, !nonnull !10
; invoke core::ops::function::FnOnce::call_once
  %10 = invoke i8 @_ZN4core3ops8function6FnOnce9call_once17h170d0211ed54dc88E(i64* align 8 dereferenceable(8) %7, i64* align 8 dereferenceable(8) %9)
          to label %bb1 unwind label %cleanup, !range !11

bb1:                                              ; preds = %start
  store i8 %10, i8* %_4, align 1
  %_11 = load i8, i8* %_4, align 1, !range !11
  switch i8 %_11, label %bb3 [
    i8 -1, label %bb4
    i8 0, label %bb4
    i8 1, label %bb2
  ]

bb8:                                              ; preds = %cleanup
  br label %bb13

cleanup:                                          ; preds = %start
  %11 = landingpad { i8*, i32 }
          cleanup
  %12 = extractvalue { i8*, i32 } %11, 0
  %13 = extractvalue { i8*, i32 } %11, 1
  %14 = getelementptr inbounds { i8*, i32 }, { i8*, i32 }* %2, i32 0, i32 0
  store i8* %12, i8** %14, align 8
  %15 = getelementptr inbounds { i8*, i32 }, { i8*, i32 }* %2, i32 0, i32 1
  store i32 %13, i32* %15, align 8
  br label %bb8

bb13:                                             ; preds = %bb8
  %16 = load i8, i8* %_13, align 1, !range !4
  %17 = trunc i8 %16 to i1
  br i1 %17, label %bb12, label %bb9

bb3:                                              ; preds = %bb1
  unreachable

bb4:                                              ; preds = %bb1, %bb1
  store i8 0, i8* %_12, align 1
  %18 = load i64, i64* %v2, align 8
  store i64 %18, i64* %3, align 8
  br label %bb5

bb2:                                              ; preds = %bb1
  store i8 0, i8* %_13, align 1
  %19 = load i64, i64* %v1, align 8
  store i64 %19, i64* %3, align 8
  br label %bb5

bb5:                                              ; preds = %bb4, %bb2
  %20 = load i8, i8* %_12, align 1, !range !4
  %21 = trunc i8 %20 to i1
  br i1 %21, label %bb10, label %bb6

bb6:                                              ; preds = %bb10, %bb5
  %22 = load i8, i8* %_13, align 1, !range !4
  %23 = trunc i8 %22 to i1
  br i1 %23, label %bb11, label %bb7

bb10:                                             ; preds = %bb5
  br label %bb6

bb9:                                              ; preds = %bb12, %bb13
  %24 = bitcast { i8*, i32 }* %2 to i8**
  %25 = load i8*, i8** %24, align 8
  %26 = getelementptr inbounds { i8*, i32 }, { i8*, i32 }* %2, i32 0, i32 1
  %27 = load i32, i32* %26, align 8
  %28 = insertvalue { i8*, i32 } undef, i8* %25, 0
  %29 = insertvalue { i8*, i32 } %28, i32 %27, 1
  resume { i8*, i32 } %29

bb12:                                             ; preds = %bb13
  br label %bb9

bb7:                                              ; preds = %bb11, %bb6
  %30 = load i64, i64* %3, align 8
  ret i64 %30

bb11:                                             ; preds = %bb6
  br label %bb7
}

; core::fmt::ArgumentV1::new
; Function Attrs: nonlazybind uwtable
define internal { i8*, i64* } @_ZN4core3fmt10ArgumentV13new17h02765e06946415a9E(i32* align 4 dereferenceable(4) %x, i1 (i32*, %"core::fmt::Formatter"*)* nonnull %f) unnamed_addr #1 {
start:
  %0 = alloca %"core::fmt::Opaque"*, align 8
  %1 = alloca i1 (%"core::fmt::Opaque"*, %"core::fmt::Formatter"*)*, align 8
  %2 = alloca { i8*, i64* }, align 8
  %3 = bitcast i1 (i32*, %"core::fmt::Formatter"*)* %f to i1 (%"core::fmt::Opaque"*, %"core::fmt::Formatter"*)*
  store i1 (%"core::fmt::Opaque"*, %"core::fmt::Formatter"*)* %3, i1 (%"core::fmt::Opaque"*, %"core::fmt::Formatter"*)** %1, align 8
  %_3 = load i1 (%"core::fmt::Opaque"*, %"core::fmt::Formatter"*)*, i1 (%"core::fmt::Opaque"*, %"core::fmt::Formatter"*)** %1, align 8, !nonnull !10
  br label %bb1

bb1:                                              ; preds = %start
  %4 = bitcast i32* %x to %"core::fmt::Opaque"*
  store %"core::fmt::Opaque"* %4, %"core::fmt::Opaque"** %0, align 8
  %_5 = load %"core::fmt::Opaque"*, %"core::fmt::Opaque"** %0, align 8, !nonnull !10
  br label %bb2

bb2:                                              ; preds = %bb1
  %5 = bitcast { i8*, i64* }* %2 to %"core::fmt::Opaque"**
  store %"core::fmt::Opaque"* %_5, %"core::fmt::Opaque"** %5, align 8
  %6 = getelementptr inbounds { i8*, i64* }, { i8*, i64* }* %2, i32 0, i32 1
  %7 = bitcast i64** %6 to i1 (%"core::fmt::Opaque"*, %"core::fmt::Formatter"*)**
  store i1 (%"core::fmt::Opaque"*, %"core::fmt::Formatter"*)* %_3, i1 (%"core::fmt::Opaque"*, %"core::fmt::Formatter"*)** %7, align 8
  %8 = getelementptr inbounds { i8*, i64* }, { i8*, i64* }* %2, i32 0, i32 0
  %9 = load i8*, i8** %8, align 8, !nonnull !10
  %10 = getelementptr inbounds { i8*, i64* }, { i8*, i64* }* %2, i32 0, i32 1
  %11 = load i64*, i64** %10, align 8, !nonnull !10
  %12 = insertvalue { i8*, i64* } undef, i8* %9, 0
  %13 = insertvalue { i8*, i64* } %12, i64* %11, 1
  ret { i8*, i64* } %13
}

; core::fmt::ArgumentV1::new
; Function Attrs: nonlazybind uwtable
define internal { i8*, i64* } @_ZN4core3fmt10ArgumentV13new17hcd2dec56d8b74dd0E(i64* align 8 dereferenceable(8) %x, i1 (i64*, %"core::fmt::Formatter"*)* nonnull %f) unnamed_addr #1 {
start:
  %0 = alloca %"core::fmt::Opaque"*, align 8
  %1 = alloca i1 (%"core::fmt::Opaque"*, %"core::fmt::Formatter"*)*, align 8
  %2 = alloca { i8*, i64* }, align 8
  %3 = bitcast i1 (i64*, %"core::fmt::Formatter"*)* %f to i1 (%"core::fmt::Opaque"*, %"core::fmt::Formatter"*)*
  store i1 (%"core::fmt::Opaque"*, %"core::fmt::Formatter"*)* %3, i1 (%"core::fmt::Opaque"*, %"core::fmt::Formatter"*)** %1, align 8
  %_3 = load i1 (%"core::fmt::Opaque"*, %"core::fmt::Formatter"*)*, i1 (%"core::fmt::Opaque"*, %"core::fmt::Formatter"*)** %1, align 8, !nonnull !10
  br label %bb1

bb1:                                              ; preds = %start
  %4 = bitcast i64* %x to %"core::fmt::Opaque"*
  store %"core::fmt::Opaque"* %4, %"core::fmt::Opaque"** %0, align 8
  %_5 = load %"core::fmt::Opaque"*, %"core::fmt::Opaque"** %0, align 8, !nonnull !10
  br label %bb2

bb2:                                              ; preds = %bb1
  %5 = bitcast { i8*, i64* }* %2 to %"core::fmt::Opaque"**
  store %"core::fmt::Opaque"* %_5, %"core::fmt::Opaque"** %5, align 8
  %6 = getelementptr inbounds { i8*, i64* }, { i8*, i64* }* %2, i32 0, i32 1
  %7 = bitcast i64** %6 to i1 (%"core::fmt::Opaque"*, %"core::fmt::Formatter"*)**
  store i1 (%"core::fmt::Opaque"*, %"core::fmt::Formatter"*)* %_3, i1 (%"core::fmt::Opaque"*, %"core::fmt::Formatter"*)** %7, align 8
  %8 = getelementptr inbounds { i8*, i64* }, { i8*, i64* }* %2, i32 0, i32 0
  %9 = load i8*, i8** %8, align 8, !nonnull !10
  %10 = getelementptr inbounds { i8*, i64* }, { i8*, i64* }* %2, i32 0, i32 1
  %11 = load i64*, i64** %10, align 8, !nonnull !10
  %12 = insertvalue { i8*, i64* } undef, i8* %9, 0
  %13 = insertvalue { i8*, i64* } %12, i64* %11, 1
  ret { i8*, i64* } %13
}

; core::fmt::Arguments::new_v1
; Function Attrs: inlinehint nonlazybind uwtable
define internal void @_ZN4core3fmt9Arguments6new_v117h07cfc24c2814cd43E(%"core::fmt::Arguments"* noalias nocapture sret(%"core::fmt::Arguments") dereferenceable(48) %0, [0 x { [0 x i8]*, i64 }]* nonnull align 8 %pieces.0, i64 %pieces.1, [0 x { i8*, i64* }]* nonnull align 8 %args.0, i64 %args.1) unnamed_addr #0 {
start:
  %_16 = alloca { i64*, i64 }, align 8
  %_3 = alloca i8, align 1
  %_4 = icmp ult i64 %pieces.1, %args.1
  br i1 %_4, label %bb1, label %bb2

bb2:                                              ; preds = %start
  %_12 = add i64 %args.1, 1
  %_9 = icmp ugt i64 %pieces.1, %_12
  %1 = zext i1 %_9 to i8
  store i8 %1, i8* %_3, align 1
  br label %bb3

bb1:                                              ; preds = %start
  store i8 1, i8* %_3, align 1
  br label %bb3

bb3:                                              ; preds = %bb2, %bb1
  %2 = load i8, i8* %_3, align 1, !range !4
  %3 = trunc i8 %2 to i1
  br i1 %3, label %bb4, label %bb5

bb5:                                              ; preds = %bb3
  %4 = bitcast { i64*, i64 }* %_16 to {}**
  store {}* null, {}** %4, align 8
  %5 = bitcast %"core::fmt::Arguments"* %0 to { [0 x { [0 x i8]*, i64 }]*, i64 }*
  %6 = getelementptr inbounds { [0 x { [0 x i8]*, i64 }]*, i64 }, { [0 x { [0 x i8]*, i64 }]*, i64 }* %5, i32 0, i32 0
  store [0 x { [0 x i8]*, i64 }]* %pieces.0, [0 x { [0 x i8]*, i64 }]** %6, align 8
  %7 = getelementptr inbounds { [0 x { [0 x i8]*, i64 }]*, i64 }, { [0 x { [0 x i8]*, i64 }]*, i64 }* %5, i32 0, i32 1
  store i64 %pieces.1, i64* %7, align 8
  %8 = getelementptr inbounds %"core::fmt::Arguments", %"core::fmt::Arguments"* %0, i32 0, i32 1
  %9 = getelementptr inbounds { i64*, i64 }, { i64*, i64 }* %_16, i32 0, i32 0
  %10 = load i64*, i64** %9, align 8
  %11 = getelementptr inbounds { i64*, i64 }, { i64*, i64 }* %_16, i32 0, i32 1
  %12 = load i64, i64* %11, align 8
  %13 = getelementptr inbounds { i64*, i64 }, { i64*, i64 }* %8, i32 0, i32 0
  store i64* %10, i64** %13, align 8
  %14 = getelementptr inbounds { i64*, i64 }, { i64*, i64 }* %8, i32 0, i32 1
  store i64 %12, i64* %14, align 8
  %15 = getelementptr inbounds %"core::fmt::Arguments", %"core::fmt::Arguments"* %0, i32 0, i32 2
  %16 = getelementptr inbounds { [0 x { i8*, i64* }]*, i64 }, { [0 x { i8*, i64* }]*, i64 }* %15, i32 0, i32 0
  store [0 x { i8*, i64* }]* %args.0, [0 x { i8*, i64* }]** %16, align 8
  %17 = getelementptr inbounds { [0 x { i8*, i64* }]*, i64 }, { [0 x { i8*, i64* }]*, i64 }* %15, i32 0, i32 1
  store i64 %args.1, i64* %17, align 8
  ret void

bb4:                                              ; preds = %bb3
; call core::panicking::panic
  call void @_ZN4core9panicking5panic17hac91d6d33ac66361E([0 x i8]* nonnull align 1 bitcast (<{ [12 x i8] }>* @alloc166 to [0 x i8]*), i64 12, %"core::panic::location::Location"* align 8 dereferenceable(24) bitcast (<{ i8*, [16 x i8] }>* @alloc168 to %"core::panic::location::Location"*)) #13
  unreachable
}

; core::mem::size_of_val
; Function Attrs: inlinehint nonlazybind uwtable
define internal i64 @_ZN4core3mem11size_of_val17hdb19db3245bb2adfE([0 x i8]* nonnull align 1 %val.0, i64 %val.1) unnamed_addr #0 {
start:
  %0 = alloca i64, align 8
  %1 = mul i64 %val.1, 1
  store i64 %1, i64* %0, align 8
  %2 = load i64, i64* %0, align 8
  br label %bb1

bb1:                                              ; preds = %start
  ret i64 %2
}

; core::mem::maybe_uninit::MaybeUninit<T>::assume_init_drop
; Function Attrs: nonlazybind uwtable
define internal void @"_ZN4core3mem12maybe_uninit20MaybeUninit$LT$T$GT$16assume_init_drop17h765d74ca377ebb94E"(%"core::mem::maybe_uninit::MaybeUninit<core::option::Option<std::ffi::os_str::OsString>>"* align 8 dereferenceable(24) %self) unnamed_addr #1 {
start:
  %0 = bitcast %"core::mem::maybe_uninit::MaybeUninit<core::option::Option<std::ffi::os_str::OsString>>"* %self to %"core::option::Option<std::ffi::os_str::OsString>"*
  br label %bb1

bb1:                                              ; preds = %start
; call core::ptr::drop_in_place<core::option::Option<std::ffi::os_str::OsString>>
  call void @"_ZN4core3ptr75drop_in_place$LT$core..option..Option$LT$std..ffi..os_str..OsString$GT$$GT$17h4cedbbf0216ba536E"(%"core::option::Option<std::ffi::os_str::OsString>"* %0)
  br label %bb2

bb2:                                              ; preds = %bb1
  ret void
}

; core::mem::maybe_uninit::MaybeUninit<T>::assume_init_drop
; Function Attrs: nonlazybind uwtable
define internal void @"_ZN4core3mem12maybe_uninit20MaybeUninit$LT$T$GT$16assume_init_drop17hef21ed28ecb62004E"(%"core::mem::maybe_uninit::MaybeUninit<std::ffi::os_str::OsString>"* align 8 dereferenceable(24) %self) unnamed_addr #1 {
start:
  %0 = bitcast %"core::mem::maybe_uninit::MaybeUninit<std::ffi::os_str::OsString>"* %self to %"std::ffi::os_str::OsString"*
  br label %bb1

bb1:                                              ; preds = %start
; call core::ptr::drop_in_place<std::ffi::os_str::OsString>
  call void @"_ZN4core3ptr47drop_in_place$LT$std..ffi..os_str..OsString$GT$17ha3b52ed70e7626b8E"(%"std::ffi::os_str::OsString"* %0)
  br label %bb2

bb2:                                              ; preds = %bb1
  ret void
}

; core::mem::drop
; Function Attrs: inlinehint nonlazybind uwtable
define internal void @_ZN4core3mem4drop17h576096a34c051299E(%"alloc::collections::btree::map::IntoIter<std::ffi::os_str::OsString, core::option::Option<std::ffi::os_str::OsString>>"* noalias nocapture dereferenceable(72) %_x) unnamed_addr #0 {
start:
; call core::ptr::drop_in_place<alloc::collections::btree::map::IntoIter<std::ffi::os_str::OsString,core::option::Option<std::ffi::os_str::OsString>>>
  call void @"_ZN4core3ptr152drop_in_place$LT$alloc..collections..btree..map..IntoIter$LT$std..ffi..os_str..OsString$C$core..option..Option$LT$std..ffi..os_str..OsString$GT$$GT$$GT$17ha1ba862f4649c4ceE"(%"alloc::collections::btree::map::IntoIter<std::ffi::os_str::OsString, core::option::Option<std::ffi::os_str::OsString>>"* %_x)
  br label %bb1

bb1:                                              ; preds = %start
  ret void
}

; core::mem::forget
; Function Attrs: inlinehint nonlazybind uwtable
define internal void @_ZN4core3mem6forget17h175a73c41d0c8b8fE() unnamed_addr #0 {
start:
  %0 = alloca %"core::mem::manually_drop::ManuallyDrop<alloc::collections::btree::mem::replace::PanicGuard>", align 1
  %1 = bitcast %"core::mem::manually_drop::ManuallyDrop<alloc::collections::btree::mem::replace::PanicGuard>"* %0 to %"alloc::collections::btree::mem::replace::PanicGuard"*
  br label %bb1

bb1:                                              ; preds = %start
  ret void
}

; core::mem::forget
; Function Attrs: inlinehint nonlazybind uwtable
define internal void @_ZN4core3mem6forget17ha3c85ec117306c0fE(i64* align 8 dereferenceable(72) %t) unnamed_addr #0 {
start:
  %0 = alloca i64*, align 8
  store i64* %t, i64** %0, align 8
  %1 = load i64*, i64** %0, align 8, !nonnull !10
  br label %bb1

bb1:                                              ; preds = %start
  ret void
}

; core::mem::replace
; Function Attrs: inlinehint nonlazybind uwtable
define internal void @_ZN4core3mem7replace17h310beb131b1c9af4E(%"core::option::Option<alloc::collections::btree::navigate::LazyLeafHandle<alloc::collections::btree::node::marker::Dying, std::ffi::os_str::OsString, core::option::Option<std::ffi::os_str::OsString>>>"* noalias nocapture sret(%"core::option::Option<alloc::collections::btree::navigate::LazyLeafHandle<alloc::collections::btree::node::marker::Dying, std::ffi::os_str::OsString, core::option::Option<std::ffi::os_str::OsString>>>") dereferenceable(32) %result, %"core::option::Option<alloc::collections::btree::navigate::LazyLeafHandle<alloc::collections::btree::node::marker::Dying, std::ffi::os_str::OsString, core::option::Option<std::ffi::os_str::OsString>>>"* align 8 dereferenceable(32) %dest, %"core::option::Option<alloc::collections::btree::navigate::LazyLeafHandle<alloc::collections::btree::node::marker::Dying, std::ffi::os_str::OsString, core::option::Option<std::ffi::os_str::OsString>>>"* noalias nocapture dereferenceable(32) %src) unnamed_addr #0 personality i32 (i32, i32, i64, %"unwind::libunwind::_Unwind_Exception"*, %"unwind::libunwind::_Unwind_Context"*)* @rust_eh_personality {
start:
  %0 = alloca { i8*, i32 }, align 8
  %_7 = alloca i8, align 1
  %_6 = alloca %"core::option::Option<alloc::collections::btree::navigate::LazyLeafHandle<alloc::collections::btree::node::marker::Dying, std::ffi::os_str::OsString, core::option::Option<std::ffi::os_str::OsString>>>", align 8
  store i8 0, i8* %_7, align 1
  store i8 1, i8* %_7, align 1
; invoke core::ptr::read
  invoke void @_ZN4core3ptr4read17h76fb20ec239bb345E(%"core::option::Option<alloc::collections::btree::navigate::LazyLeafHandle<alloc::collections::btree::node::marker::Dying, std::ffi::os_str::OsString, core::option::Option<std::ffi::os_str::OsString>>>"* noalias nocapture sret(%"core::option::Option<alloc::collections::btree::navigate::LazyLeafHandle<alloc::collections::btree::node::marker::Dying, std::ffi::os_str::OsString, core::option::Option<std::ffi::os_str::OsString>>>") dereferenceable(32) %result, %"core::option::Option<alloc::collections::btree::navigate::LazyLeafHandle<alloc::collections::btree::node::marker::Dying, std::ffi::os_str::OsString, core::option::Option<std::ffi::os_str::OsString>>>"* %dest)
          to label %bb1 unwind label %cleanup

bb1:                                              ; preds = %start
  store i8 0, i8* %_7, align 1
  %1 = bitcast %"core::option::Option<alloc::collections::btree::navigate::LazyLeafHandle<alloc::collections::btree::node::marker::Dying, std::ffi::os_str::OsString, core::option::Option<std::ffi::os_str::OsString>>>"* %_6 to i8*
  %2 = bitcast %"core::option::Option<alloc::collections::btree::navigate::LazyLeafHandle<alloc::collections::btree::node::marker::Dying, std::ffi::os_str::OsString, core::option::Option<std::ffi::os_str::OsString>>>"* %src to i8*
  call void @llvm.memcpy.p0i8.p0i8.i64(i8* align 8 %1, i8* align 8 %2, i64 32, i1 false)
; invoke core::ptr::write
  invoke void @_ZN4core3ptr5write17ha9912850de3be9c0E(%"core::option::Option<alloc::collections::btree::navigate::LazyLeafHandle<alloc::collections::btree::node::marker::Dying, std::ffi::os_str::OsString, core::option::Option<std::ffi::os_str::OsString>>>"* %dest, %"core::option::Option<alloc::collections::btree::navigate::LazyLeafHandle<alloc::collections::btree::node::marker::Dying, std::ffi::os_str::OsString, core::option::Option<std::ffi::os_str::OsString>>>"* noalias nocapture dereferenceable(32) %_6)
          to label %bb2 unwind label %cleanup1

bb6:                                              ; preds = %bb3, %cleanup
  %3 = load i8, i8* %_7, align 1, !range !4
  %4 = trunc i8 %3 to i1
  br i1 %4, label %bb5, label %bb4

cleanup:                                          ; preds = %start
  %5 = landingpad { i8*, i32 }
          cleanup
  %6 = extractvalue { i8*, i32 } %5, 0
  %7 = extractvalue { i8*, i32 } %5, 1
  %8 = getelementptr inbounds { i8*, i32 }, { i8*, i32 }* %0, i32 0, i32 0
  store i8* %6, i8** %8, align 8
  %9 = getelementptr inbounds { i8*, i32 }, { i8*, i32 }* %0, i32 0, i32 1
  store i32 %7, i32* %9, align 8
  br label %bb6

bb2:                                              ; preds = %bb1
  ret void

bb3:                                              ; preds = %cleanup1
  br label %bb6

cleanup1:                                         ; preds = %bb1
  %10 = landingpad { i8*, i32 }
          cleanup
  %11 = extractvalue { i8*, i32 } %10, 0
  %12 = extractvalue { i8*, i32 } %10, 1
  %13 = getelementptr inbounds { i8*, i32 }, { i8*, i32 }* %0, i32 0, i32 0
  store i8* %11, i8** %13, align 8
  %14 = getelementptr inbounds { i8*, i32 }, { i8*, i32 }* %0, i32 0, i32 1
  store i32 %12, i32* %14, align 8
  br label %bb3

bb4:                                              ; preds = %bb5, %bb6
  %15 = bitcast { i8*, i32 }* %0 to i8**
  %16 = load i8*, i8** %15, align 8
  %17 = getelementptr inbounds { i8*, i32 }, { i8*, i32 }* %0, i32 0, i32 1
  %18 = load i32, i32* %17, align 8
  %19 = insertvalue { i8*, i32 } undef, i8* %16, 0
  %20 = insertvalue { i8*, i32 } %19, i32 %18, 1
  resume { i8*, i32 } %20

bb5:                                              ; preds = %bb6
  br label %bb4
}

; core::mem::replace
; Function Attrs: inlinehint nonlazybind uwtable
define internal i64 @_ZN4core3mem7replace17h5a251fdc90cf225cE(i64* align 8 dereferenceable(8) %dest, i64 %src) unnamed_addr #0 personality i32 (i32, i32, i64, %"unwind::libunwind::_Unwind_Exception"*, %"unwind::libunwind::_Unwind_Context"*)* @rust_eh_personality {
start:
  %0 = alloca { i8*, i32 }, align 8
  %_7 = alloca i8, align 1
  store i8 0, i8* %_7, align 1
  store i8 1, i8* %_7, align 1
; invoke core::ptr::read
  %result = invoke i64 @_ZN4core3ptr4read17h72490f94af10584fE(i64* %dest)
          to label %bb1 unwind label %cleanup

bb1:                                              ; preds = %start
  store i8 0, i8* %_7, align 1
; invoke core::ptr::write
  invoke void @_ZN4core3ptr5write17h77597dc02ac34e98E(i64* %dest, i64 %src)
          to label %bb2 unwind label %cleanup1

bb6:                                              ; preds = %bb3, %cleanup
  %1 = load i8, i8* %_7, align 1, !range !4
  %2 = trunc i8 %1 to i1
  br i1 %2, label %bb5, label %bb4

cleanup:                                          ; preds = %start
  %3 = landingpad { i8*, i32 }
          cleanup
  %4 = extractvalue { i8*, i32 } %3, 0
  %5 = extractvalue { i8*, i32 } %3, 1
  %6 = getelementptr inbounds { i8*, i32 }, { i8*, i32 }* %0, i32 0, i32 0
  store i8* %4, i8** %6, align 8
  %7 = getelementptr inbounds { i8*, i32 }, { i8*, i32 }* %0, i32 0, i32 1
  store i32 %5, i32* %7, align 8
  br label %bb6

bb2:                                              ; preds = %bb1
  ret i64 %result

bb3:                                              ; preds = %cleanup1
  br label %bb6

cleanup1:                                         ; preds = %bb1
  %8 = landingpad { i8*, i32 }
          cleanup
  %9 = extractvalue { i8*, i32 } %8, 0
  %10 = extractvalue { i8*, i32 } %8, 1
  %11 = getelementptr inbounds { i8*, i32 }, { i8*, i32 }* %0, i32 0, i32 0
  store i8* %9, i8** %11, align 8
  %12 = getelementptr inbounds { i8*, i32 }, { i8*, i32 }* %0, i32 0, i32 1
  store i32 %10, i32* %12, align 8
  br label %bb3

bb4:                                              ; preds = %bb5, %bb6
  %13 = bitcast { i8*, i32 }* %0 to i8**
  %14 = load i8*, i8** %13, align 8
  %15 = getelementptr inbounds { i8*, i32 }, { i8*, i32 }* %0, i32 0, i32 1
  %16 = load i32, i32* %15, align 8
  %17 = insertvalue { i8*, i32 } undef, i8* %14, 0
  %18 = insertvalue { i8*, i32 } %17, i32 %16, 1
  resume { i8*, i32 } %18

bb5:                                              ; preds = %bb6
  br label %bb4
}

; core::mem::replace
; Function Attrs: inlinehint nonlazybind uwtable
define internal { i64, i64* } @_ZN4core3mem7replace17hf6010a3f6addd14aE({ i64, i64* }* align 8 dereferenceable(16) %dest, i64 %src.0, i64* %src.1) unnamed_addr #0 personality i32 (i32, i32, i64, %"unwind::libunwind::_Unwind_Exception"*, %"unwind::libunwind::_Unwind_Context"*)* @rust_eh_personality {
start:
  %0 = alloca { i8*, i32 }, align 8
  %_7 = alloca i8, align 1
  store i8 0, i8* %_7, align 1
  store i8 1, i8* %_7, align 1
; invoke core::ptr::read
  %1 = invoke { i64, i64* } @_ZN4core3ptr4read17he60ddc9b3df4d390E({ i64, i64* }* %dest)
          to label %bb1 unwind label %cleanup

bb1:                                              ; preds = %start
  %result.0 = extractvalue { i64, i64* } %1, 0
  %result.1 = extractvalue { i64, i64* } %1, 1
  store i8 0, i8* %_7, align 1
; invoke core::ptr::write
  invoke void @_ZN4core3ptr5write17hc4e1d3bb9991b4daE({ i64, i64* }* %dest, i64 %src.0, i64* %src.1)
          to label %bb2 unwind label %cleanup1

bb6:                                              ; preds = %bb3, %cleanup
  %2 = load i8, i8* %_7, align 1, !range !4
  %3 = trunc i8 %2 to i1
  br i1 %3, label %bb5, label %bb4

cleanup:                                          ; preds = %start
  %4 = landingpad { i8*, i32 }
          cleanup
  %5 = extractvalue { i8*, i32 } %4, 0
  %6 = extractvalue { i8*, i32 } %4, 1
  %7 = getelementptr inbounds { i8*, i32 }, { i8*, i32 }* %0, i32 0, i32 0
  store i8* %5, i8** %7, align 8
  %8 = getelementptr inbounds { i8*, i32 }, { i8*, i32 }* %0, i32 0, i32 1
  store i32 %6, i32* %8, align 8
  br label %bb6

bb2:                                              ; preds = %bb1
  %9 = insertvalue { i64, i64* } undef, i64 %result.0, 0
  %10 = insertvalue { i64, i64* } %9, i64* %result.1, 1
  ret { i64, i64* } %10

bb3:                                              ; preds = %cleanup1
  br label %bb6

cleanup1:                                         ; preds = %bb1
  %11 = landingpad { i8*, i32 }
          cleanup
  %12 = extractvalue { i8*, i32 } %11, 0
  %13 = extractvalue { i8*, i32 } %11, 1
  %14 = getelementptr inbounds { i8*, i32 }, { i8*, i32 }* %0, i32 0, i32 0
  store i8* %12, i8** %14, align 8
  %15 = getelementptr inbounds { i8*, i32 }, { i8*, i32 }* %0, i32 0, i32 1
  store i32 %13, i32* %15, align 8
  br label %bb3

bb4:                                              ; preds = %bb5, %bb6
  %16 = bitcast { i8*, i32 }* %0 to i8**
  %17 = load i8*, i8** %16, align 8
  %18 = getelementptr inbounds { i8*, i32 }, { i8*, i32 }* %0, i32 0, i32 1
  %19 = load i32, i32* %18, align 8
  %20 = insertvalue { i8*, i32 } undef, i8* %17, 0
  %21 = insertvalue { i8*, i32 } %20, i32 %19, 1
  resume { i8*, i32 } %21

bb5:                                              ; preds = %bb6
  br label %bb4
}

; core::num::nonzero::NonZeroUsize::new_unchecked
; Function Attrs: inlinehint nonlazybind uwtable
define internal i64 @_ZN4core3num7nonzero12NonZeroUsize13new_unchecked17h6613553a8418d538E(i64 %n) unnamed_addr #0 {
start:
  %0 = alloca i64, align 8
  store i64 %n, i64* %0, align 8
  %1 = load i64, i64* %0, align 8, !range !12
  ret i64 %1
}

; core::num::nonzero::NonZeroUsize::get
; Function Attrs: inlinehint nonlazybind uwtable
define internal i64 @_ZN4core3num7nonzero12NonZeroUsize3get17had223b9bcc4832b8E(i64 %self) unnamed_addr #0 {
start:
  ret i64 %self
}

; core::ops::function::FnOnce::call_once{{vtable.shim}}
; Function Attrs: inlinehint nonlazybind uwtable
define internal i32 @"_ZN4core3ops8function6FnOnce40call_once$u7b$$u7b$vtable.shim$u7d$$u7d$17hb23a15917a73a376E"(i64** %_1) unnamed_addr #0 {
start:
  %_2 = alloca {}, align 1
  %0 = load i64*, i64** %_1, align 8, !nonnull !10
; call core::ops::function::FnOnce::call_once
  %1 = call i32 @_ZN4core3ops8function6FnOnce9call_once17hb658726f1342eb96E(i64* nonnull %0)
  br label %bb1

bb1:                                              ; preds = %start
  ret i32 %1
}

; core::ops::function::FnOnce::call_once
; Function Attrs: inlinehint nonlazybind uwtable
define internal i8 @_ZN4core3ops8function6FnOnce9call_once17h170d0211ed54dc88E(i64* align 8 dereferenceable(8) %0, i64* align 8 dereferenceable(8) %1) unnamed_addr #0 {
start:
  %_2 = alloca { i64*, i64* }, align 8
  %2 = bitcast { i64*, i64* }* %_2 to i64**
  store i64* %0, i64** %2, align 8
  %3 = getelementptr inbounds { i64*, i64* }, { i64*, i64* }* %_2, i32 0, i32 1
  store i64* %1, i64** %3, align 8
  %4 = bitcast { i64*, i64* }* %_2 to i64**
  %5 = load i64*, i64** %4, align 8, !nonnull !10
  %6 = getelementptr inbounds { i64*, i64* }, { i64*, i64* }* %_2, i32 0, i32 1
  %7 = load i64*, i64** %6, align 8, !nonnull !10
; call core::cmp::impls::<impl core::cmp::Ord for usize>::cmp
  %8 = call i8 @"_ZN4core3cmp5impls50_$LT$impl$u20$core..cmp..Ord$u20$for$u20$usize$GT$3cmp17hdf49579bc7770dc5E"(i64* align 8 dereferenceable(8) %5, i64* align 8 dereferenceable(8) %7), !range !11
  br label %bb1

bb1:                                              ; preds = %start
  ret i8 %8
}

; core::ops::function::FnOnce::call_once
; Function Attrs: inlinehint nonlazybind uwtable
define internal void @_ZN4core3ops8function6FnOnce9call_once17h4ad42c4537ae2eb7E(void ()* nonnull %_1) unnamed_addr #0 {
start:
  %_2 = alloca {}, align 1
  call void %_1()
  br label %bb1

bb1:                                              ; preds = %start
  ret void
}

; core::ops::function::FnOnce::call_once
; Function Attrs: inlinehint nonlazybind uwtable
define internal i32 @_ZN4core3ops8function6FnOnce9call_once17hb658726f1342eb96E(i64* nonnull %0) unnamed_addr #0 personality i32 (i32, i32, i64, %"unwind::libunwind::_Unwind_Exception"*, %"unwind::libunwind::_Unwind_Context"*)* @rust_eh_personality {
start:
  %1 = alloca { i8*, i32 }, align 8
  %_2 = alloca {}, align 1
  %_1 = alloca i64*, align 8
  store i64* %0, i64** %_1, align 8
; invoke std::rt::lang_start::{{closure}}
  %2 = invoke i32 @"_ZN3std2rt10lang_start28_$u7b$$u7b$closure$u7d$$u7d$17h3dc3ce69baacdd32E"(i64** align 8 dereferenceable(8) %_1)
          to label %bb1 unwind label %cleanup

bb1:                                              ; preds = %start
  br label %bb2

bb3:                                              ; preds = %cleanup
  br label %bb4

cleanup:                                          ; preds = %start
  %3 = landingpad { i8*, i32 }
          cleanup
  %4 = extractvalue { i8*, i32 } %3, 0
  %5 = extractvalue { i8*, i32 } %3, 1
  %6 = getelementptr inbounds { i8*, i32 }, { i8*, i32 }* %1, i32 0, i32 0
  store i8* %4, i8** %6, align 8
  %7 = getelementptr inbounds { i8*, i32 }, { i8*, i32 }* %1, i32 0, i32 1
  store i32 %5, i32* %7, align 8
  br label %bb3

bb4:                                              ; preds = %bb3
  %8 = bitcast { i8*, i32 }* %1 to i8**
  %9 = load i8*, i8** %8, align 8
  %10 = getelementptr inbounds { i8*, i32 }, { i8*, i32 }* %1, i32 0, i32 1
  %11 = load i32, i32* %10, align 8
  %12 = insertvalue { i8*, i32 } undef, i8* %9, 0
  %13 = insertvalue { i8*, i32 } %12, i32 %11, 1
  resume { i8*, i32 } %13

bb2:                                              ; preds = %bb1
  ret i32 %2
}

; core::ptr::drop_in_place<alloc::boxed::Box<dyn std::error::Error+core::marker::Send+core::marker::Sync>>
; Function Attrs: nonlazybind uwtable
define internal void @"_ZN4core3ptr117drop_in_place$LT$alloc..boxed..Box$LT$dyn$u20$std..error..Error$u2b$core..marker..Send$u2b$core..marker..Sync$GT$$GT$17h14d2b31b3f4fff53E"({ {}*, [3 x i64]* }* %_1) unnamed_addr #1 personality i32 (i32, i32, i64, %"unwind::libunwind::_Unwind_Exception"*, %"unwind::libunwind::_Unwind_Context"*)* @rust_eh_personality {
start:
  %0 = alloca { i8*, i32 }, align 8
  %1 = getelementptr inbounds { {}*, [3 x i64]* }, { {}*, [3 x i64]* }* %_1, i32 0, i32 0
  %2 = load {}*, {}** %1, align 8, !nonnull !10
  %3 = getelementptr inbounds { {}*, [3 x i64]* }, { {}*, [3 x i64]* }* %_1, i32 0, i32 1
  %4 = load [3 x i64]*, [3 x i64]** %3, align 8, !nonnull !10
  %5 = bitcast [3 x i64]* %4 to void ({}*)**
  %6 = getelementptr inbounds void ({}*)*, void ({}*)** %5, i64 0
  %7 = load void ({}*)*, void ({}*)** %6, align 8, !invariant.load !10, !nonnull !10
  invoke void %7({}* %2)
          to label %bb3 unwind label %cleanup

bb3:                                              ; preds = %start
  %8 = bitcast { {}*, [3 x i64]* }* %_1 to { i8*, i64* }*
  %9 = getelementptr inbounds { i8*, i64* }, { i8*, i64* }* %8, i32 0, i32 0
  %10 = load i8*, i8** %9, align 8, !nonnull !10
  %11 = getelementptr inbounds { i8*, i64* }, { i8*, i64* }* %8, i32 0, i32 1
  %12 = load i64*, i64** %11, align 8, !nonnull !10
; call alloc::alloc::box_free
  call void @_ZN5alloc5alloc8box_free17h1002a47c61720979E(i8* nonnull %10, i64* align 8 dereferenceable(24) %12)
  br label %bb1

bb4:                                              ; preds = %cleanup
  %13 = bitcast { {}*, [3 x i64]* }* %_1 to { i8*, i64* }*
  %14 = getelementptr inbounds { i8*, i64* }, { i8*, i64* }* %13, i32 0, i32 0
  %15 = load i8*, i8** %14, align 8, !nonnull !10
  %16 = getelementptr inbounds { i8*, i64* }, { i8*, i64* }* %13, i32 0, i32 1
  %17 = load i64*, i64** %16, align 8, !nonnull !10
; call alloc::alloc::box_free
  call void @_ZN5alloc5alloc8box_free17h1002a47c61720979E(i8* nonnull %15, i64* align 8 dereferenceable(24) %17) #14
  br label %bb2

cleanup:                                          ; preds = %start
  %18 = landingpad { i8*, i32 }
          cleanup
  %19 = extractvalue { i8*, i32 } %18, 0
  %20 = extractvalue { i8*, i32 } %18, 1
  %21 = getelementptr inbounds { i8*, i32 }, { i8*, i32 }* %0, i32 0, i32 0
  store i8* %19, i8** %21, align 8
  %22 = getelementptr inbounds { i8*, i32 }, { i8*, i32 }* %0, i32 0, i32 1
  store i32 %20, i32* %22, align 8
  br label %bb4

bb2:                                              ; preds = %bb4
  %23 = bitcast { i8*, i32 }* %0 to i8**
  %24 = load i8*, i8** %23, align 8
  %25 = getelementptr inbounds { i8*, i32 }, { i8*, i32 }* %0, i32 0, i32 1
  %26 = load i32, i32* %25, align 8
  %27 = insertvalue { i8*, i32 } undef, i8* %24, 0
  %28 = insertvalue { i8*, i32 } %27, i32 %26, 1
  resume { i8*, i32 } %28

bb1:                                              ; preds = %bb3
  ret void
}

; core::ptr::drop_in_place<alloc::collections::btree::map::BTreeMap<std::ffi::os_str::OsString,core::option::Option<std::ffi::os_str::OsString>>>
; Function Attrs: nonlazybind uwtable
define internal void @"_ZN4core3ptr152drop_in_place$LT$alloc..collections..btree..map..BTreeMap$LT$std..ffi..os_str..OsString$C$core..option..Option$LT$std..ffi..os_str..OsString$GT$$GT$$GT$17h912cf4b8e7e4ee2dE"(%"alloc::collections::btree::map::BTreeMap<std::ffi::os_str::OsString, core::option::Option<std::ffi::os_str::OsString>>"* %_1) unnamed_addr #1 {
start:
; call <alloc::collections::btree::map::BTreeMap<K,V> as core::ops::drop::Drop>::drop
  call void @"_ZN95_$LT$alloc..collections..btree..map..BTreeMap$LT$K$C$V$GT$$u20$as$u20$core..ops..drop..Drop$GT$4drop17h69f974ea1ca0a1aeE"(%"alloc::collections::btree::map::BTreeMap<std::ffi::os_str::OsString, core::option::Option<std::ffi::os_str::OsString>>"* align 8 dereferenceable(24) %_1)
  br label %bb1

bb1:                                              ; preds = %start
  ret void
}

; core::ptr::drop_in_place<alloc::collections::btree::map::IntoIter<std::ffi::os_str::OsString,core::option::Option<std::ffi::os_str::OsString>>>
; Function Attrs: nonlazybind uwtable
define internal void @"_ZN4core3ptr152drop_in_place$LT$alloc..collections..btree..map..IntoIter$LT$std..ffi..os_str..OsString$C$core..option..Option$LT$std..ffi..os_str..OsString$GT$$GT$$GT$17ha1ba862f4649c4ceE"(%"alloc::collections::btree::map::IntoIter<std::ffi::os_str::OsString, core::option::Option<std::ffi::os_str::OsString>>"* %_1) unnamed_addr #1 {
start:
; call <alloc::collections::btree::map::IntoIter<K,V> as core::ops::drop::Drop>::drop
  call void @"_ZN95_$LT$alloc..collections..btree..map..IntoIter$LT$K$C$V$GT$$u20$as$u20$core..ops..drop..Drop$GT$4drop17hb51877b37f228b13E"(%"alloc::collections::btree::map::IntoIter<std::ffi::os_str::OsString, core::option::Option<std::ffi::os_str::OsString>>"* align 8 dereferenceable(72) %_1)
  br label %bb1

bb1:                                              ; preds = %start
  ret void
}

; core::ptr::drop_in_place<dyn core::ops::function::FnMut<()>+Output = core::result::Result<(),std::io::error::Error>+core::marker::Send+core::marker::Sync>
; Function Attrs: nonlazybind uwtable
define internal void @"_ZN4core3ptr203drop_in_place$LT$dyn$u20$core..ops..function..FnMut$LT$$LP$$RP$$GT$$u2b$Output$u20$$u3d$$u20$core..result..Result$LT$$LP$$RP$$C$std..io..error..Error$GT$$u2b$core..marker..Send$u2b$core..marker..Sync$GT$17h1b4dd25c92ea8f45E"({}* %_1.0, [3 x i64]* align 8 dereferenceable(24) %_1.1) unnamed_addr #1 {
start:
  %0 = bitcast [3 x i64]* %_1.1 to void ({}*)**
  %1 = getelementptr inbounds void ({}*)*, void ({}*)** %0, i64 0
  %2 = load void ({}*)*, void ({}*)** %1, align 8, !invariant.load !10, !nonnull !10
  call void %2({}* %_1.0)
  br label %bb1

bb1:                                              ; preds = %start
  ret void
}

; core::ptr::slice_from_raw_parts
; Function Attrs: inlinehint nonlazybind uwtable
define internal { [0 x i8]*, i64 } @_ZN4core3ptr20slice_from_raw_parts17h7a48ed1ebd413f86E(i8* %data, i64 %len) unnamed_addr #0 {
start:
; call core::ptr::const_ptr::<impl *const T>::cast
  %_3 = call {}* @"_ZN4core3ptr9const_ptr33_$LT$impl$u20$$BP$const$u20$T$GT$4cast17haedb73a175f92115E"(i8* %data)
  br label %bb1

bb1:                                              ; preds = %start
; call core::ptr::metadata::from_raw_parts
  %0 = call { [0 x i8]*, i64 } @_ZN4core3ptr8metadata14from_raw_parts17h95be61f1558ffbacE({}* %_3, i64 %len)
  %1 = extractvalue { [0 x i8]*, i64 } %0, 0
  %2 = extractvalue { [0 x i8]*, i64 } %0, 1
  br label %bb2

bb2:                                              ; preds = %bb1
  %3 = insertvalue { [0 x i8]*, i64 } undef, [0 x i8]* %1, 0
  %4 = insertvalue { [0 x i8]*, i64 } %3, i64 %2, 1
  ret { [0 x i8]*, i64 } %4
}

; core::ptr::drop_in_place<<alloc::collections::btree::map::IntoIter<K,V> as core::ops::drop::Drop>::drop::DropGuard<std::ffi::os_str::OsString,core::option::Option<std::ffi::os_str::OsString>>>
; Function Attrs: nonlazybind uwtable
define internal void @"_ZN4core3ptr223drop_in_place$LT$$LT$alloc..collections..btree..map..IntoIter$LT$K$C$V$GT$$u20$as$u20$core..ops..drop..Drop$GT$..drop..DropGuard$LT$std..ffi..os_str..OsString$C$core..option..Option$LT$std..ffi..os_str..OsString$GT$$GT$$GT$17h47868edb2a55f83eE"(i64** %_1) unnamed_addr #1 {
start:
; call <<alloc::collections::btree::map::IntoIter<K,V> as core::ops::drop::Drop>::drop::DropGuard<K,V> as core::ops::drop::Drop>::drop
  call void @"_ZN166_$LT$$LT$alloc..collections..btree..map..IntoIter$LT$K$C$V$GT$$u20$as$u20$core..ops..drop..Drop$GT$..drop..DropGuard$LT$K$C$V$GT$$u20$as$u20$core..ops..drop..Drop$GT$4drop17h84151ba84ab8d909E"(i64** align 8 dereferenceable(8) %_1)
  br label %bb1

bb1:                                              ; preds = %start
  ret void
}

; core::ptr::drop_in_place<alloc::boxed::Box<dyn core::ops::function::FnMut<()>+Output = core::result::Result<(),std::io::error::Error>+core::marker::Send+core::marker::Sync>>
; Function Attrs: nonlazybind uwtable
define internal void @"_ZN4core3ptr228drop_in_place$LT$alloc..boxed..Box$LT$dyn$u20$core..ops..function..FnMut$LT$$LP$$RP$$GT$$u2b$Output$u20$$u3d$$u20$core..result..Result$LT$$LP$$RP$$C$std..io..error..Error$GT$$u2b$core..marker..Send$u2b$core..marker..Sync$GT$$GT$17h5d7e2a0f153a19f3E"({ {}*, [3 x i64]* }* %_1) unnamed_addr #1 personality i32 (i32, i32, i64, %"unwind::libunwind::_Unwind_Exception"*, %"unwind::libunwind::_Unwind_Context"*)* @rust_eh_personality {
start:
  %0 = alloca { i8*, i32 }, align 8
  %1 = getelementptr inbounds { {}*, [3 x i64]* }, { {}*, [3 x i64]* }* %_1, i32 0, i32 0
  %2 = load {}*, {}** %1, align 8, !nonnull !10
  %3 = getelementptr inbounds { {}*, [3 x i64]* }, { {}*, [3 x i64]* }* %_1, i32 0, i32 1
  %4 = load [3 x i64]*, [3 x i64]** %3, align 8, !nonnull !10
  %5 = bitcast [3 x i64]* %4 to void ({}*)**
  %6 = getelementptr inbounds void ({}*)*, void ({}*)** %5, i64 0
  %7 = load void ({}*)*, void ({}*)** %6, align 8, !invariant.load !10, !nonnull !10
  invoke void %7({}* %2)
          to label %bb3 unwind label %cleanup

bb3:                                              ; preds = %start
  %8 = bitcast { {}*, [3 x i64]* }* %_1 to { i8*, i64* }*
  %9 = getelementptr inbounds { i8*, i64* }, { i8*, i64* }* %8, i32 0, i32 0
  %10 = load i8*, i8** %9, align 8, !nonnull !10
  %11 = getelementptr inbounds { i8*, i64* }, { i8*, i64* }* %8, i32 0, i32 1
  %12 = load i64*, i64** %11, align 8, !nonnull !10
; call alloc::alloc::box_free
  call void @_ZN5alloc5alloc8box_free17hc8e5612752da2fa4E(i8* nonnull %10, i64* align 8 dereferenceable(24) %12)
  br label %bb1

bb4:                                              ; preds = %cleanup
  %13 = bitcast { {}*, [3 x i64]* }* %_1 to { i8*, i64* }*
  %14 = getelementptr inbounds { i8*, i64* }, { i8*, i64* }* %13, i32 0, i32 0
  %15 = load i8*, i8** %14, align 8, !nonnull !10
  %16 = getelementptr inbounds { i8*, i64* }, { i8*, i64* }* %13, i32 0, i32 1
  %17 = load i64*, i64** %16, align 8, !nonnull !10
; call alloc::alloc::box_free
  call void @_ZN5alloc5alloc8box_free17hc8e5612752da2fa4E(i8* nonnull %15, i64* align 8 dereferenceable(24) %17) #14
  br label %bb2

cleanup:                                          ; preds = %start
  %18 = landingpad { i8*, i32 }
          cleanup
  %19 = extractvalue { i8*, i32 } %18, 0
  %20 = extractvalue { i8*, i32 } %18, 1
  %21 = getelementptr inbounds { i8*, i32 }, { i8*, i32 }* %0, i32 0, i32 0
  store i8* %19, i8** %21, align 8
  %22 = getelementptr inbounds { i8*, i32 }, { i8*, i32 }* %0, i32 0, i32 1
  store i32 %20, i32* %22, align 8
  br label %bb4

bb2:                                              ; preds = %bb4
  %23 = bitcast { i8*, i32 }* %0 to i8**
  %24 = load i8*, i8** %23, align 8
  %25 = getelementptr inbounds { i8*, i32 }, { i8*, i32 }* %0, i32 0, i32 1
  %26 = load i32, i32* %25, align 8
  %27 = insertvalue { i8*, i32 } undef, i8* %24, 0
  %28 = insertvalue { i8*, i32 } %27, i32 %26, 1
  resume { i8*, i32 } %28

bb1:                                              ; preds = %bb3
  ret void
}

; core::ptr::drop_in_place<[alloc::boxed::Box<dyn core::ops::function::FnMut<()>+Output = core::result::Result<(),std::io::error::Error>+core::marker::Send+core::marker::Sync>]>
; Function Attrs: nonlazybind uwtable
define internal void @"_ZN4core3ptr238drop_in_place$LT$$u5b$alloc..boxed..Box$LT$dyn$u20$core..ops..function..FnMut$LT$$LP$$RP$$GT$$u2b$Output$u20$$u3d$$u20$core..result..Result$LT$$LP$$RP$$C$std..io..error..Error$GT$$u2b$core..marker..Send$u2b$core..marker..Sync$GT$$u5d$$GT$17ha90cac7d1a88a930E"([0 x { {}*, [3 x i64]* }]* %_1.0, i64 %_1.1) unnamed_addr #1 personality i32 (i32, i32, i64, %"unwind::libunwind::_Unwind_Exception"*, %"unwind::libunwind::_Unwind_Context"*)* @rust_eh_personality {
start:
  %0 = alloca { i8*, i32 }, align 8
  %_9 = alloca { {}*, [3 x i64]* }*, align 8
  %_4 = alloca i64, align 8
  br i1 false, label %bb7, label %bb12

bb7:                                              ; preds = %start
  store i64 0, i64* %_4, align 8
  br label %bb6

bb12:                                             ; preds = %start
  %1 = bitcast [0 x { {}*, [3 x i64]* }]* %_1.0 to { {}*, [3 x i64]* }*
  store { {}*, [3 x i64]* }* %1, { {}*, [3 x i64]* }** %_9, align 8
  %2 = load { {}*, [3 x i64]* }*, { {}*, [3 x i64]* }** %_9, align 8
  %_10 = getelementptr inbounds { {}*, [3 x i64]* }, { {}*, [3 x i64]* }* %2, i64 %_1.1
  br label %bb11

bb11:                                             ; preds = %bb10, %bb12
  %3 = load { {}*, [3 x i64]* }*, { {}*, [3 x i64]* }** %_9, align 8
  %_14 = icmp eq { {}*, [3 x i64]* }* %3, %_10
  br i1 %_14, label %bb1, label %bb10

bb10:                                             ; preds = %bb11
  %_13 = load { {}*, [3 x i64]* }*, { {}*, [3 x i64]* }** %_9, align 8
  %4 = load { {}*, [3 x i64]* }*, { {}*, [3 x i64]* }** %_9, align 8
  %5 = getelementptr inbounds { {}*, [3 x i64]* }, { {}*, [3 x i64]* }* %4, i64 1
  store { {}*, [3 x i64]* }* %5, { {}*, [3 x i64]* }** %_9, align 8
; invoke core::ptr::drop_in_place<alloc::boxed::Box<dyn core::ops::function::FnMut<()>+Output = core::result::Result<(),std::io::error::Error>+core::marker::Send+core::marker::Sync>>
  invoke void @"_ZN4core3ptr228drop_in_place$LT$alloc..boxed..Box$LT$dyn$u20$core..ops..function..FnMut$LT$$LP$$RP$$GT$$u2b$Output$u20$$u3d$$u20$core..result..Result$LT$$LP$$RP$$C$std..io..error..Error$GT$$u2b$core..marker..Send$u2b$core..marker..Sync$GT$$GT$17h5d7e2a0f153a19f3E"({ {}*, [3 x i64]* }* %_13)
          to label %bb11 unwind label %cleanup

bb1:                                              ; preds = %bb6, %bb11
  ret void

bb9:                                              ; preds = %bb8, %cleanup
  %6 = load { {}*, [3 x i64]* }*, { {}*, [3 x i64]* }** %_9, align 8
  %_12 = icmp eq { {}*, [3 x i64]* }* %6, %_10
  br i1 %_12, label %bb2, label %bb8

cleanup:                                          ; preds = %bb10
  %7 = landingpad { i8*, i32 }
          cleanup
  %8 = extractvalue { i8*, i32 } %7, 0
  %9 = extractvalue { i8*, i32 } %7, 1
  %10 = getelementptr inbounds { i8*, i32 }, { i8*, i32 }* %0, i32 0, i32 0
  store i8* %8, i8** %10, align 8
  %11 = getelementptr inbounds { i8*, i32 }, { i8*, i32 }* %0, i32 0, i32 1
  store i32 %9, i32* %11, align 8
  br label %bb9

bb8:                                              ; preds = %bb9
  %_11 = load { {}*, [3 x i64]* }*, { {}*, [3 x i64]* }** %_9, align 8
  %12 = load { {}*, [3 x i64]* }*, { {}*, [3 x i64]* }** %_9, align 8
  %13 = getelementptr inbounds { {}*, [3 x i64]* }, { {}*, [3 x i64]* }* %12, i64 1
  store { {}*, [3 x i64]* }* %13, { {}*, [3 x i64]* }** %_9, align 8
; call core::ptr::drop_in_place<alloc::boxed::Box<dyn core::ops::function::FnMut<()>+Output = core::result::Result<(),std::io::error::Error>+core::marker::Send+core::marker::Sync>>
  call void @"_ZN4core3ptr228drop_in_place$LT$alloc..boxed..Box$LT$dyn$u20$core..ops..function..FnMut$LT$$LP$$RP$$GT$$u2b$Output$u20$$u3d$$u20$core..result..Result$LT$$LP$$RP$$C$std..io..error..Error$GT$$u2b$core..marker..Send$u2b$core..marker..Sync$GT$$GT$17h5d7e2a0f153a19f3E"({ {}*, [3 x i64]* }* %_11) #14
  br label %bb9

bb2:                                              ; preds = %bb4, %bb9
  %14 = bitcast { i8*, i32 }* %0 to i8**
  %15 = load i8*, i8** %14, align 8
  %16 = getelementptr inbounds { i8*, i32 }, { i8*, i32 }* %0, i32 0, i32 1
  %17 = load i32, i32* %16, align 8
  %18 = insertvalue { i8*, i32 } undef, i8* %15, 0
  %19 = insertvalue { i8*, i32 } %18, i32 %17, 1
  resume { i8*, i32 } %19

bb6:                                              ; preds = %bb5, %bb7
  %20 = load i64, i64* %_4, align 8
  %_8 = icmp eq i64 %20, %_1.1
  br i1 %_8, label %bb1, label %bb5

bb5:                                              ; preds = %bb6
  %21 = load i64, i64* %_4, align 8
  %_7 = getelementptr inbounds [0 x { {}*, [3 x i64]* }], [0 x { {}*, [3 x i64]* }]* %_1.0, i64 0, i64 %21
  %22 = load i64, i64* %_4, align 8
  %23 = add i64 %22, 1
  store i64 %23, i64* %_4, align 8
; invoke core::ptr::drop_in_place<alloc::boxed::Box<dyn core::ops::function::FnMut<()>+Output = core::result::Result<(),std::io::error::Error>+core::marker::Send+core::marker::Sync>>
  invoke void @"_ZN4core3ptr228drop_in_place$LT$alloc..boxed..Box$LT$dyn$u20$core..ops..function..FnMut$LT$$LP$$RP$$GT$$u2b$Output$u20$$u3d$$u20$core..result..Result$LT$$LP$$RP$$C$std..io..error..Error$GT$$u2b$core..marker..Send$u2b$core..marker..Sync$GT$$GT$17h5d7e2a0f153a19f3E"({ {}*, [3 x i64]* }* %_7)
          to label %bb6 unwind label %cleanup1

bb4:                                              ; preds = %bb3, %cleanup1
  %24 = load i64, i64* %_4, align 8
  %_6 = icmp eq i64 %24, %_1.1
  br i1 %_6, label %bb2, label %bb3

cleanup1:                                         ; preds = %bb5
  %25 = landingpad { i8*, i32 }
          cleanup
  %26 = extractvalue { i8*, i32 } %25, 0
  %27 = extractvalue { i8*, i32 } %25, 1
  %28 = getelementptr inbounds { i8*, i32 }, { i8*, i32 }* %0, i32 0, i32 0
  store i8* %26, i8** %28, align 8
  %29 = getelementptr inbounds { i8*, i32 }, { i8*, i32 }* %0, i32 0, i32 1
  store i32 %27, i32* %29, align 8
  br label %bb4

bb3:                                              ; preds = %bb4
  %30 = load i64, i64* %_4, align 8
  %_5 = getelementptr inbounds [0 x { {}*, [3 x i64]* }], [0 x { {}*, [3 x i64]* }]* %_1.0, i64 0, i64 %30
  %31 = load i64, i64* %_4, align 8
  %32 = add i64 %31, 1
  store i64 %32, i64* %_4, align 8
; call core::ptr::drop_in_place<alloc::boxed::Box<dyn core::ops::function::FnMut<()>+Output = core::result::Result<(),std::io::error::Error>+core::marker::Send+core::marker::Sync>>
  call void @"_ZN4core3ptr228drop_in_place$LT$alloc..boxed..Box$LT$dyn$u20$core..ops..function..FnMut$LT$$LP$$RP$$GT$$u2b$Output$u20$$u3d$$u20$core..result..Result$LT$$LP$$RP$$C$std..io..error..Error$GT$$u2b$core..marker..Send$u2b$core..marker..Sync$GT$$GT$17h5d7e2a0f153a19f3E"({ {}*, [3 x i64]* }* %_5) #14
  br label %bb4
}

; core::ptr::slice_from_raw_parts_mut
; Function Attrs: inlinehint nonlazybind uwtable
define internal { [0 x i8*]*, i64 } @_ZN4core3ptr24slice_from_raw_parts_mut17h11b0ca814ee330e0E(i8** %data, i64 %len) unnamed_addr #0 {
start:
  %0 = bitcast i8** %data to {}*
  br label %bb1

bb1:                                              ; preds = %start
; call core::ptr::metadata::from_raw_parts_mut
  %1 = call { [0 x i8*]*, i64 } @_ZN4core3ptr8metadata18from_raw_parts_mut17h940d78118757d8eeE({}* %0, i64 %len)
  %2 = extractvalue { [0 x i8*]*, i64 } %1, 0
  %3 = extractvalue { [0 x i8*]*, i64 } %1, 1
  br label %bb2

bb2:                                              ; preds = %bb1
  %4 = insertvalue { [0 x i8*]*, i64 } undef, [0 x i8*]* %2, 0
  %5 = insertvalue { [0 x i8*]*, i64 } %4, i64 %3, 1
  ret { [0 x i8*]*, i64 } %5
}

; core::ptr::slice_from_raw_parts_mut
; Function Attrs: inlinehint nonlazybind uwtable
define internal { [0 x i8]*, i64 } @_ZN4core3ptr24slice_from_raw_parts_mut17h8a9c88a1201dbd10E(i8* %data, i64 %len) unnamed_addr #0 {
start:
  %0 = bitcast i8* %data to {}*
  br label %bb1

bb1:                                              ; preds = %start
; call core::ptr::metadata::from_raw_parts_mut
  %1 = call { [0 x i8]*, i64 } @_ZN4core3ptr8metadata18from_raw_parts_mut17hb53c90d6d44216b1E({}* %0, i64 %len)
  %2 = extractvalue { [0 x i8]*, i64 } %1, 0
  %3 = extractvalue { [0 x i8]*, i64 } %1, 1
  br label %bb2

bb2:                                              ; preds = %bb1
  %4 = insertvalue { [0 x i8]*, i64 } undef, [0 x i8]* %2, 0
  %5 = insertvalue { [0 x i8]*, i64 } %4, i64 %3, 1
  ret { [0 x i8]*, i64 } %5
}

; core::ptr::slice_from_raw_parts_mut
; Function Attrs: inlinehint nonlazybind uwtable
define internal { [0 x { i8*, i64 }]*, i64 } @_ZN4core3ptr24slice_from_raw_parts_mut17h8fafe0aa8d9a695eE({ i8*, i64 }* %data, i64 %len) unnamed_addr #0 {
start:
  %0 = bitcast { i8*, i64 }* %data to {}*
  br label %bb1

bb1:                                              ; preds = %start
; call core::ptr::metadata::from_raw_parts_mut
  %1 = call { [0 x { i8*, i64 }]*, i64 } @_ZN4core3ptr8metadata18from_raw_parts_mut17hd1cd3455269e6d12E({}* %0, i64 %len)
  %2 = extractvalue { [0 x { i8*, i64 }]*, i64 } %1, 0
  %3 = extractvalue { [0 x { i8*, i64 }]*, i64 } %1, 1
  br label %bb2

bb2:                                              ; preds = %bb1
  %4 = insertvalue { [0 x { i8*, i64 }]*, i64 } undef, [0 x { i8*, i64 }]* %2, 0
  %5 = insertvalue { [0 x { i8*, i64 }]*, i64 } %4, i64 %3, 1
  ret { [0 x { i8*, i64 }]*, i64 } %5
}

; core::ptr::slice_from_raw_parts_mut
; Function Attrs: inlinehint nonlazybind uwtable
define internal { [0 x { {}*, [3 x i64]* }]*, i64 } @_ZN4core3ptr24slice_from_raw_parts_mut17hf5ad87edaaca85cbE({ {}*, [3 x i64]* }* %data, i64 %len) unnamed_addr #0 {
start:
  %0 = bitcast { {}*, [3 x i64]* }* %data to {}*
  br label %bb1

bb1:                                              ; preds = %start
; call core::ptr::metadata::from_raw_parts_mut
  %1 = call { [0 x { {}*, [3 x i64]* }]*, i64 } @_ZN4core3ptr8metadata18from_raw_parts_mut17h8357872d5d81676aE({}* %0, i64 %len)
  %2 = extractvalue { [0 x { {}*, [3 x i64]* }]*, i64 } %1, 0
  %3 = extractvalue { [0 x { {}*, [3 x i64]* }]*, i64 } %1, 1
  br label %bb2

bb2:                                              ; preds = %bb1
  %4 = insertvalue { [0 x { {}*, [3 x i64]* }]*, i64 } undef, [0 x { {}*, [3 x i64]* }]* %2, 0
  %5 = insertvalue { [0 x { {}*, [3 x i64]* }]*, i64 } %4, i64 %3, 1
  ret { [0 x { {}*, [3 x i64]* }]*, i64 } %5
}

; core::ptr::drop_in_place<alloc::vec::Vec<alloc::boxed::Box<dyn core::ops::function::FnMut<()>+Output = core::result::Result<(),std::io::error::Error>+core::marker::Send+core::marker::Sync>>>
; Function Attrs: nonlazybind uwtable
define internal void @"_ZN4core3ptr251drop_in_place$LT$alloc..vec..Vec$LT$alloc..boxed..Box$LT$dyn$u20$core..ops..function..FnMut$LT$$LP$$RP$$GT$$u2b$Output$u20$$u3d$$u20$core..result..Result$LT$$LP$$RP$$C$std..io..error..Error$GT$$u2b$core..marker..Send$u2b$core..marker..Sync$GT$$GT$$GT$17h32253ac4620306b1E"(%"alloc::vec::Vec<alloc::boxed::Box<dyn core::ops::function::FnMut() -> core::result::Result<(), std::io::error::Error> + core::marker::Send + core::marker::Sync>>"* %_1) unnamed_addr #1 personality i32 (i32, i32, i64, %"unwind::libunwind::_Unwind_Exception"*, %"unwind::libunwind::_Unwind_Context"*)* @rust_eh_personality {
start:
  %0 = alloca { i8*, i32 }, align 8
; invoke <alloc::vec::Vec<T,A> as core::ops::drop::Drop>::drop
  invoke void @"_ZN70_$LT$alloc..vec..Vec$LT$T$C$A$GT$$u20$as$u20$core..ops..drop..Drop$GT$4drop17h1ee9a0301af93018E"(%"alloc::vec::Vec<alloc::boxed::Box<dyn core::ops::function::FnMut() -> core::result::Result<(), std::io::error::Error> + core::marker::Send + core::marker::Sync>>"* align 8 dereferenceable(24) %_1)
          to label %bb4 unwind label %cleanup

bb4:                                              ; preds = %start
  %1 = bitcast %"alloc::vec::Vec<alloc::boxed::Box<dyn core::ops::function::FnMut() -> core::result::Result<(), std::io::error::Error> + core::marker::Send + core::marker::Sync>>"* %_1 to { i64*, i64 }*
; call core::ptr::drop_in_place<alloc::raw_vec::RawVec<alloc::boxed::Box<dyn core::ops::function::FnMut<()>+Output = core::result::Result<(),std::io::error::Error>+core::marker::Send+core::marker::Sync>>>
  call void @"_ZN4core3ptr258drop_in_place$LT$alloc..raw_vec..RawVec$LT$alloc..boxed..Box$LT$dyn$u20$core..ops..function..FnMut$LT$$LP$$RP$$GT$$u2b$Output$u20$$u3d$$u20$core..result..Result$LT$$LP$$RP$$C$std..io..error..Error$GT$$u2b$core..marker..Send$u2b$core..marker..Sync$GT$$GT$$GT$17hc068da53af282725E"({ i64*, i64 }* %1)
  br label %bb2

bb3:                                              ; preds = %cleanup
  %2 = bitcast %"alloc::vec::Vec<alloc::boxed::Box<dyn core::ops::function::FnMut() -> core::result::Result<(), std::io::error::Error> + core::marker::Send + core::marker::Sync>>"* %_1 to { i64*, i64 }*
; call core::ptr::drop_in_place<alloc::raw_vec::RawVec<alloc::boxed::Box<dyn core::ops::function::FnMut<()>+Output = core::result::Result<(),std::io::error::Error>+core::marker::Send+core::marker::Sync>>>
  call void @"_ZN4core3ptr258drop_in_place$LT$alloc..raw_vec..RawVec$LT$alloc..boxed..Box$LT$dyn$u20$core..ops..function..FnMut$LT$$LP$$RP$$GT$$u2b$Output$u20$$u3d$$u20$core..result..Result$LT$$LP$$RP$$C$std..io..error..Error$GT$$u2b$core..marker..Send$u2b$core..marker..Sync$GT$$GT$$GT$17hc068da53af282725E"({ i64*, i64 }* %2) #14
  br label %bb1

cleanup:                                          ; preds = %start
  %3 = landingpad { i8*, i32 }
          cleanup
  %4 = extractvalue { i8*, i32 } %3, 0
  %5 = extractvalue { i8*, i32 } %3, 1
  %6 = getelementptr inbounds { i8*, i32 }, { i8*, i32 }* %0, i32 0, i32 0
  store i8* %4, i8** %6, align 8
  %7 = getelementptr inbounds { i8*, i32 }, { i8*, i32 }* %0, i32 0, i32 1
  store i32 %5, i32* %7, align 8
  br label %bb3

bb1:                                              ; preds = %bb3
  %8 = bitcast { i8*, i32 }* %0 to i8**
  %9 = load i8*, i8** %8, align 8
  %10 = getelementptr inbounds { i8*, i32 }, { i8*, i32 }* %0, i32 0, i32 1
  %11 = load i32, i32* %10, align 8
  %12 = insertvalue { i8*, i32 } undef, i8* %9, 0
  %13 = insertvalue { i8*, i32 } %12, i32 %11, 1
  resume { i8*, i32 } %13

bb2:                                              ; preds = %bb4
  ret void
}

; core::ptr::drop_in_place<alloc::raw_vec::RawVec<alloc::boxed::Box<dyn core::ops::function::FnMut<()>+Output = core::result::Result<(),std::io::error::Error>+core::marker::Send+core::marker::Sync>>>
; Function Attrs: nonlazybind uwtable
define internal void @"_ZN4core3ptr258drop_in_place$LT$alloc..raw_vec..RawVec$LT$alloc..boxed..Box$LT$dyn$u20$core..ops..function..FnMut$LT$$LP$$RP$$GT$$u2b$Output$u20$$u3d$$u20$core..result..Result$LT$$LP$$RP$$C$std..io..error..Error$GT$$u2b$core..marker..Send$u2b$core..marker..Sync$GT$$GT$$GT$17hc068da53af282725E"({ i64*, i64 }* %_1) unnamed_addr #1 {
start:
; call <alloc::raw_vec::RawVec<T,A> as core::ops::drop::Drop>::drop
  call void @"_ZN77_$LT$alloc..raw_vec..RawVec$LT$T$C$A$GT$$u20$as$u20$core..ops..drop..Drop$GT$4drop17h7cf262cca43e6887E"({ i64*, i64 }* align 8 dereferenceable(16) %_1)
  br label %bb1

bb1:                                              ; preds = %start
  ret void
}

; core::ptr::drop_in_place<std::env::VarError>
; Function Attrs: nonlazybind uwtable
define internal void @"_ZN4core3ptr39drop_in_place$LT$std..env..VarError$GT$17h6a14be61b986bff1E"(%"std::env::VarError"* %_1) unnamed_addr #1 {
start:
  %0 = bitcast %"std::env::VarError"* %_1 to {}**
  %1 = load {}*, {}** %0, align 8
  %2 = icmp eq {}* %1, null
  %_2 = select i1 %2, i64 0, i64 1
  %3 = icmp eq i64 %_2, 0
  br i1 %3, label %bb1, label %bb2

bb1:                                              ; preds = %bb2, %start
  ret void

bb2:                                              ; preds = %start
  %4 = bitcast %"std::env::VarError"* %_1 to %"std::env::VarError::NotUnicode"*
  %5 = bitcast %"std::env::VarError::NotUnicode"* %4 to %"std::ffi::os_str::OsString"*
; call core::ptr::drop_in_place<std::ffi::os_str::OsString>
  call void @"_ZN4core3ptr47drop_in_place$LT$std..ffi..os_str..OsString$GT$17ha3b52ed70e7626b8E"(%"std::ffi::os_str::OsString"* %5)
  br label %bb1
}

; core::ptr::drop_in_place<std::io::error::Repr>
; Function Attrs: nonlazybind uwtable
define internal void @"_ZN4core3ptr41drop_in_place$LT$std..io..error..Repr$GT$17hd9736d4fe62e9246E"(%"std::io::error::Repr"* %_1) unnamed_addr #1 {
start:
  %0 = bitcast %"std::io::error::Repr"* %_1 to i8*
  %1 = load i8, i8* %0, align 8, !range !13
  %_2 = zext i8 %1 to i64
  switch i64 %_2, label %bb2 [
    i64 0, label %bb1
    i64 1, label %bb1
    i64 2, label %bb1
  ]

bb2:                                              ; preds = %start
  %2 = bitcast %"std::io::error::Repr"* %_1 to %"std::io::error::Repr::Custom"*
  %3 = getelementptr inbounds %"std::io::error::Repr::Custom", %"std::io::error::Repr::Custom"* %2, i32 0, i32 1
; call core::ptr::drop_in_place<alloc::boxed::Box<std::io::error::Custom>>
  call void @"_ZN4core3ptr68drop_in_place$LT$alloc..boxed..Box$LT$std..io..error..Custom$GT$$GT$17h975b98e475969dd6E"(%"std::io::error::Custom"** %3)
  br label %bb1

bb1:                                              ; preds = %bb2, %start, %start, %start
  ret void
}

; core::ptr::drop_in_place<std::process::Output>
; Function Attrs: nonlazybind uwtable
define internal void @"_ZN4core3ptr41drop_in_place$LT$std..process..Output$GT$17hcf80da97e9c32689E"(%"std::process::Output"* %_1) unnamed_addr #1 personality i32 (i32, i32, i64, %"unwind::libunwind::_Unwind_Exception"*, %"unwind::libunwind::_Unwind_Context"*)* @rust_eh_personality {
start:
  %0 = alloca { i8*, i32 }, align 8
  %1 = bitcast %"std::process::Output"* %_1 to %"alloc::vec::Vec<u8>"*
; invoke core::ptr::drop_in_place<alloc::vec::Vec<u8>>
  invoke void @"_ZN4core3ptr46drop_in_place$LT$alloc..vec..Vec$LT$u8$GT$$GT$17h13c5d99d0e07cbf8E"(%"alloc::vec::Vec<u8>"* %1)
          to label %bb4 unwind label %cleanup

bb4:                                              ; preds = %start
  %2 = getelementptr inbounds %"std::process::Output", %"std::process::Output"* %_1, i32 0, i32 1
; call core::ptr::drop_in_place<alloc::vec::Vec<u8>>
  call void @"_ZN4core3ptr46drop_in_place$LT$alloc..vec..Vec$LT$u8$GT$$GT$17h13c5d99d0e07cbf8E"(%"alloc::vec::Vec<u8>"* %2)
  br label %bb2

bb3:                                              ; preds = %cleanup
  %3 = getelementptr inbounds %"std::process::Output", %"std::process::Output"* %_1, i32 0, i32 1
; call core::ptr::drop_in_place<alloc::vec::Vec<u8>>
  call void @"_ZN4core3ptr46drop_in_place$LT$alloc..vec..Vec$LT$u8$GT$$GT$17h13c5d99d0e07cbf8E"(%"alloc::vec::Vec<u8>"* %3) #14
  br label %bb1

cleanup:                                          ; preds = %start
  %4 = landingpad { i8*, i32 }
          cleanup
  %5 = extractvalue { i8*, i32 } %4, 0
  %6 = extractvalue { i8*, i32 } %4, 1
  %7 = getelementptr inbounds { i8*, i32 }, { i8*, i32 }* %0, i32 0, i32 0
  store i8* %5, i8** %7, align 8
  %8 = getelementptr inbounds { i8*, i32 }, { i8*, i32 }* %0, i32 0, i32 1
  store i32 %6, i32* %8, align 8
  br label %bb3

bb1:                                              ; preds = %bb3
  %9 = bitcast { i8*, i32 }* %0 to i8**
  %10 = load i8*, i8** %9, align 8
  %11 = getelementptr inbounds { i8*, i32 }, { i8*, i32 }* %0, i32 0, i32 1
  %12 = load i32, i32* %11, align 8
  %13 = insertvalue { i8*, i32 } undef, i8* %10, 0
  %14 = insertvalue { i8*, i32 } %13, i32 %12, 1
  resume { i8*, i32 } %14

bb2:                                              ; preds = %bb4
  ret void
}

; core::ptr::drop_in_place<alloc::string::String>
; Function Attrs: nonlazybind uwtable
define internal void @"_ZN4core3ptr42drop_in_place$LT$alloc..string..String$GT$17hff386e69a0745766E"(%"alloc::string::String"* %_1) unnamed_addr #1 {
start:
  %0 = bitcast %"alloc::string::String"* %_1 to %"alloc::vec::Vec<u8>"*
; call core::ptr::drop_in_place<alloc::vec::Vec<u8>>
  call void @"_ZN4core3ptr46drop_in_place$LT$alloc..vec..Vec$LT$u8$GT$$GT$17h13c5d99d0e07cbf8E"(%"alloc::vec::Vec<u8>"* %0)
  br label %bb1

bb1:                                              ; preds = %start
  ret void
}

; core::ptr::drop_in_place<std::io::error::Error>
; Function Attrs: nonlazybind uwtable
define internal void @"_ZN4core3ptr42drop_in_place$LT$std..io..error..Error$GT$17h17f141f340a625cbE"(%"std::io::error::Error"* %_1) unnamed_addr #1 {
start:
  %0 = bitcast %"std::io::error::Error"* %_1 to %"std::io::error::Repr"*
; call core::ptr::drop_in_place<std::io::error::Repr>
  call void @"_ZN4core3ptr41drop_in_place$LT$std..io..error..Repr$GT$17hd9736d4fe62e9246E"(%"std::io::error::Repr"* %0)
  br label %bb1

bb1:                                              ; preds = %start
  ret void
}

; core::ptr::drop_in_place<std::process::Command>
; Function Attrs: nonlazybind uwtable
define internal void @"_ZN4core3ptr42drop_in_place$LT$std..process..Command$GT$17hb7292255c0a33e3fE"(%"std::process::Command"* %_1) unnamed_addr #1 {
start:
  %0 = bitcast %"std::process::Command"* %_1 to %"std::sys::unix::process::process_common::Command"*
; call core::ptr::drop_in_place<std::sys::unix::process::process_common::Command>
  call void @"_ZN4core3ptr69drop_in_place$LT$std..sys..unix..process..process_common..Command$GT$17h11143fd4d4b9cab0E"(%"std::sys::unix::process::process_common::Command"* %0)
  br label %bb1

bb1:                                              ; preds = %start
  ret void
}

; core::ptr::drop_in_place<std::io::error::Custom>
; Function Attrs: nonlazybind uwtable
define internal void @"_ZN4core3ptr43drop_in_place$LT$std..io..error..Custom$GT$17h13bd573d5e737147E"(%"std::io::error::Custom"* %_1) unnamed_addr #1 {
start:
  %0 = bitcast %"std::io::error::Custom"* %_1 to { {}*, [3 x i64]* }*
; call core::ptr::drop_in_place<alloc::boxed::Box<dyn std::error::Error+core::marker::Send+core::marker::Sync>>
  call void @"_ZN4core3ptr117drop_in_place$LT$alloc..boxed..Box$LT$dyn$u20$std..error..Error$u2b$core..marker..Send$u2b$core..marker..Sync$GT$$GT$17h14d2b31b3f4fff53E"({ {}*, [3 x i64]* }* %0)
  br label %bb1

bb1:                                              ; preds = %start
  ret void
}

; core::ptr::drop_in_place<std::ffi::c_str::CString>
; Function Attrs: nonlazybind uwtable
define internal void @"_ZN4core3ptr45drop_in_place$LT$std..ffi..c_str..CString$GT$17h596c4491fbfdd599E"({ i8*, i64 }* %_1) unnamed_addr #1 personality i32 (i32, i32, i64, %"unwind::libunwind::_Unwind_Exception"*, %"unwind::libunwind::_Unwind_Context"*)* @rust_eh_personality {
start:
  %0 = alloca { i8*, i32 }, align 8
; invoke <std::ffi::c_str::CString as core::ops::drop::Drop>::drop
  invoke void @"_ZN66_$LT$std..ffi..c_str..CString$u20$as$u20$core..ops..drop..Drop$GT$4drop17hfba6e3bf4b90a091E"({ i8*, i64 }* align 8 dereferenceable(16) %_1)
          to label %bb4 unwind label %cleanup

bb4:                                              ; preds = %start
  %1 = bitcast { i8*, i64 }* %_1 to { [0 x i8]*, i64 }*
; call core::ptr::drop_in_place<alloc::boxed::Box<[u8]>>
  call void @"_ZN4core3ptr58drop_in_place$LT$alloc..boxed..Box$LT$$u5b$u8$u5d$$GT$$GT$17h7431a28d4d25519cE"({ [0 x i8]*, i64 }* %1)
  br label %bb2

bb3:                                              ; preds = %cleanup
  %2 = bitcast { i8*, i64 }* %_1 to { [0 x i8]*, i64 }*
; call core::ptr::drop_in_place<alloc::boxed::Box<[u8]>>
  call void @"_ZN4core3ptr58drop_in_place$LT$alloc..boxed..Box$LT$$u5b$u8$u5d$$GT$$GT$17h7431a28d4d25519cE"({ [0 x i8]*, i64 }* %2) #14
  br label %bb1

cleanup:                                          ; preds = %start
  %3 = landingpad { i8*, i32 }
          cleanup
  %4 = extractvalue { i8*, i32 } %3, 0
  %5 = extractvalue { i8*, i32 } %3, 1
  %6 = getelementptr inbounds { i8*, i32 }, { i8*, i32 }* %0, i32 0, i32 0
  store i8* %4, i8** %6, align 8
  %7 = getelementptr inbounds { i8*, i32 }, { i8*, i32 }* %0, i32 0, i32 1
  store i32 %5, i32* %7, align 8
  br label %bb3

bb1:                                              ; preds = %bb3
  %8 = bitcast { i8*, i32 }* %0 to i8**
  %9 = load i8*, i8** %8, align 8
  %10 = getelementptr inbounds { i8*, i32 }, { i8*, i32 }* %0, i32 0, i32 1
  %11 = load i32, i32* %10, align 8
  %12 = insertvalue { i8*, i32 } undef, i8* %9, 0
  %13 = insertvalue { i8*, i32 } %12, i32 %11, 1
  resume { i8*, i32 } %13

bb2:                                              ; preds = %bb4
  ret void
}

; core::ptr::drop_in_place<alloc::vec::Vec<u8>>
; Function Attrs: nonlazybind uwtable
define internal void @"_ZN4core3ptr46drop_in_place$LT$alloc..vec..Vec$LT$u8$GT$$GT$17h13c5d99d0e07cbf8E"(%"alloc::vec::Vec<u8>"* %_1) unnamed_addr #1 personality i32 (i32, i32, i64, %"unwind::libunwind::_Unwind_Exception"*, %"unwind::libunwind::_Unwind_Context"*)* @rust_eh_personality {
start:
  %0 = alloca { i8*, i32 }, align 8
; invoke <alloc::vec::Vec<T,A> as core::ops::drop::Drop>::drop
  invoke void @"_ZN70_$LT$alloc..vec..Vec$LT$T$C$A$GT$$u20$as$u20$core..ops..drop..Drop$GT$4drop17h66440deb92c06edcE"(%"alloc::vec::Vec<u8>"* align 8 dereferenceable(24) %_1)
          to label %bb4 unwind label %cleanup

bb4:                                              ; preds = %start
  %1 = bitcast %"alloc::vec::Vec<u8>"* %_1 to { i8*, i64 }*
; call core::ptr::drop_in_place<alloc::raw_vec::RawVec<u8>>
  call void @"_ZN4core3ptr53drop_in_place$LT$alloc..raw_vec..RawVec$LT$u8$GT$$GT$17hcfb8597b3e6c5979E"({ i8*, i64 }* %1)
  br label %bb2

bb3:                                              ; preds = %cleanup
  %2 = bitcast %"alloc::vec::Vec<u8>"* %_1 to { i8*, i64 }*
; call core::ptr::drop_in_place<alloc::raw_vec::RawVec<u8>>
  call void @"_ZN4core3ptr53drop_in_place$LT$alloc..raw_vec..RawVec$LT$u8$GT$$GT$17hcfb8597b3e6c5979E"({ i8*, i64 }* %2) #14
  br label %bb1

cleanup:                                          ; preds = %start
  %3 = landingpad { i8*, i32 }
          cleanup
  %4 = extractvalue { i8*, i32 } %3, 0
  %5 = extractvalue { i8*, i32 } %3, 1
  %6 = getelementptr inbounds { i8*, i32 }, { i8*, i32 }* %0, i32 0, i32 0
  store i8* %4, i8** %6, align 8
  %7 = getelementptr inbounds { i8*, i32 }, { i8*, i32 }* %0, i32 0, i32 1
  store i32 %5, i32* %7, align 8
  br label %bb3

bb1:                                              ; preds = %bb3
  %8 = bitcast { i8*, i32 }* %0 to i8**
  %9 = load i8*, i8** %8, align 8
  %10 = getelementptr inbounds { i8*, i32 }, { i8*, i32 }* %0, i32 0, i32 1
  %11 = load i32, i32* %10, align 8
  %12 = insertvalue { i8*, i32 } undef, i8* %9, 0
  %13 = insertvalue { i8*, i32 } %12, i32 %11, 1
  resume { i8*, i32 } %13

bb2:                                              ; preds = %bb4
  ret void
}

; core::ptr::drop_in_place<std::ffi::os_str::OsString>
; Function Attrs: nonlazybind uwtable
define internal void @"_ZN4core3ptr47drop_in_place$LT$std..ffi..os_str..OsString$GT$17ha3b52ed70e7626b8E"(%"std::ffi::os_str::OsString"* %_1) unnamed_addr #1 {
start:
  %0 = bitcast %"std::ffi::os_str::OsString"* %_1 to %"std::sys::unix::os_str::Buf"*
; call core::ptr::drop_in_place<std::sys::unix::os_str::Buf>
  call void @"_ZN4core3ptr48drop_in_place$LT$std..sys..unix..os_str..Buf$GT$17h52c1110bdb612892E"(%"std::sys::unix::os_str::Buf"* %0)
  br label %bb1

bb1:                                              ; preds = %start
  ret void
}

; core::ptr::drop_in_place<std::os::fd::owned::OwnedFd>
; Function Attrs: nonlazybind uwtable
define internal void @"_ZN4core3ptr48drop_in_place$LT$std..os..fd..owned..OwnedFd$GT$17hbb00301f0a38e150E"(i32* %_1) unnamed_addr #1 {
start:
; call <std::os::fd::owned::OwnedFd as core::ops::drop::Drop>::drop
  call void @"_ZN69_$LT$std..os..fd..owned..OwnedFd$u20$as$u20$core..ops..drop..Drop$GT$4drop17hd2d841205c062849E"(i32* align 4 dereferenceable(4) %_1)
  br label %bb1

bb1:                                              ; preds = %start
  ret void
}

; core::ptr::drop_in_place<std::sys::unix::os_str::Buf>
; Function Attrs: nonlazybind uwtable
define internal void @"_ZN4core3ptr48drop_in_place$LT$std..sys..unix..os_str..Buf$GT$17h52c1110bdb612892E"(%"std::sys::unix::os_str::Buf"* %_1) unnamed_addr #1 {
start:
  %0 = bitcast %"std::sys::unix::os_str::Buf"* %_1 to %"alloc::vec::Vec<u8>"*
; call core::ptr::drop_in_place<alloc::vec::Vec<u8>>
  call void @"_ZN4core3ptr46drop_in_place$LT$alloc..vec..Vec$LT$u8$GT$$GT$17h13c5d99d0e07cbf8E"(%"alloc::vec::Vec<u8>"* %0)
  br label %bb1

bb1:                                              ; preds = %start
  ret void
}

; core::ptr::drop_in_place<std::sys::unix::fd::FileDesc>
; Function Attrs: nonlazybind uwtable
define internal void @"_ZN4core3ptr49drop_in_place$LT$std..sys..unix..fd..FileDesc$GT$17h9a9b01987cb3f753E"(i32* %_1) unnamed_addr #1 {
start:
; call core::ptr::drop_in_place<std::os::fd::owned::OwnedFd>
  call void @"_ZN4core3ptr48drop_in_place$LT$std..os..fd..owned..OwnedFd$GT$17hbb00301f0a38e150E"(i32* %_1)
  br label %bb1

bb1:                                              ; preds = %start
  ret void
}

; core::ptr::read
; Function Attrs: inlinehint nonlazybind uwtable
define internal void @_ZN4core3ptr4read17h3db92aad6dfbe7cfE(%"alloc::collections::btree::map::BTreeMap<std::ffi::os_str::OsString, core::option::Option<std::ffi::os_str::OsString>>"* noalias nocapture sret(%"alloc::collections::btree::map::BTreeMap<std::ffi::os_str::OsString, core::option::Option<std::ffi::os_str::OsString>>") dereferenceable(24) %0, %"alloc::collections::btree::map::BTreeMap<std::ffi::os_str::OsString, core::option::Option<std::ffi::os_str::OsString>>"* %src) unnamed_addr #0 {
start:
  %_3.i = alloca %"core::mem::manually_drop::ManuallyDrop<alloc::collections::btree::map::BTreeMap<std::ffi::os_str::OsString, core::option::Option<std::ffi::os_str::OsString>>>", align 8
  %_6 = alloca %"core::mem::maybe_uninit::MaybeUninit<alloc::collections::btree::map::BTreeMap<std::ffi::os_str::OsString, core::option::Option<std::ffi::os_str::OsString>>>", align 8
  %tmp = alloca %"core::mem::maybe_uninit::MaybeUninit<alloc::collections::btree::map::BTreeMap<std::ffi::os_str::OsString, core::option::Option<std::ffi::os_str::OsString>>>", align 8
  call void @llvm.experimental.noalias.scope.decl(metadata !14)
  %1 = bitcast %"core::mem::maybe_uninit::MaybeUninit<alloc::collections::btree::map::BTreeMap<std::ffi::os_str::OsString, core::option::Option<std::ffi::os_str::OsString>>>"* %tmp to {}*
  br label %bb1

bb1:                                              ; preds = %start
  %2 = bitcast %"core::mem::maybe_uninit::MaybeUninit<alloc::collections::btree::map::BTreeMap<std::ffi::os_str::OsString, core::option::Option<std::ffi::os_str::OsString>>>"* %tmp to %"alloc::collections::btree::map::BTreeMap<std::ffi::os_str::OsString, core::option::Option<std::ffi::os_str::OsString>>"*
  br label %bb2

bb2:                                              ; preds = %bb1
  %3 = bitcast %"alloc::collections::btree::map::BTreeMap<std::ffi::os_str::OsString, core::option::Option<std::ffi::os_str::OsString>>"* %2 to i8*
  %4 = bitcast %"alloc::collections::btree::map::BTreeMap<std::ffi::os_str::OsString, core::option::Option<std::ffi::os_str::OsString>>"* %src to i8*
  call void @llvm.memcpy.p0i8.p0i8.i64(i8* align 8 %3, i8* align 8 %4, i64 24, i1 false)
  %5 = bitcast %"core::mem::maybe_uninit::MaybeUninit<alloc::collections::btree::map::BTreeMap<std::ffi::os_str::OsString, core::option::Option<std::ffi::os_str::OsString>>>"* %_6 to i8*
  %6 = bitcast %"core::mem::maybe_uninit::MaybeUninit<alloc::collections::btree::map::BTreeMap<std::ffi::os_str::OsString, core::option::Option<std::ffi::os_str::OsString>>>"* %tmp to i8*
  call void @llvm.memcpy.p0i8.p0i8.i64(i8* align 8 %5, i8* align 8 %6, i64 24, i1 false)
  call void @llvm.experimental.noalias.scope.decl(metadata !17)
  call void @llvm.experimental.noalias.scope.decl(metadata !20)
  %7 = bitcast %"core::mem::maybe_uninit::MaybeUninit<alloc::collections::btree::map::BTreeMap<std::ffi::os_str::OsString, core::option::Option<std::ffi::os_str::OsString>>>"* %_6 to %"core::mem::manually_drop::ManuallyDrop<alloc::collections::btree::map::BTreeMap<std::ffi::os_str::OsString, core::option::Option<std::ffi::os_str::OsString>>>"*
  %8 = bitcast %"core::mem::manually_drop::ManuallyDrop<alloc::collections::btree::map::BTreeMap<std::ffi::os_str::OsString, core::option::Option<std::ffi::os_str::OsString>>>"* %_3.i to i8*
  %9 = bitcast %"core::mem::manually_drop::ManuallyDrop<alloc::collections::btree::map::BTreeMap<std::ffi::os_str::OsString, core::option::Option<std::ffi::os_str::OsString>>>"* %7 to i8*
  call void @llvm.memcpy.p0i8.p0i8.i64(i8* align 8 %8, i8* align 8 %9, i64 24, i1 false), !noalias !17
  call void @llvm.experimental.noalias.scope.decl(metadata !22)
  call void @llvm.experimental.noalias.scope.decl(metadata !25)
  %10 = bitcast %"core::mem::manually_drop::ManuallyDrop<alloc::collections::btree::map::BTreeMap<std::ffi::os_str::OsString, core::option::Option<std::ffi::os_str::OsString>>>"* %_3.i to %"alloc::collections::btree::map::BTreeMap<std::ffi::os_str::OsString, core::option::Option<std::ffi::os_str::OsString>>"*
  %11 = bitcast %"alloc::collections::btree::map::BTreeMap<std::ffi::os_str::OsString, core::option::Option<std::ffi::os_str::OsString>>"* %0 to i8*
  %12 = bitcast %"alloc::collections::btree::map::BTreeMap<std::ffi::os_str::OsString, core::option::Option<std::ffi::os_str::OsString>>"* %10 to i8*
  call void @llvm.memcpy.p0i8.p0i8.i64(i8* align 8 %11, i8* align 8 %12, i64 24, i1 false), !alias.scope !27, !noalias !20
  br label %bb3

bb3:                                              ; preds = %bb2
  ret void
}

; core::ptr::read
; Function Attrs: inlinehint nonlazybind uwtable
define internal i64 @_ZN4core3ptr4read17h72490f94af10584fE(i64* %src) unnamed_addr #0 {
start:
  %0 = alloca i64, align 8
  %tmp = alloca i64, align 8
  %1 = bitcast i64* %0 to {}*
  %2 = load i64, i64* %0, align 8
  store i64 %2, i64* %tmp, align 8
  br label %bb1

bb1:                                              ; preds = %start
  br label %bb2

bb2:                                              ; preds = %bb1
  %3 = bitcast i64* %tmp to i8*
  %4 = bitcast i64* %src to i8*
  call void @llvm.memcpy.p0i8.p0i8.i64(i8* align 8 %3, i8* align 8 %4, i64 8, i1 false)
  %_6 = load i64, i64* %tmp, align 8
  br label %bb3

bb3:                                              ; preds = %bb2
  ret i64 %_6
}

; core::ptr::read
; Function Attrs: inlinehint nonlazybind uwtable
define internal void @_ZN4core3ptr4read17h76fb20ec239bb345E(%"core::option::Option<alloc::collections::btree::navigate::LazyLeafHandle<alloc::collections::btree::node::marker::Dying, std::ffi::os_str::OsString, core::option::Option<std::ffi::os_str::OsString>>>"* noalias nocapture sret(%"core::option::Option<alloc::collections::btree::navigate::LazyLeafHandle<alloc::collections::btree::node::marker::Dying, std::ffi::os_str::OsString, core::option::Option<std::ffi::os_str::OsString>>>") dereferenceable(32) %0, %"core::option::Option<alloc::collections::btree::navigate::LazyLeafHandle<alloc::collections::btree::node::marker::Dying, std::ffi::os_str::OsString, core::option::Option<std::ffi::os_str::OsString>>>"* %src) unnamed_addr #0 {
start:
  %_3.i = alloca %"core::mem::manually_drop::ManuallyDrop<core::option::Option<alloc::collections::btree::navigate::LazyLeafHandle<alloc::collections::btree::node::marker::Dying, std::ffi::os_str::OsString, core::option::Option<std::ffi::os_str::OsString>>>>", align 8
  %_6 = alloca %"core::mem::maybe_uninit::MaybeUninit<core::option::Option<alloc::collections::btree::navigate::LazyLeafHandle<alloc::collections::btree::node::marker::Dying, std::ffi::os_str::OsString, core::option::Option<std::ffi::os_str::OsString>>>>", align 8
  %tmp = alloca %"core::mem::maybe_uninit::MaybeUninit<core::option::Option<alloc::collections::btree::navigate::LazyLeafHandle<alloc::collections::btree::node::marker::Dying, std::ffi::os_str::OsString, core::option::Option<std::ffi::os_str::OsString>>>>", align 8
  call void @llvm.experimental.noalias.scope.decl(metadata !28)
  %1 = bitcast %"core::mem::maybe_uninit::MaybeUninit<core::option::Option<alloc::collections::btree::navigate::LazyLeafHandle<alloc::collections::btree::node::marker::Dying, std::ffi::os_str::OsString, core::option::Option<std::ffi::os_str::OsString>>>>"* %tmp to {}*
  br label %bb1

bb1:                                              ; preds = %start
  %2 = bitcast %"core::mem::maybe_uninit::MaybeUninit<core::option::Option<alloc::collections::btree::navigate::LazyLeafHandle<alloc::collections::btree::node::marker::Dying, std::ffi::os_str::OsString, core::option::Option<std::ffi::os_str::OsString>>>>"* %tmp to %"core::option::Option<alloc::collections::btree::navigate::LazyLeafHandle<alloc::collections::btree::node::marker::Dying, std::ffi::os_str::OsString, core::option::Option<std::ffi::os_str::OsString>>>"*
  br label %bb2

bb2:                                              ; preds = %bb1
  %3 = bitcast %"core::option::Option<alloc::collections::btree::navigate::LazyLeafHandle<alloc::collections::btree::node::marker::Dying, std::ffi::os_str::OsString, core::option::Option<std::ffi::os_str::OsString>>>"* %2 to i8*
  %4 = bitcast %"core::option::Option<alloc::collections::btree::navigate::LazyLeafHandle<alloc::collections::btree::node::marker::Dying, std::ffi::os_str::OsString, core::option::Option<std::ffi::os_str::OsString>>>"* %src to i8*
  call void @llvm.memcpy.p0i8.p0i8.i64(i8* align 8 %3, i8* align 8 %4, i64 32, i1 false)
  %5 = bitcast %"core::mem::maybe_uninit::MaybeUninit<core::option::Option<alloc::collections::btree::navigate::LazyLeafHandle<alloc::collections::btree::node::marker::Dying, std::ffi::os_str::OsString, core::option::Option<std::ffi::os_str::OsString>>>>"* %_6 to i8*
  %6 = bitcast %"core::mem::maybe_uninit::MaybeUninit<core::option::Option<alloc::collections::btree::navigate::LazyLeafHandle<alloc::collections::btree::node::marker::Dying, std::ffi::os_str::OsString, core::option::Option<std::ffi::os_str::OsString>>>>"* %tmp to i8*
  call void @llvm.memcpy.p0i8.p0i8.i64(i8* align 8 %5, i8* align 8 %6, i64 32, i1 false)
  call void @llvm.experimental.noalias.scope.decl(metadata !31)
  call void @llvm.experimental.noalias.scope.decl(metadata !34)
  %7 = bitcast %"core::mem::maybe_uninit::MaybeUninit<core::option::Option<alloc::collections::btree::navigate::LazyLeafHandle<alloc::collections::btree::node::marker::Dying, std::ffi::os_str::OsString, core::option::Option<std::ffi::os_str::OsString>>>>"* %_6 to %"core::mem::manually_drop::ManuallyDrop<core::option::Option<alloc::collections::btree::navigate::LazyLeafHandle<alloc::collections::btree::node::marker::Dying, std::ffi::os_str::OsString, core::option::Option<std::ffi::os_str::OsString>>>>"*
  %8 = bitcast %"core::mem::manually_drop::ManuallyDrop<core::option::Option<alloc::collections::btree::navigate::LazyLeafHandle<alloc::collections::btree::node::marker::Dying, std::ffi::os_str::OsString, core::option::Option<std::ffi::os_str::OsString>>>>"* %_3.i to i8*
  %9 = bitcast %"core::mem::manually_drop::ManuallyDrop<core::option::Option<alloc::collections::btree::navigate::LazyLeafHandle<alloc::collections::btree::node::marker::Dying, std::ffi::os_str::OsString, core::option::Option<std::ffi::os_str::OsString>>>>"* %7 to i8*
  call void @llvm.memcpy.p0i8.p0i8.i64(i8* align 8 %8, i8* align 8 %9, i64 32, i1 false), !noalias !31
  call void @llvm.experimental.noalias.scope.decl(metadata !36)
  call void @llvm.experimental.noalias.scope.decl(metadata !39)
  %10 = bitcast %"core::mem::manually_drop::ManuallyDrop<core::option::Option<alloc::collections::btree::navigate::LazyLeafHandle<alloc::collections::btree::node::marker::Dying, std::ffi::os_str::OsString, core::option::Option<std::ffi::os_str::OsString>>>>"* %_3.i to %"core::option::Option<alloc::collections::btree::navigate::LazyLeafHandle<alloc::collections::btree::node::marker::Dying, std::ffi::os_str::OsString, core::option::Option<std::ffi::os_str::OsString>>>"*
  %11 = bitcast %"core::option::Option<alloc::collections::btree::navigate::LazyLeafHandle<alloc::collections::btree::node::marker::Dying, std::ffi::os_str::OsString, core::option::Option<std::ffi::os_str::OsString>>>"* %0 to i8*
  %12 = bitcast %"core::option::Option<alloc::collections::btree::navigate::LazyLeafHandle<alloc::collections::btree::node::marker::Dying, std::ffi::os_str::OsString, core::option::Option<std::ffi::os_str::OsString>>>"* %10 to i8*
  call void @llvm.memcpy.p0i8.p0i8.i64(i8* align 8 %11, i8* align 8 %12, i64 32, i1 false), !alias.scope !41, !noalias !34
  br label %bb3

bb3:                                              ; preds = %bb2
  ret void
}

; core::ptr::read
; Function Attrs: inlinehint nonlazybind uwtable
define internal { i64, i64* } @_ZN4core3ptr4read17hab0f162102e98ff7E({ i64, i64* }* %src) unnamed_addr #0 {
start:
  %0 = alloca { i64, i8* }, align 8
  %tmp = alloca { i64, i8* }, align 8
  %1 = bitcast { i64, i8* }* %0 to {}*
  %2 = getelementptr inbounds { i64, i8* }, { i64, i8* }* %0, i32 0, i32 0
  %3 = load i64, i64* %2, align 8
  %4 = getelementptr inbounds { i64, i8* }, { i64, i8* }* %0, i32 0, i32 1
  %5 = load i8*, i8** %4, align 8
  %6 = insertvalue { i64, i8* } undef, i64 %3, 0
  %7 = insertvalue { i64, i8* } %6, i8* %5, 1
  store { i64, i8* } %7, { i64, i8* }* %tmp, align 8
  br label %bb1

bb1:                                              ; preds = %start
  %8 = bitcast { i64, i8* }* %tmp to { i64, i64* }*
  br label %bb2

bb2:                                              ; preds = %bb1
  %9 = bitcast { i64, i64* }* %8 to i8*
  %10 = bitcast { i64, i64* }* %src to i8*
  call void @llvm.memcpy.p0i8.p0i8.i64(i8* align 8 %9, i8* align 8 %10, i64 16, i1 false)
  %11 = getelementptr inbounds { i64, i8* }, { i64, i8* }* %tmp, i32 0, i32 0
  %_6.0 = load i64, i64* %11, align 8
  %12 = getelementptr inbounds { i64, i8* }, { i64, i8* }* %tmp, i32 0, i32 1
  %_6.1 = load i8*, i8** %12, align 8
  %_3.1.i = bitcast i8* %_6.1 to i64*
  %13 = insertvalue { i64, i64* } undef, i64 %_6.0, 0
  %14 = insertvalue { i64, i64* } %13, i64* %_3.1.i, 1
  %15 = extractvalue { i64, i64* } %14, 0
  %16 = extractvalue { i64, i64* } %14, 1
  %17 = extractvalue { i64, i64* } %14, 0
  %18 = extractvalue { i64, i64* } %14, 1
  br label %bb3

bb3:                                              ; preds = %bb2
  %19 = insertvalue { i64, i64* } undef, i64 %17, 0
  %20 = insertvalue { i64, i64* } %19, i64* %18, 1
  ret { i64, i64* } %20
}

; core::ptr::read
; Function Attrs: inlinehint nonlazybind uwtable
define internal void @_ZN4core3ptr4read17hbb37bcd08176f7c8E(%"alloc::collections::btree::node::Handle<alloc::collections::btree::node::NodeRef<alloc::collections::btree::node::marker::Dying, std::ffi::os_str::OsString, core::option::Option<std::ffi::os_str::OsString>, alloc::collections::btree::node::marker::Leaf>, alloc::collections::btree::node::marker::Edge>"* noalias nocapture sret(%"alloc::collections::btree::node::Handle<alloc::collections::btree::node::NodeRef<alloc::collections::btree::node::marker::Dying, std::ffi::os_str::OsString, core::option::Option<std::ffi::os_str::OsString>, alloc::collections::btree::node::marker::Leaf>, alloc::collections::btree::node::marker::Edge>") dereferenceable(24) %0, %"alloc::collections::btree::node::Handle<alloc::collections::btree::node::NodeRef<alloc::collections::btree::node::marker::Dying, std::ffi::os_str::OsString, core::option::Option<std::ffi::os_str::OsString>, alloc::collections::btree::node::marker::Leaf>, alloc::collections::btree::node::marker::Edge>"* %src) unnamed_addr #0 {
start:
  %_3.i = alloca %"core::mem::manually_drop::ManuallyDrop<alloc::collections::btree::node::Handle<alloc::collections::btree::node::NodeRef<alloc::collections::btree::node::marker::Dying, std::ffi::os_str::OsString, core::option::Option<std::ffi::os_str::OsString>, alloc::collections::btree::node::marker::Leaf>, alloc::collections::btree::node::marker::Edge>>", align 8
  %_6 = alloca %"core::mem::maybe_uninit::MaybeUninit<alloc::collections::btree::node::Handle<alloc::collections::btree::node::NodeRef<alloc::collections::btree::node::marker::Dying, std::ffi::os_str::OsString, core::option::Option<std::ffi::os_str::OsString>, alloc::collections::btree::node::marker::Leaf>, alloc::collections::btree::node::marker::Edge>>", align 8
  %tmp = alloca %"core::mem::maybe_uninit::MaybeUninit<alloc::collections::btree::node::Handle<alloc::collections::btree::node::NodeRef<alloc::collections::btree::node::marker::Dying, std::ffi::os_str::OsString, core::option::Option<std::ffi::os_str::OsString>, alloc::collections::btree::node::marker::Leaf>, alloc::collections::btree::node::marker::Edge>>", align 8
  call void @llvm.experimental.noalias.scope.decl(metadata !42)
  %1 = bitcast %"core::mem::maybe_uninit::MaybeUninit<alloc::collections::btree::node::Handle<alloc::collections::btree::node::NodeRef<alloc::collections::btree::node::marker::Dying, std::ffi::os_str::OsString, core::option::Option<std::ffi::os_str::OsString>, alloc::collections::btree::node::marker::Leaf>, alloc::collections::btree::node::marker::Edge>>"* %tmp to {}*
  br label %bb1

bb1:                                              ; preds = %start
  %2 = bitcast %"core::mem::maybe_uninit::MaybeUninit<alloc::collections::btree::node::Handle<alloc::collections::btree::node::NodeRef<alloc::collections::btree::node::marker::Dying, std::ffi::os_str::OsString, core::option::Option<std::ffi::os_str::OsString>, alloc::collections::btree::node::marker::Leaf>, alloc::collections::btree::node::marker::Edge>>"* %tmp to %"alloc::collections::btree::node::Handle<alloc::collections::btree::node::NodeRef<alloc::collections::btree::node::marker::Dying, std::ffi::os_str::OsString, core::option::Option<std::ffi::os_str::OsString>, alloc::collections::btree::node::marker::Leaf>, alloc::collections::btree::node::marker::Edge>"*
  br label %bb2

bb2:                                              ; preds = %bb1
  %3 = bitcast %"alloc::collections::btree::node::Handle<alloc::collections::btree::node::NodeRef<alloc::collections::btree::node::marker::Dying, std::ffi::os_str::OsString, core::option::Option<std::ffi::os_str::OsString>, alloc::collections::btree::node::marker::Leaf>, alloc::collections::btree::node::marker::Edge>"* %2 to i8*
  %4 = bitcast %"alloc::collections::btree::node::Handle<alloc::collections::btree::node::NodeRef<alloc::collections::btree::node::marker::Dying, std::ffi::os_str::OsString, core::option::Option<std::ffi::os_str::OsString>, alloc::collections::btree::node::marker::Leaf>, alloc::collections::btree::node::marker::Edge>"* %src to i8*
  call void @llvm.memcpy.p0i8.p0i8.i64(i8* align 8 %3, i8* align 8 %4, i64 24, i1 false)
  %5 = bitcast %"core::mem::maybe_uninit::MaybeUninit<alloc::collections::btree::node::Handle<alloc::collections::btree::node::NodeRef<alloc::collections::btree::node::marker::Dying, std::ffi::os_str::OsString, core::option::Option<std::ffi::os_str::OsString>, alloc::collections::btree::node::marker::Leaf>, alloc::collections::btree::node::marker::Edge>>"* %_6 to i8*
  %6 = bitcast %"core::mem::maybe_uninit::MaybeUninit<alloc::collections::btree::node::Handle<alloc::collections::btree::node::NodeRef<alloc::collections::btree::node::marker::Dying, std::ffi::os_str::OsString, core::option::Option<std::ffi::os_str::OsString>, alloc::collections::btree::node::marker::Leaf>, alloc::collections::btree::node::marker::Edge>>"* %tmp to i8*
  call void @llvm.memcpy.p0i8.p0i8.i64(i8* align 8 %5, i8* align 8 %6, i64 24, i1 false)
  call void @llvm.experimental.noalias.scope.decl(metadata !45)
  call void @llvm.experimental.noalias.scope.decl(metadata !48)
  %7 = bitcast %"core::mem::maybe_uninit::MaybeUninit<alloc::collections::btree::node::Handle<alloc::collections::btree::node::NodeRef<alloc::collections::btree::node::marker::Dying, std::ffi::os_str::OsString, core::option::Option<std::ffi::os_str::OsString>, alloc::collections::btree::node::marker::Leaf>, alloc::collections::btree::node::marker::Edge>>"* %_6 to %"core::mem::manually_drop::ManuallyDrop<alloc::collections::btree::node::Handle<alloc::collections::btree::node::NodeRef<alloc::collections::btree::node::marker::Dying, std::ffi::os_str::OsString, core::option::Option<std::ffi::os_str::OsString>, alloc::collections::btree::node::marker::Leaf>, alloc::collections::btree::node::marker::Edge>>"*
  %8 = bitcast %"core::mem::manually_drop::ManuallyDrop<alloc::collections::btree::node::Handle<alloc::collections::btree::node::NodeRef<alloc::collections::btree::node::marker::Dying, std::ffi::os_str::OsString, core::option::Option<std::ffi::os_str::OsString>, alloc::collections::btree::node::marker::Leaf>, alloc::collections::btree::node::marker::Edge>>"* %_3.i to i8*
  %9 = bitcast %"core::mem::manually_drop::ManuallyDrop<alloc::collections::btree::node::Handle<alloc::collections::btree::node::NodeRef<alloc::collections::btree::node::marker::Dying, std::ffi::os_str::OsString, core::option::Option<std::ffi::os_str::OsString>, alloc::collections::btree::node::marker::Leaf>, alloc::collections::btree::node::marker::Edge>>"* %7 to i8*
  call void @llvm.memcpy.p0i8.p0i8.i64(i8* align 8 %8, i8* align 8 %9, i64 24, i1 false), !noalias !45
  call void @llvm.experimental.noalias.scope.decl(metadata !50)
  call void @llvm.experimental.noalias.scope.decl(metadata !53)
  %10 = bitcast %"core::mem::manually_drop::ManuallyDrop<alloc::collections::btree::node::Handle<alloc::collections::btree::node::NodeRef<alloc::collections::btree::node::marker::Dying, std::ffi::os_str::OsString, core::option::Option<std::ffi::os_str::OsString>, alloc::collections::btree::node::marker::Leaf>, alloc::collections::btree::node::marker::Edge>>"* %_3.i to %"alloc::collections::btree::node::Handle<alloc::collections::btree::node::NodeRef<alloc::collections::btree::node::marker::Dying, std::ffi::os_str::OsString, core::option::Option<std::ffi::os_str::OsString>, alloc::collections::btree::node::marker::Leaf>, alloc::collections::btree::node::marker::Edge>"*
  %11 = bitcast %"alloc::collections::btree::node::Handle<alloc::collections::btree::node::NodeRef<alloc::collections::btree::node::marker::Dying, std::ffi::os_str::OsString, core::option::Option<std::ffi::os_str::OsString>, alloc::collections::btree::node::marker::Leaf>, alloc::collections::btree::node::marker::Edge>"* %0 to i8*
  %12 = bitcast %"alloc::collections::btree::node::Handle<alloc::collections::btree::node::NodeRef<alloc::collections::btree::node::marker::Dying, std::ffi::os_str::OsString, core::option::Option<std::ffi::os_str::OsString>, alloc::collections::btree::node::marker::Leaf>, alloc::collections::btree::node::marker::Edge>"* %10 to i8*
  call void @llvm.memcpy.p0i8.p0i8.i64(i8* align 8 %11, i8* align 8 %12, i64 24, i1 false), !alias.scope !55, !noalias !48
  br label %bb3

bb3:                                              ; preds = %bb2
  ret void
}

; core::ptr::read
; Function Attrs: inlinehint nonlazybind uwtable
define internal void @_ZN4core3ptr4read17hbd532cd5a647a0c0E(%"alloc::collections::btree::node::Handle<alloc::collections::btree::node::NodeRef<alloc::collections::btree::node::marker::Dying, std::ffi::os_str::OsString, core::option::Option<std::ffi::os_str::OsString>, alloc::collections::btree::node::marker::LeafOrInternal>, alloc::collections::btree::node::marker::KV>"* noalias nocapture sret(%"alloc::collections::btree::node::Handle<alloc::collections::btree::node::NodeRef<alloc::collections::btree::node::marker::Dying, std::ffi::os_str::OsString, core::option::Option<std::ffi::os_str::OsString>, alloc::collections::btree::node::marker::LeafOrInternal>, alloc::collections::btree::node::marker::KV>") dereferenceable(24) %0, %"alloc::collections::btree::node::Handle<alloc::collections::btree::node::NodeRef<alloc::collections::btree::node::marker::Dying, std::ffi::os_str::OsString, core::option::Option<std::ffi::os_str::OsString>, alloc::collections::btree::node::marker::LeafOrInternal>, alloc::collections::btree::node::marker::KV>"* %src) unnamed_addr #0 {
start:
  %_3.i = alloca %"core::mem::manually_drop::ManuallyDrop<alloc::collections::btree::node::Handle<alloc::collections::btree::node::NodeRef<alloc::collections::btree::node::marker::Dying, std::ffi::os_str::OsString, core::option::Option<std::ffi::os_str::OsString>, alloc::collections::btree::node::marker::LeafOrInternal>, alloc::collections::btree::node::marker::KV>>", align 8
  %_6 = alloca %"core::mem::maybe_uninit::MaybeUninit<alloc::collections::btree::node::Handle<alloc::collections::btree::node::NodeRef<alloc::collections::btree::node::marker::Dying, std::ffi::os_str::OsString, core::option::Option<std::ffi::os_str::OsString>, alloc::collections::btree::node::marker::LeafOrInternal>, alloc::collections::btree::node::marker::KV>>", align 8
  %tmp = alloca %"core::mem::maybe_uninit::MaybeUninit<alloc::collections::btree::node::Handle<alloc::collections::btree::node::NodeRef<alloc::collections::btree::node::marker::Dying, std::ffi::os_str::OsString, core::option::Option<std::ffi::os_str::OsString>, alloc::collections::btree::node::marker::LeafOrInternal>, alloc::collections::btree::node::marker::KV>>", align 8
  call void @llvm.experimental.noalias.scope.decl(metadata !56)
  %1 = bitcast %"core::mem::maybe_uninit::MaybeUninit<alloc::collections::btree::node::Handle<alloc::collections::btree::node::NodeRef<alloc::collections::btree::node::marker::Dying, std::ffi::os_str::OsString, core::option::Option<std::ffi::os_str::OsString>, alloc::collections::btree::node::marker::LeafOrInternal>, alloc::collections::btree::node::marker::KV>>"* %tmp to {}*
  br label %bb1

bb1:                                              ; preds = %start
  %2 = bitcast %"core::mem::maybe_uninit::MaybeUninit<alloc::collections::btree::node::Handle<alloc::collections::btree::node::NodeRef<alloc::collections::btree::node::marker::Dying, std::ffi::os_str::OsString, core::option::Option<std::ffi::os_str::OsString>, alloc::collections::btree::node::marker::LeafOrInternal>, alloc::collections::btree::node::marker::KV>>"* %tmp to %"alloc::collections::btree::node::Handle<alloc::collections::btree::node::NodeRef<alloc::collections::btree::node::marker::Dying, std::ffi::os_str::OsString, core::option::Option<std::ffi::os_str::OsString>, alloc::collections::btree::node::marker::LeafOrInternal>, alloc::collections::btree::node::marker::KV>"*
  br label %bb2

bb2:                                              ; preds = %bb1
  %3 = bitcast %"alloc::collections::btree::node::Handle<alloc::collections::btree::node::NodeRef<alloc::collections::btree::node::marker::Dying, std::ffi::os_str::OsString, core::option::Option<std::ffi::os_str::OsString>, alloc::collections::btree::node::marker::LeafOrInternal>, alloc::collections::btree::node::marker::KV>"* %2 to i8*
  %4 = bitcast %"alloc::collections::btree::node::Handle<alloc::collections::btree::node::NodeRef<alloc::collections::btree::node::marker::Dying, std::ffi::os_str::OsString, core::option::Option<std::ffi::os_str::OsString>, alloc::collections::btree::node::marker::LeafOrInternal>, alloc::collections::btree::node::marker::KV>"* %src to i8*
  call void @llvm.memcpy.p0i8.p0i8.i64(i8* align 8 %3, i8* align 8 %4, i64 24, i1 false)
  %5 = bitcast %"core::mem::maybe_uninit::MaybeUninit<alloc::collections::btree::node::Handle<alloc::collections::btree::node::NodeRef<alloc::collections::btree::node::marker::Dying, std::ffi::os_str::OsString, core::option::Option<std::ffi::os_str::OsString>, alloc::collections::btree::node::marker::LeafOrInternal>, alloc::collections::btree::node::marker::KV>>"* %_6 to i8*
  %6 = bitcast %"core::mem::maybe_uninit::MaybeUninit<alloc::collections::btree::node::Handle<alloc::collections::btree::node::NodeRef<alloc::collections::btree::node::marker::Dying, std::ffi::os_str::OsString, core::option::Option<std::ffi::os_str::OsString>, alloc::collections::btree::node::marker::LeafOrInternal>, alloc::collections::btree::node::marker::KV>>"* %tmp to i8*
  call void @llvm.memcpy.p0i8.p0i8.i64(i8* align 8 %5, i8* align 8 %6, i64 24, i1 false)
  call void @llvm.experimental.noalias.scope.decl(metadata !59)
  call void @llvm.experimental.noalias.scope.decl(metadata !62)
  %7 = bitcast %"core::mem::maybe_uninit::MaybeUninit<alloc::collections::btree::node::Handle<alloc::collections::btree::node::NodeRef<alloc::collections::btree::node::marker::Dying, std::ffi::os_str::OsString, core::option::Option<std::ffi::os_str::OsString>, alloc::collections::btree::node::marker::LeafOrInternal>, alloc::collections::btree::node::marker::KV>>"* %_6 to %"core::mem::manually_drop::ManuallyDrop<alloc::collections::btree::node::Handle<alloc::collections::btree::node::NodeRef<alloc::collections::btree::node::marker::Dying, std::ffi::os_str::OsString, core::option::Option<std::ffi::os_str::OsString>, alloc::collections::btree::node::marker::LeafOrInternal>, alloc::collections::btree::node::marker::KV>>"*
  %8 = bitcast %"core::mem::manually_drop::ManuallyDrop<alloc::collections::btree::node::Handle<alloc::collections::btree::node::NodeRef<alloc::collections::btree::node::marker::Dying, std::ffi::os_str::OsString, core::option::Option<std::ffi::os_str::OsString>, alloc::collections::btree::node::marker::LeafOrInternal>, alloc::collections::btree::node::marker::KV>>"* %_3.i to i8*
  %9 = bitcast %"core::mem::manually_drop::ManuallyDrop<alloc::collections::btree::node::Handle<alloc::collections::btree::node::NodeRef<alloc::collections::btree::node::marker::Dying, std::ffi::os_str::OsString, core::option::Option<std::ffi::os_str::OsString>, alloc::collections::btree::node::marker::LeafOrInternal>, alloc::collections::btree::node::marker::KV>>"* %7 to i8*
  call void @llvm.memcpy.p0i8.p0i8.i64(i8* align 8 %8, i8* align 8 %9, i64 24, i1 false), !noalias !59
  call void @llvm.experimental.noalias.scope.decl(metadata !64)
  call void @llvm.experimental.noalias.scope.decl(metadata !67)
  %10 = bitcast %"core::mem::manually_drop::ManuallyDrop<alloc::collections::btree::node::Handle<alloc::collections::btree::node::NodeRef<alloc::collections::btree::node::marker::Dying, std::ffi::os_str::OsString, core::option::Option<std::ffi::os_str::OsString>, alloc::collections::btree::node::marker::LeafOrInternal>, alloc::collections::btree::node::marker::KV>>"* %_3.i to %"alloc::collections::btree::node::Handle<alloc::collections::btree::node::NodeRef<alloc::collections::btree::node::marker::Dying, std::ffi::os_str::OsString, core::option::Option<std::ffi::os_str::OsString>, alloc::collections::btree::node::marker::LeafOrInternal>, alloc::collections::btree::node::marker::KV>"*
  %11 = bitcast %"alloc::collections::btree::node::Handle<alloc::collections::btree::node::NodeRef<alloc::collections::btree::node::marker::Dying, std::ffi::os_str::OsString, core::option::Option<std::ffi::os_str::OsString>, alloc::collections::btree::node::marker::LeafOrInternal>, alloc::collections::btree::node::marker::KV>"* %0 to i8*
  %12 = bitcast %"alloc::collections::btree::node::Handle<alloc::collections::btree::node::NodeRef<alloc::collections::btree::node::marker::Dying, std::ffi::os_str::OsString, core::option::Option<std::ffi::os_str::OsString>, alloc::collections::btree::node::marker::LeafOrInternal>, alloc::collections::btree::node::marker::KV>"* %10 to i8*
  call void @llvm.memcpy.p0i8.p0i8.i64(i8* align 8 %11, i8* align 8 %12, i64 24, i1 false), !alias.scope !69, !noalias !62
  br label %bb3

bb3:                                              ; preds = %bb2
  ret void
}

; core::ptr::read
; Function Attrs: inlinehint nonlazybind uwtable
define internal { i64, i64* } @_ZN4core3ptr4read17he60ddc9b3df4d390E({ i64, i64* }* %src) unnamed_addr #0 {
start:
  %0 = alloca { i64, i8* }, align 8
  %tmp = alloca { i64, i8* }, align 8
  %1 = bitcast { i64, i8* }* %0 to {}*
  %2 = getelementptr inbounds { i64, i8* }, { i64, i8* }* %0, i32 0, i32 0
  %3 = load i64, i64* %2, align 8
  %4 = getelementptr inbounds { i64, i8* }, { i64, i8* }* %0, i32 0, i32 1
  %5 = load i8*, i8** %4, align 8
  %6 = insertvalue { i64, i8* } undef, i64 %3, 0
  %7 = insertvalue { i64, i8* } %6, i8* %5, 1
  store { i64, i8* } %7, { i64, i8* }* %tmp, align 8
  br label %bb1

bb1:                                              ; preds = %start
  %8 = bitcast { i64, i8* }* %tmp to { i64, i64* }*
  br label %bb2

bb2:                                              ; preds = %bb1
  %9 = bitcast { i64, i64* }* %8 to i8*
  %10 = bitcast { i64, i64* }* %src to i8*
  call void @llvm.memcpy.p0i8.p0i8.i64(i8* align 8 %9, i8* align 8 %10, i64 16, i1 false)
  %11 = getelementptr inbounds { i64, i8* }, { i64, i8* }* %tmp, i32 0, i32 0
  %_6.0 = load i64, i64* %11, align 8
  %12 = getelementptr inbounds { i64, i8* }, { i64, i8* }* %tmp, i32 0, i32 1
  %_6.1 = load i8*, i8** %12, align 8
  %_3.1.i = bitcast i8* %_6.1 to i64*
  %13 = insertvalue { i64, i64* } undef, i64 %_6.0, 0
  %14 = insertvalue { i64, i64* } %13, i64* %_3.1.i, 1
  %15 = extractvalue { i64, i64* } %14, 0
  %16 = extractvalue { i64, i64* } %14, 1
  %17 = extractvalue { i64, i64* } %14, 0
  %18 = extractvalue { i64, i64* } %14, 1
  br label %bb3

bb3:                                              ; preds = %bb2
  %19 = insertvalue { i64, i64* } undef, i64 %17, 0
  %20 = insertvalue { i64, i64* } %19, i64* %18, 1
  ret { i64, i64* } %20
}

; core::ptr::read
; Function Attrs: inlinehint nonlazybind uwtable
define internal nonnull i64* @_ZN4core3ptr4read17hf466b32e611ef6d6E(i64** %src) unnamed_addr #0 {
start:
  %0 = alloca i8*, align 8
  %tmp = alloca i8*, align 8
  %1 = bitcast i8** %0 to {}*
  %2 = load i8*, i8** %0, align 8
  store i8* %2, i8** %tmp, align 8
  br label %bb1

bb1:                                              ; preds = %start
  %3 = bitcast i8** %tmp to i64**
  br label %bb2

bb2:                                              ; preds = %bb1
  %4 = bitcast i64** %3 to i8*
  %5 = bitcast i64** %src to i8*
  call void @llvm.memcpy.p0i8.p0i8.i64(i8* align 8 %4, i8* align 8 %5, i64 8, i1 false)
  %_6 = load i8*, i8** %tmp, align 8
  %_3.i = bitcast i8* %_6 to i64*
  br label %bb3

bb3:                                              ; preds = %bb2
  ret i64* %_3.i
}

; core::ptr::drop_in_place<alloc::borrow::Cow<str>>
; Function Attrs: nonlazybind uwtable
define internal void @"_ZN4core3ptr50drop_in_place$LT$alloc..borrow..Cow$LT$str$GT$$GT$17h9d6a06d675e084f9E"(%"alloc::borrow::Cow<str>"* %_1) unnamed_addr #1 {
start:
  %0 = bitcast %"alloc::borrow::Cow<str>"* %_1 to i64*
  %_2 = load i64, i64* %0, align 8, !range !3
  %1 = icmp eq i64 %_2, 0
  br i1 %1, label %bb1, label %bb2

bb1:                                              ; preds = %bb2, %start
  ret void

bb2:                                              ; preds = %start
  %2 = bitcast %"alloc::borrow::Cow<str>"* %_1 to %"alloc::borrow::Cow<str>::Owned"*
  %3 = getelementptr inbounds %"alloc::borrow::Cow<str>::Owned", %"alloc::borrow::Cow<str>::Owned"* %2, i32 0, i32 1
; call core::ptr::drop_in_place<alloc::string::String>
  call void @"_ZN4core3ptr42drop_in_place$LT$alloc..string..String$GT$17hff386e69a0745766E"(%"alloc::string::String"* %3)
  br label %bb1
}

; core::ptr::drop_in_place<alloc::raw_vec::RawVec<u8>>
; Function Attrs: nonlazybind uwtable
define internal void @"_ZN4core3ptr53drop_in_place$LT$alloc..raw_vec..RawVec$LT$u8$GT$$GT$17hcfb8597b3e6c5979E"({ i8*, i64 }* %_1) unnamed_addr #1 {
start:
; call <alloc::raw_vec::RawVec<T,A> as core::ops::drop::Drop>::drop
  call void @"_ZN77_$LT$alloc..raw_vec..RawVec$LT$T$C$A$GT$$u20$as$u20$core..ops..drop..Drop$GT$4drop17hb5aa2be84e1053bfE"({ i8*, i64 }* align 8 dereferenceable(16) %_1)
  br label %bb1

bb1:                                              ; preds = %start
  ret void
}

; core::ptr::drop_in_place<[std::ffi::c_str::CString]>
; Function Attrs: nonlazybind uwtable
define internal void @"_ZN4core3ptr55drop_in_place$LT$$u5b$std..ffi..c_str..CString$u5d$$GT$17hf380efcd6c1a5a87E"([0 x { i8*, i64 }]* %_1.0, i64 %_1.1) unnamed_addr #1 personality i32 (i32, i32, i64, %"unwind::libunwind::_Unwind_Exception"*, %"unwind::libunwind::_Unwind_Context"*)* @rust_eh_personality {
start:
  %0 = alloca { i8*, i32 }, align 8
  %_9 = alloca { i8*, i64 }*, align 8
  %_4 = alloca i64, align 8
  br i1 false, label %bb7, label %bb12

bb7:                                              ; preds = %start
  store i64 0, i64* %_4, align 8
  br label %bb6

bb12:                                             ; preds = %start
  %1 = bitcast [0 x { i8*, i64 }]* %_1.0 to { i8*, i64 }*
  store { i8*, i64 }* %1, { i8*, i64 }** %_9, align 8
  %2 = load { i8*, i64 }*, { i8*, i64 }** %_9, align 8
  %_10 = getelementptr inbounds { i8*, i64 }, { i8*, i64 }* %2, i64 %_1.1
  br label %bb11

bb11:                                             ; preds = %bb10, %bb12
  %3 = load { i8*, i64 }*, { i8*, i64 }** %_9, align 8
  %_14 = icmp eq { i8*, i64 }* %3, %_10
  br i1 %_14, label %bb1, label %bb10

bb10:                                             ; preds = %bb11
  %_13 = load { i8*, i64 }*, { i8*, i64 }** %_9, align 8
  %4 = load { i8*, i64 }*, { i8*, i64 }** %_9, align 8
  %5 = getelementptr inbounds { i8*, i64 }, { i8*, i64 }* %4, i64 1
  store { i8*, i64 }* %5, { i8*, i64 }** %_9, align 8
; invoke core::ptr::drop_in_place<std::ffi::c_str::CString>
  invoke void @"_ZN4core3ptr45drop_in_place$LT$std..ffi..c_str..CString$GT$17h596c4491fbfdd599E"({ i8*, i64 }* %_13)
          to label %bb11 unwind label %cleanup

bb1:                                              ; preds = %bb6, %bb11
  ret void

bb9:                                              ; preds = %bb8, %cleanup
  %6 = load { i8*, i64 }*, { i8*, i64 }** %_9, align 8
  %_12 = icmp eq { i8*, i64 }* %6, %_10
  br i1 %_12, label %bb2, label %bb8

cleanup:                                          ; preds = %bb10
  %7 = landingpad { i8*, i32 }
          cleanup
  %8 = extractvalue { i8*, i32 } %7, 0
  %9 = extractvalue { i8*, i32 } %7, 1
  %10 = getelementptr inbounds { i8*, i32 }, { i8*, i32 }* %0, i32 0, i32 0
  store i8* %8, i8** %10, align 8
  %11 = getelementptr inbounds { i8*, i32 }, { i8*, i32 }* %0, i32 0, i32 1
  store i32 %9, i32* %11, align 8
  br label %bb9

bb8:                                              ; preds = %bb9
  %_11 = load { i8*, i64 }*, { i8*, i64 }** %_9, align 8
  %12 = load { i8*, i64 }*, { i8*, i64 }** %_9, align 8
  %13 = getelementptr inbounds { i8*, i64 }, { i8*, i64 }* %12, i64 1
  store { i8*, i64 }* %13, { i8*, i64 }** %_9, align 8
; call core::ptr::drop_in_place<std::ffi::c_str::CString>
  call void @"_ZN4core3ptr45drop_in_place$LT$std..ffi..c_str..CString$GT$17h596c4491fbfdd599E"({ i8*, i64 }* %_11) #14
  br label %bb9

bb2:                                              ; preds = %bb4, %bb9
  %14 = bitcast { i8*, i32 }* %0 to i8**
  %15 = load i8*, i8** %14, align 8
  %16 = getelementptr inbounds { i8*, i32 }, { i8*, i32 }* %0, i32 0, i32 1
  %17 = load i32, i32* %16, align 8
  %18 = insertvalue { i8*, i32 } undef, i8* %15, 0
  %19 = insertvalue { i8*, i32 } %18, i32 %17, 1
  resume { i8*, i32 } %19

bb6:                                              ; preds = %bb5, %bb7
  %20 = load i64, i64* %_4, align 8
  %_8 = icmp eq i64 %20, %_1.1
  br i1 %_8, label %bb1, label %bb5

bb5:                                              ; preds = %bb6
  %21 = load i64, i64* %_4, align 8
  %_7 = getelementptr inbounds [0 x { i8*, i64 }], [0 x { i8*, i64 }]* %_1.0, i64 0, i64 %21
  %22 = load i64, i64* %_4, align 8
  %23 = add i64 %22, 1
  store i64 %23, i64* %_4, align 8
; invoke core::ptr::drop_in_place<std::ffi::c_str::CString>
  invoke void @"_ZN4core3ptr45drop_in_place$LT$std..ffi..c_str..CString$GT$17h596c4491fbfdd599E"({ i8*, i64 }* %_7)
          to label %bb6 unwind label %cleanup1

bb4:                                              ; preds = %bb3, %cleanup1
  %24 = load i64, i64* %_4, align 8
  %_6 = icmp eq i64 %24, %_1.1
  br i1 %_6, label %bb2, label %bb3

cleanup1:                                         ; preds = %bb5
  %25 = landingpad { i8*, i32 }
          cleanup
  %26 = extractvalue { i8*, i32 } %25, 0
  %27 = extractvalue { i8*, i32 } %25, 1
  %28 = getelementptr inbounds { i8*, i32 }, { i8*, i32 }* %0, i32 0, i32 0
  store i8* %26, i8** %28, align 8
  %29 = getelementptr inbounds { i8*, i32 }, { i8*, i32 }* %0, i32 0, i32 1
  store i32 %27, i32* %29, align 8
  br label %bb4

bb3:                                              ; preds = %bb4
  %30 = load i64, i64* %_4, align 8
  %_5 = getelementptr inbounds [0 x { i8*, i64 }], [0 x { i8*, i64 }]* %_1.0, i64 0, i64 %30
  %31 = load i64, i64* %_4, align 8
  %32 = add i64 %31, 1
  store i64 %32, i64* %_4, align 8
; call core::ptr::drop_in_place<std::ffi::c_str::CString>
  call void @"_ZN4core3ptr45drop_in_place$LT$std..ffi..c_str..CString$GT$17h596c4491fbfdd599E"({ i8*, i64 }* %_5) #14
  br label %bb4
}

; core::ptr::drop_in_place<core::str::iter::Split<char>>
; Function Attrs: inlinehint nonlazybind uwtable
define internal void @"_ZN4core3ptr55drop_in_place$LT$core..str..iter..Split$LT$char$GT$$GT$17h2b5511f108503dd9E"(%"core::str::iter::Split<char>"* %_1) unnamed_addr #0 {
start:
  ret void
}

; core::ptr::drop_in_place<std::sys_common::process::CommandEnv>
; Function Attrs: nonlazybind uwtable
define internal void @"_ZN4core3ptr57drop_in_place$LT$std..sys_common..process..CommandEnv$GT$17hcfce6fd626da3cf4E"(%"std::sys_common::process::CommandEnv"* %_1) unnamed_addr #1 {
start:
  %0 = bitcast %"std::sys_common::process::CommandEnv"* %_1 to %"alloc::collections::btree::map::BTreeMap<std::ffi::os_str::OsString, core::option::Option<std::ffi::os_str::OsString>>"*
; call core::ptr::drop_in_place<alloc::collections::btree::map::BTreeMap<std::ffi::os_str::OsString,core::option::Option<std::ffi::os_str::OsString>>>
  call void @"_ZN4core3ptr152drop_in_place$LT$alloc..collections..btree..map..BTreeMap$LT$std..ffi..os_str..OsString$C$core..option..Option$LT$std..ffi..os_str..OsString$GT$$GT$$GT$17h912cf4b8e7e4ee2dE"(%"alloc::collections::btree::map::BTreeMap<std::ffi::os_str::OsString, core::option::Option<std::ffi::os_str::OsString>>"* %0)
  br label %bb1

bb1:                                              ; preds = %start
  ret void
}

; core::ptr::drop_in_place<alloc::boxed::Box<[u8]>>
; Function Attrs: nonlazybind uwtable
define internal void @"_ZN4core3ptr58drop_in_place$LT$alloc..boxed..Box$LT$$u5b$u8$u5d$$GT$$GT$17h7431a28d4d25519cE"({ [0 x i8]*, i64 }* %_1) unnamed_addr #1 personality i32 (i32, i32, i64, %"unwind::libunwind::_Unwind_Exception"*, %"unwind::libunwind::_Unwind_Context"*)* @rust_eh_personality {
start:
  %0 = alloca { i8*, i32 }, align 8
  br label %bb3

bb3:                                              ; preds = %start
  %1 = bitcast { [0 x i8]*, i64 }* %_1 to { i8*, i64 }*
  %2 = getelementptr inbounds { i8*, i64 }, { i8*, i64 }* %1, i32 0, i32 0
  %3 = load i8*, i8** %2, align 8, !nonnull !10
  %4 = getelementptr inbounds { i8*, i64 }, { i8*, i64 }* %1, i32 0, i32 1
  %5 = load i64, i64* %4, align 8
; call alloc::alloc::box_free
  call void @_ZN5alloc5alloc8box_free17h34c28e60f768f8e5E(i8* nonnull %3, i64 %5)
  br label %bb1

bb4:                                              ; No predecessors!
  %6 = bitcast { [0 x i8]*, i64 }* %_1 to { i8*, i64 }*
  %7 = getelementptr inbounds { i8*, i64 }, { i8*, i64 }* %6, i32 0, i32 0
  %8 = load i8*, i8** %7, align 8, !nonnull !10
  %9 = getelementptr inbounds { i8*, i64 }, { i8*, i64 }* %6, i32 0, i32 1
  %10 = load i64, i64* %9, align 8
; call alloc::alloc::box_free
  call void @_ZN5alloc5alloc8box_free17h34c28e60f768f8e5E(i8* nonnull %8, i64 %10) #14
  br label %bb2

bb2:                                              ; preds = %bb4
  %11 = bitcast { i8*, i32 }* %0 to i8**
  %12 = load i8*, i8** %11, align 8
  %13 = getelementptr inbounds { i8*, i32 }, { i8*, i32 }* %0, i32 0, i32 1
  %14 = load i32, i32* %13, align 8
  %15 = insertvalue { i8*, i32 } undef, i8* %12, 0
  %16 = insertvalue { i8*, i32 } %15, i32 %14, 1
  resume { i8*, i32 } %16

bb1:                                              ; preds = %bb3
  ret void
}

; core::ptr::drop_in_place<alloc::boxed::Box<[u32]>>
; Function Attrs: nonlazybind uwtable
define internal void @"_ZN4core3ptr59drop_in_place$LT$alloc..boxed..Box$LT$$u5b$u32$u5d$$GT$$GT$17h0b4da654018aa5e7E"({ [0 x i32]*, i64 }* %_1) unnamed_addr #1 personality i32 (i32, i32, i64, %"unwind::libunwind::_Unwind_Exception"*, %"unwind::libunwind::_Unwind_Context"*)* @rust_eh_personality {
start:
  %0 = alloca { i8*, i32 }, align 8
  br label %bb3

bb3:                                              ; preds = %start
  %1 = bitcast { [0 x i32]*, i64 }* %_1 to { i32*, i64 }*
  %2 = getelementptr inbounds { i32*, i64 }, { i32*, i64 }* %1, i32 0, i32 0
  %3 = load i32*, i32** %2, align 8, !nonnull !10
  %4 = getelementptr inbounds { i32*, i64 }, { i32*, i64 }* %1, i32 0, i32 1
  %5 = load i64, i64* %4, align 8
; call alloc::alloc::box_free
  call void @_ZN5alloc5alloc8box_free17h8dca0f0a4e4b2163E(i32* nonnull %3, i64 %5)
  br label %bb1

bb4:                                              ; No predecessors!
  %6 = bitcast { [0 x i32]*, i64 }* %_1 to { i32*, i64 }*
  %7 = getelementptr inbounds { i32*, i64 }, { i32*, i64 }* %6, i32 0, i32 0
  %8 = load i32*, i32** %7, align 8, !nonnull !10
  %9 = getelementptr inbounds { i32*, i64 }, { i32*, i64 }* %6, i32 0, i32 1
  %10 = load i64, i64* %9, align 8
; call alloc::alloc::box_free
  call void @_ZN5alloc5alloc8box_free17h8dca0f0a4e4b2163E(i32* nonnull %8, i64 %10) #14
  br label %bb2

bb2:                                              ; preds = %bb4
  %11 = bitcast { i8*, i32 }* %0 to i8**
  %12 = load i8*, i8** %11, align 8
  %13 = getelementptr inbounds { i8*, i32 }, { i8*, i32 }* %0, i32 0, i32 1
  %14 = load i32, i32* %13, align 8
  %15 = insertvalue { i8*, i32 } undef, i8* %12, 0
  %16 = insertvalue { i8*, i32 } %15, i32 %14, 1
  resume { i8*, i32 } %16

bb1:                                              ; preds = %bb3
  ret void
}

; core::ptr::write
; Function Attrs: inlinehint nonlazybind uwtable
define internal void @_ZN4core3ptr5write17h77597dc02ac34e98E(i64* %dst, i64 %0) unnamed_addr #0 {
start:
  %src = alloca i64, align 8
  store i64 %0, i64* %src, align 8
  %1 = bitcast i64* %dst to i8*
  %2 = bitcast i64* %src to i8*
  call void @llvm.memcpy.p0i8.p0i8.i64(i8* align 8 %1, i8* align 8 %2, i64 8, i1 false)
  ret void
}

; core::ptr::write
; Function Attrs: inlinehint nonlazybind uwtable
define internal void @_ZN4core3ptr5write17h7ea51f87195424fdE(%"alloc::collections::btree::node::Handle<alloc::collections::btree::node::NodeRef<alloc::collections::btree::node::marker::Dying, std::ffi::os_str::OsString, core::option::Option<std::ffi::os_str::OsString>, alloc::collections::btree::node::marker::Leaf>, alloc::collections::btree::node::marker::Edge>"* %dst, %"alloc::collections::btree::node::Handle<alloc::collections::btree::node::NodeRef<alloc::collections::btree::node::marker::Dying, std::ffi::os_str::OsString, core::option::Option<std::ffi::os_str::OsString>, alloc::collections::btree::node::marker::Leaf>, alloc::collections::btree::node::marker::Edge>"* noalias nocapture dereferenceable(24) %src) unnamed_addr #0 {
start:
  %0 = bitcast %"alloc::collections::btree::node::Handle<alloc::collections::btree::node::NodeRef<alloc::collections::btree::node::marker::Dying, std::ffi::os_str::OsString, core::option::Option<std::ffi::os_str::OsString>, alloc::collections::btree::node::marker::Leaf>, alloc::collections::btree::node::marker::Edge>"* %dst to i8*
  %1 = bitcast %"alloc::collections::btree::node::Handle<alloc::collections::btree::node::NodeRef<alloc::collections::btree::node::marker::Dying, std::ffi::os_str::OsString, core::option::Option<std::ffi::os_str::OsString>, alloc::collections::btree::node::marker::Leaf>, alloc::collections::btree::node::marker::Edge>"* %src to i8*
  call void @llvm.memcpy.p0i8.p0i8.i64(i8* align 8 %0, i8* align 8 %1, i64 24, i1 false)
  ret void
}

; core::ptr::write
; Function Attrs: inlinehint nonlazybind uwtable
define internal void @_ZN4core3ptr5write17ha9912850de3be9c0E(%"core::option::Option<alloc::collections::btree::navigate::LazyLeafHandle<alloc::collections::btree::node::marker::Dying, std::ffi::os_str::OsString, core::option::Option<std::ffi::os_str::OsString>>>"* %dst, %"core::option::Option<alloc::collections::btree::navigate::LazyLeafHandle<alloc::collections::btree::node::marker::Dying, std::ffi::os_str::OsString, core::option::Option<std::ffi::os_str::OsString>>>"* noalias nocapture dereferenceable(32) %src) unnamed_addr #0 {
start:
  %0 = bitcast %"core::option::Option<alloc::collections::btree::navigate::LazyLeafHandle<alloc::collections::btree::node::marker::Dying, std::ffi::os_str::OsString, core::option::Option<std::ffi::os_str::OsString>>>"* %dst to i8*
  %1 = bitcast %"core::option::Option<alloc::collections::btree::navigate::LazyLeafHandle<alloc::collections::btree::node::marker::Dying, std::ffi::os_str::OsString, core::option::Option<std::ffi::os_str::OsString>>>"* %src to i8*
  call void @llvm.memcpy.p0i8.p0i8.i64(i8* align 8 %0, i8* align 8 %1, i64 32, i1 false)
  ret void
}

; core::ptr::write
; Function Attrs: inlinehint nonlazybind uwtable
define internal void @_ZN4core3ptr5write17hc4e1d3bb9991b4daE({ i64, i64* }* %dst, i64 %0, i64* %1) unnamed_addr #0 {
start:
  %src = alloca { i64, i64* }, align 8
  %2 = getelementptr inbounds { i64, i64* }, { i64, i64* }* %src, i32 0, i32 0
  store i64 %0, i64* %2, align 8
  %3 = getelementptr inbounds { i64, i64* }, { i64, i64* }* %src, i32 0, i32 1
  store i64* %1, i64** %3, align 8
  %4 = bitcast { i64, i64* }* %dst to i8*
  %5 = bitcast { i64, i64* }* %src to i8*
  call void @llvm.memcpy.p0i8.p0i8.i64(i8* align 8 %4, i8* align 8 %5, i64 16, i1 false)
  ret void
}

; core::ptr::drop_in_place<alloc::vec::Vec<*const i8>>
; Function Attrs: nonlazybind uwtable
define internal void @"_ZN4core3ptr60drop_in_place$LT$alloc..vec..Vec$LT$$BP$const$u20$i8$GT$$GT$17h58442925ec1c09acE"(%"alloc::vec::Vec<*const i8>"* %_1) unnamed_addr #1 personality i32 (i32, i32, i64, %"unwind::libunwind::_Unwind_Exception"*, %"unwind::libunwind::_Unwind_Context"*)* @rust_eh_personality {
start:
  %0 = alloca { i8*, i32 }, align 8
; invoke <alloc::vec::Vec<T,A> as core::ops::drop::Drop>::drop
  invoke void @"_ZN70_$LT$alloc..vec..Vec$LT$T$C$A$GT$$u20$as$u20$core..ops..drop..Drop$GT$4drop17h1b0d039ccdc15c5dE"(%"alloc::vec::Vec<*const i8>"* align 8 dereferenceable(24) %_1)
          to label %bb4 unwind label %cleanup

bb4:                                              ; preds = %start
  %1 = bitcast %"alloc::vec::Vec<*const i8>"* %_1 to { i64*, i64 }*
; call core::ptr::drop_in_place<alloc::raw_vec::RawVec<*const i8>>
  call void @"_ZN4core3ptr67drop_in_place$LT$alloc..raw_vec..RawVec$LT$$BP$const$u20$i8$GT$$GT$17h3c5fcd37d994471bE"({ i64*, i64 }* %1)
  br label %bb2

bb3:                                              ; preds = %cleanup
  %2 = bitcast %"alloc::vec::Vec<*const i8>"* %_1 to { i64*, i64 }*
; call core::ptr::drop_in_place<alloc::raw_vec::RawVec<*const i8>>
  call void @"_ZN4core3ptr67drop_in_place$LT$alloc..raw_vec..RawVec$LT$$BP$const$u20$i8$GT$$GT$17h3c5fcd37d994471bE"({ i64*, i64 }* %2) #14
  br label %bb1

cleanup:                                          ; preds = %start
  %3 = landingpad { i8*, i32 }
          cleanup
  %4 = extractvalue { i8*, i32 } %3, 0
  %5 = extractvalue { i8*, i32 } %3, 1
  %6 = getelementptr inbounds { i8*, i32 }, { i8*, i32 }* %0, i32 0, i32 0
  store i8* %4, i8** %6, align 8
  %7 = getelementptr inbounds { i8*, i32 }, { i8*, i32 }* %0, i32 0, i32 1
  store i32 %5, i32* %7, align 8
  br label %bb3

bb1:                                              ; preds = %bb3
  %8 = bitcast { i8*, i32 }* %0 to i8**
  %9 = load i8*, i8** %8, align 8
  %10 = getelementptr inbounds { i8*, i32 }, { i8*, i32 }* %0, i32 0, i32 1
  %11 = load i32, i32* %10, align 8
  %12 = insertvalue { i8*, i32 } undef, i8* %9, 0
  %13 = insertvalue { i8*, i32 } %12, i32 %11, 1
  resume { i8*, i32 } %13

bb2:                                              ; preds = %bb4
  ret void
}

; core::ptr::drop_in_place<std::sys::unix::process::process_common::Argv>
; Function Attrs: nonlazybind uwtable
define internal void @"_ZN4core3ptr66drop_in_place$LT$std..sys..unix..process..process_common..Argv$GT$17hc793a94da3ff1afdE"(%"std::sys::unix::process::process_common::Argv"* %_1) unnamed_addr #1 {
start:
  %0 = bitcast %"std::sys::unix::process::process_common::Argv"* %_1 to %"alloc::vec::Vec<*const i8>"*
; call core::ptr::drop_in_place<alloc::vec::Vec<*const i8>>
  call void @"_ZN4core3ptr60drop_in_place$LT$alloc..vec..Vec$LT$$BP$const$u20$i8$GT$$GT$17h58442925ec1c09acE"(%"alloc::vec::Vec<*const i8>"* %0)
  br label %bb1

bb1:                                              ; preds = %start
  ret void
}

; core::ptr::drop_in_place<alloc::raw_vec::RawVec<*const i8>>
; Function Attrs: nonlazybind uwtable
define internal void @"_ZN4core3ptr67drop_in_place$LT$alloc..raw_vec..RawVec$LT$$BP$const$u20$i8$GT$$GT$17h3c5fcd37d994471bE"({ i64*, i64 }* %_1) unnamed_addr #1 {
start:
; call <alloc::raw_vec::RawVec<T,A> as core::ops::drop::Drop>::drop
  call void @"_ZN77_$LT$alloc..raw_vec..RawVec$LT$T$C$A$GT$$u20$as$u20$core..ops..drop..Drop$GT$4drop17h05138741a019b95cE"({ i64*, i64 }* align 8 dereferenceable(16) %_1)
  br label %bb1

bb1:                                              ; preds = %start
  ret void
}

; core::ptr::drop_in_place<std::sys::unix::process::process_common::Stdio>
; Function Attrs: nonlazybind uwtable
define internal void @"_ZN4core3ptr67drop_in_place$LT$std..sys..unix..process..process_common..Stdio$GT$17h427060688aab042dE"({ i32, i32 }* %_1) unnamed_addr #1 {
start:
  %0 = bitcast { i32, i32 }* %_1 to i32*
  %1 = load i32, i32* %0, align 4, !range !70
  %_2 = zext i32 %1 to i64
  switch i64 %_2, label %bb2 [
    i64 0, label %bb1
    i64 1, label %bb1
    i64 2, label %bb1
  ]

bb2:                                              ; preds = %start
  %2 = bitcast { i32, i32 }* %_1 to %"std::sys::unix::process::process_common::Stdio::Fd"*
  %3 = getelementptr inbounds %"std::sys::unix::process::process_common::Stdio::Fd", %"std::sys::unix::process::process_common::Stdio::Fd"* %2, i32 0, i32 1
; call core::ptr::drop_in_place<std::sys::unix::fd::FileDesc>
  call void @"_ZN4core3ptr49drop_in_place$LT$std..sys..unix..fd..FileDesc$GT$17h9a9b01987cb3f753E"(i32* %3)
  br label %bb1

bb1:                                              ; preds = %bb2, %start, %start, %start
  ret void
}

; core::ptr::drop_in_place<alloc::boxed::Box<std::io::error::Custom>>
; Function Attrs: nonlazybind uwtable
define internal void @"_ZN4core3ptr68drop_in_place$LT$alloc..boxed..Box$LT$std..io..error..Custom$GT$$GT$17h975b98e475969dd6E"(%"std::io::error::Custom"** %_1) unnamed_addr #1 personality i32 (i32, i32, i64, %"unwind::libunwind::_Unwind_Exception"*, %"unwind::libunwind::_Unwind_Context"*)* @rust_eh_personality {
start:
  %0 = alloca { i8*, i32 }, align 8
  %1 = load %"std::io::error::Custom"*, %"std::io::error::Custom"** %_1, align 8, !nonnull !10
; invoke core::ptr::drop_in_place<std::io::error::Custom>
  invoke void @"_ZN4core3ptr43drop_in_place$LT$std..io..error..Custom$GT$17h13bd573d5e737147E"(%"std::io::error::Custom"* %1)
          to label %bb3 unwind label %cleanup

bb3:                                              ; preds = %start
  %2 = bitcast %"std::io::error::Custom"** %_1 to i64**
  %3 = load i64*, i64** %2, align 8, !nonnull !10
; call alloc::alloc::box_free
