; ModuleID = 'p11op1jk3kcmdqq'
source_filename = "p11op1jk3kcmdqq"
target datalayout = "e-m:e-p270:32:32-p271:32:32-p272:64:64-i64:64-f80:128-n8:16:32:64-S128"
target triple = "x86_64-unknown-linux-gnu"

%"core::panic::location::Location" = type { { [0 x i8]*, i64 }, i32, i32 }
%MyPage = type { i8*, %MyPage*, i64, i64, [256 x i8] }

@alloc75 = private unnamed_addr constant <{ [55 x i8] }> <{ [55 x i8] c"/home/cj/OOM/allocator/allocator_crate/src/cal_tools.rs" }>, align 1
@alloc70 = private unnamed_addr constant <{ i8*, [16 x i8] }> <{ i8* getelementptr inbounds (<{ [55 x i8] }>, <{ [55 x i8] }>* @alloc75, i32 0, i32 0, i32 0), [16 x i8] c"7\00\00\00\00\00\00\00\1A\00\00\00\0D\00\00\00" }>, align 8
@str.0 = internal constant [33 x i8] c"attempt to multiply with overflow"
@alloc72 = private unnamed_addr constant <{ i8*, [16 x i8] }> <{ i8* getelementptr inbounds (<{ [55 x i8] }>, <{ [55 x i8] }>* @alloc75, i32 0, i32 0, i32 0), [16 x i8] c"7\00\00\00\00\00\00\00\1A\00\00\00\09\00\00\00" }>, align 8
@str.1 = internal constant [33 x i8] c"attempt to subtract with overflow"
@alloc12 = private unnamed_addr constant <{ [512 x i8] }> <{ [512 x i8] c"\01\00\00\00\00\00\00\00\02\00\00\00\00\00\00\00\04\00\00\00\00\00\00\00\08\00\00\00\00\00\00\00\10\00\00\00\00\00\00\00 \00\00\00\00\00\00\00@\00\00\00\00\00\00\00\80\00\00\00\00\00\00\00\00\01\00\00\00\00\00\00\00\02\00\00\00\00\00\00\00\04\00\00\00\00\00\00\00\08\00\00\00\00\00\00\00\10\00\00\00\00\00\00\00 \00\00\00\00\00\00\00@\00\00\00\00\00\00\00\80\00\00\00\00\00\00\00\00\01\00\00\00\00\00\00\00\02\00\00\00\00\00\00\00\04\00\00\00\00\00\00\00\08\00\00\00\00\00\00\00\10\00\00\00\00\00\00\00 \00\00\00\00\00\00\00@\00\00\00\00\00\00\00\80\00\00\00\00\00\00\00\00\01\00\00\00\00\00\00\00\02\00\00\00\00\00\00\00\04\00\00\00\00\00\00\00\08\00\00\00\00\00\00\00\10\00\00\00\00\00\00\00 \00\00\00\00\00\00\00@\00\00\00\00\00\00\00\80\00\00\00\00\00\00\00\00\01\00\00\00\00\00\00\00\02\00\00\00\00\00\00\00\04\00\00\00\00\00\00\00\08\00\00\00\00\00\00\00\10\00\00\00\00\00\00\00 \00\00\00\00\00\00\00@\00\00\00\00\00\00\00\80\00\00\00\00\00\00\00\00\01\00\00\00\00\00\00\00\02\00\00\00\00\00\00\00\04\00\00\00\00\00\00\00\08\00\00\00\00\00\00\00\10\00\00\00\00\00\00\00 \00\00\00\00\00\00\00@\00\00\00\00\00\00\00\80\00\00\00\00\00\00\00\00\01\00\00\00\00\00\00\00\02\00\00\00\00\00\00\00\04\00\00\00\00\00\00\00\08\00\00\00\00\00\00\00\10\00\00\00\00\00\00\00 \00\00\00\00\00\00\00@\00\00\00\00\00\00\00\80\00\00\00\00\00\00\00\00\01\00\00\00\00\00\00\00\02\00\00\00\00\00\00\00\04\00\00\00\00\00\00\00\08\00\00\00\00\00\00\00\10\00\00\00\00\00\00\00 \00\00\00\00\00\00\00@\00\00\00\00\00\00\00\80" }>, align 8
@0 = private unnamed_addr constant <{ i8*, [8 x i8] }> <{ i8* getelementptr inbounds (<{ [512 x i8] }>, <{ [512 x i8] }>* @alloc12, i32 0, i32 0, i32 0), [8 x i8] c"@\00\00\00\00\00\00\00" }>, align 8
@alloc74 = private unnamed_addr constant <{ i8*, [16 x i8] }> <{ i8* getelementptr inbounds (<{ [55 x i8] }>, <{ [55 x i8] }>* @alloc75, i32 0, i32 0, i32 0), [16 x i8] c"7\00\00\00\00\00\00\00\1B\00\00\00\18\00\00\00" }>, align 8
@alloc15 = private unnamed_addr constant <{ [16392 x i8] }> <{ [16392 x i8] c"\00\00\00\00\00\00\00\00\00\00\00\00\00\00\00\00\00\00\00\00\00\00\00\00\00\00\00\00\00\00\00\00\00\00\00\00\00\00\00\00\00\00\00\00\00\00\00\00\00\00\00\00\00\00\00\00\00\00\00\00\00\00\00\00\00\00\00\00\00\00\00\00\00\00\00\00\00\00\00\00\00\00\00\00\00\00\00\00\00\00\00\00\00\00\00\00\00\00\00\00\00\00\00\00\00\00\00\00\00\00\00\00\00\00\00\00\00\00\00\00\00\00\00\00\00\00\00\00\00\00\00\00\00\00\00\00\01\00\00\00\00\00\00\00\01\00\00\00\00\00\00\00\01\00\00\00\00\00\00\00\01\00\00\00\00\00\00\00\01\00\00\00\00\00\00\00\01\00\00\00\00\00\00\00\01\00\00\00\00\00\00\00\01\00\00\00\00\00\00\00\01\00\00\00\00\00\00\00\01\00\00\00\00\00\00\00\01\00\00\00\00\00\00\00\01\00\00\00\00\00\00\00\01\00\00\00\00\00\00\00\01\00\00\00\00\00\00\00\01\00\00\00\00\00\00\00\01\00\00\00\00\00\00\00\02\00\00\00\00\00\00\00\02\00\00\00\00\00\00\00\02\00\00\00\00\00\00\00\02\00\00\00\00\00\00\00\02\00\00\00\00\00\00\00\02\00\00\00\00\00\00\00\02\00\00\00\00\00\00\00\02\00\00\00\00\00\00\00\02\00\00\00\00\00\00\00\02\00\00\00\00\00\00\00\02\00\00\00\00\00\00\00\02\00\00\00\00\00\00\00\02\00\00\00\00\00\00\00\02\00\00\00\00\00\00\00\02\00\00\00\00\00\00\00\02\00\00\00\00\00\00\00\02\00\00\00\00\00\00\00\02\00\00\00\00\00\00\00\02\00\00\00\00\00\00\00\02\00\00\00\00\00\00\00\02\00\00\00\00\00\00\00\02\00\00\00\00\00\00\00\02\00\00\00\00\00\00\00\02\00\00\00\00\00\00\00\02\00\00\00\00\00\00\00\02\00\00\00\00\00\00\00\02\00\00\00\00\00\00\00\02\00\00\00\00\00\00\00\02\00\00\00\00\00\00\00\02\00\00\00\00\00\00\00\02\00\00\00\00\00\00\00\02\00\00\00\00\00\00\00\03\00\00\00\00\00\00\00\03\00\00\00\00\00\00\00\03\00\00\00\00\00\00\00\03\00\00\00\00\00\00\00\03\00\00\00\00\00\00\00\03\00\00\00\00\00\00\00\03\00\00\00\00\00\00\00\03\00\00\00\00\00\00\00\03\00\00\00\00\00\00\00\03\00\00\00\00\00\00\00\03\00\00\00\00\00\00\00\03\00\00\00\00\00\00\00\03\00\00\00\00\00\00\00\03\00\00\00\00\00\00\00\03\00\00\00\00\00\00\00\03\00\00\00\00\00\00\00\03\00\00\00\00\00\00\00\03\00\00\00\00\00\00\00\03\00\00\00\00\00\00\00\03\00\00\00\00\00\00\00\03\00\00\00\00\00\00\00\03\00\00\00\00\00\00\00\03\00\00\00\00\00\00\00\03\00\00\00\00\00\00\00\03\00\00\00\00\00\00\00\03\00\00\00\00\00\00\00\03\00\00\00\00\00\00\00\03\00\00\00\00\00\00\00\03\00\00\00\00\00\00\00\03\00\00\00\00\00\00\00\03\00\00\00\00\00\00\00\03\00\00\00\00\00\00\00\03\00\00\00\00\00\00\00\03\00\00\00\00\00\00\00\03\00\00\00\00\00\00\00\03\00\00\00\00\00\00\00\03\00\00\00\00\00\00\00\03\00\00\00\00\00\00\00\03\00\00\00\00\00\00\00\03\00\00\00\00\00\00\00\03\00\00\00\00\00\00\00\03\00\00\00\00\00\00\00\03\00\00\00\00\00\00\00\03\00\00\00\00\00\00\00\03\00\00\00\00\00\00\00\03\00\00\00\00\00\00\00\03\00\00\00\00\00\00\00\03\00\00\00\00\00\00\00\03\00\00\00\00\00\00\00\03\00\00\00\00\00\00\00\03\00\00\00\00\00\00\00\03\00\00\00\00\00\00\00\03\00\00\00\00\00\00\00\03\00\00\00\00\00\00\00\03\00\00\00\00\00\00\00\03\00\00\00\00\00\00\00\03\00\00\00\00\00\00\00\03\00\00\00\00\00\00\00\03\00\00\00\00\00\00\00\03\00\00\00\00\00\00\00\03\00\00\00\00\00\00\00\03\00\00\00\00\00\00\00\03\00\00\00\00\00\00\00\03\00\00\00\00\00\00\00\04\00\00\00\00\00\00\00\04\00\00\00\00\00\00\00\04\00\00\00\00\00\00\00\04\00\00\00\00\00\00\00\04\00\00\00\00\00\00\00\04\00\00\00\00\00\00\00\04\00\00\00\00\00\00\00\04\00\00\00\00\00\00\00\04\00\00\00\00\00\00\00\04\00\00\00\00\00\00\00\04\00\00\00\00\00\00\00\04\00\00\00\00\00\00\00\04\00\00\00\00\00\00\00\04\00\00\00\00\00\00\00\04\00\00\00\00\00\00\00\04\00\00\00\00\00\00\00\04\00\00\00\00\00\00\00\04\00\00\00\00\00\00\00\04\00\00\00\00\00\00\00\04\00\00\00\00\00\00\00\04\00\00\00\00\00\00\00\04\00\00\00\00\00\00\00\04\00\00\00\00\00\00\00\04\00\00\00\00\00\00\00\04\00\00\00\00\00\00\00\04\00\00\00\00\00\00\00\04\00\00\00\00\00\00\00\04\00\00\00\00\00\00\00\04\00\00\00\00\00\00\00\04\00\00\00\00\00\00\00\04\00\00\00\00\00\00\00\04\00\00\00\00\00\00\00\04\00\00\00\00\00\00\00\04\00\00\00\00\00\00\00\04\00\00\00\00\00\00\00\04\00\00\00\00\00\00\00\04\00\00\00\00\00\00\00\04\00\00\00\00\00\00\00\04\00\00\00\00\00\00\00\04\00\00\00\00\00\00\00\04\00\00\00\00\00\00\00\04\00\00\00\00\00\00\00\04\00\00\00\00\00\00\00\04\00\00\00\00\00\00\00\04\00\00\00\00\00\00\00\04\00\00\00\00\00\00\00\04\00\00\00\00\00\00\00\04\00\00\00\00\00\00\00\04\00\00\00\00\00\00\00\04\00\00\00\00\00\00\00\04\00\00\00\00\00\00\00\04\00\00\00\00\00\00\00\04\00\00\00\00\00\00\00\04\00\00\00\00\00\00\00\04\00\00\00\00\00\00\00\04\00\00\00\00\00\00\00\04\00\00\00\00\00\00\00\04\00\00\00\00\00\00\00\04\00\00\00\00\00\00\00\04\00\00\00\00\00\00\00\04\00\00\00\00\00\00\00\04\00\00\00\00\00\00\00\04\00\00\00\00\00\00\00\04\00\00\00\00\00\00\00\04\00\00\00\00\00\00\00\04\00\00\00\00\00\00\00\04\00\00\00\00\00\00\00\04\00\00\00\00\00\00\00\04\00\00\00\00\00\00\00\04\00\00\00\00\00\00\00\04\00\00\00\00\00\00\00\04\00\00\00\00\00\00\00\04\00\00\00\00\00\00\00\04\00\00\00\00\00\00\00\04\00\00\00\00\00\00\00\04\00\00\00\00\00\00\00\04\00\00\00\00\00\00\00\04\00\00\00\00\00\00\00\04\00\00\00\00\00\00\00\04\00\00\00\00\00\00\00\04\00\00\00\00\00\00\00\04\00\00\00\00\00\00\00\04\00\00\00\00\00\00\00\04\00\00\00\00\00\00\00\04\00\00\00\00\00\00\00\04\00\00\00\00\00\00\00\04\00\00\00\00\00\00\00\04\00\00\00\00\00\00\00\04\00\00\00\00\00\00\00\04\00\00\00\00\00\00\00\04\00\00\00\00\00\00\00\04\00\00\00\00\00\00\00\04\00\00\00\00\00\00\00\04\00\00\00\00\00\00\00\04\00\00\00\00\00\00\00\04\00\00\00\00\00\00\00\04\00\00\00\00\00\00\00\04\00\00\00\00\00\00\00\04\00\00\00\00\00\00\00\04\00\00\00\00\00\00\00\04\00\00\00\00\00\00\00\04\00\00\00\00\00\00\00\04\00\00\00\00\00\00\00\04\00\00\00\00\00\00\00\04\00\00\00\00\00\00\00\04\00\00\00\00\00\00\00\04\00\00\00\00\00\00\00\04\00\00\00\00\00\00\00\04\00\00\00\00\00\00\00\04\00\00\00\00\00\00\00\04\00\00\00\00\00\00\00\04\00\00\00\00\00\00\00\04\00\00\00\00\00\00\00\04\00\00\00\00\00\00\00\04\00\00\00\00\00\00\00\04\00\00\00\00\00\00\00\04\00\00\00\00\00\00\00\04\00\00\00\00\00\00\00\04\00\00\00\00\00\00\00\04\00\00\00\00\00\00\00\04\00\00\00\00\00\00\00\04\00\00\00\00\00\00\00\04\00\00\00\00\00\00\00\04\00\00\00\00\00\00\00\04\00\00\00\00\00\00\00\04\00\00\00\00\00\00\00\04\00\00\00\00\00\00\00\04\00\00\00\00\00\00\00\05\00\00\00\00\00\00\00\05\00\00\00\00\00\00\00\05\00\00\00\00\00\00\00\05\00\00\00\00\00\00\00\05\00\00\00\00\00\00\00\05\00\00\00\00\00\00\00\05\00\00\00\00\00\00\00\05\00\00\00\00\00\00\00\05\00\00\00\00\00\00\00\05\00\00\00\00\00\00\00\05\00\00\00\00\00\00\00\05\00\00\00\00\00\00\00\05\00\00\00\00\00\00\00\05\00\00\00\00\00\00\00\05\00\00\00\00\00\00\00\05\00\00\00\00\00\00\00\05\00\00\00\00\00\00\00\05\00\00\00\00\00\00\00\05\00\00\00\00\00\00\00\05\00\00\00\00\00\00\00\05\00\00\00\00\00\00\00\05\00\00\00\00\00\00\00\05\00\00\00\00\00\00\00\05\00\00\00\00\00\00\00\05\00\00\00\00\00\00\00\05\00\00\00\00\00\00\00\05\00\00\00\00\00\00\00\05\00\00\00\00\00\00\00\05\00\00\00\00\00\00\00\05\00\00\00\00\00\00\00\05\00\00\00\00\00\00\00\05\00\00\00\00\00\00\00\05\00\00\00\00\00\00\00\05\00\00\00\00\00\00\00\05\00\00\00\00\00\00\00\05\00\00\00\00\00\00\00\05\00\00\00\00\00\00\00\05\00\00\00\00\00\00\00\05\00\00\00\00\00\00\00\05\00\00\00\00\00\00\00\05\00\00\00\00\00\00\00\05\00\00\00\00\00\00\00\05\00\00\00\00\00\00\00\05\00\00\00\00\00\00\00\05\00\00\00\00\00\00\00\05\00\00\00\00\00\00\00\05\00\00\00\00\00\00\00\05\00\00\00\00\00\00\00\05\00\00\00\00\00\00\00\05\00\00\00\00\00\00\00\05\00\00\00\00\00\00\00\05\00\00\00\00\00\00\00\05\00\00\00\00\00\00\00\05\00\00\00\00\00\00\00\05\00\00\00\00\00\00\00\05\00\00\00\00\00\00\00\05\00\00\00\00\00\00\00\05\00\00\00\00\00\00\00\05\00\00\00\00\00\00\00\05\00\00\00\00\00\00\00\05\00\00\00\00\00\00\00\05\00\00\00\00\00\00\00\05\00\00\00\00\00\00\00\05\00\00\00\00\00\00\00\05\00\00\00\00\00\00\00\05\00\00\00\00\00\00\00\05\00\00\00\00\00\00\00\05\00\00\00\00\00\00\00\05\00\00\00\00\00\00\00\05\00\00\00\00\00\00\00\05\00\00\00\00\00\00\00\05\00\00\00\00\00\00\00\05\00\00\00\00\00\00\00\05\00\00\00\00\00\00\00\05\00\00\00\00\00\00\00\05\00\00\00\00\00\00\00\05\00\00\00\00\00\00\00\05\00\00\00\00\00\00\00\05\00\00\00\00\00\00\00\05\00\00\00\00\00\00\00\05\00\00\00\00\00\00\00\05\00\00\00\00\00\00\00\05\00\00\00\00\00\00\00\05\00\00\00\00\00\00\00\05\00\00\00\00\00\00\00\05\00\00\00\00\00\00\00\05\00\00\00\00\00\00\00\05\00\00\00\00\00\00\00\05\00\00\00\00\00\00\00\05\00\00\00\00\00\00\00\05\00\00\00\00\00\00\00\05\00\00\00\00\00\00\00\05\00\00\00\00\00\00\00\05\00\00\00\00\00\00\00\05\00\00\00\00\00\00\00\05\00\00\00\00\00\00\00\05\00\00\00\00\00\00\00\05\00\00\00\00\00\00\00\05\00\00\00\00\00\00\00\05\00\00\00\00\00\00\00\05\00\00\00\00\00\00\00\05\00\00\00\00\00\00\00\05\00\00\00\00\00\00\00\05\00\00\00\00\00\00\00\05\00\00\00\00\00\00\00\05\00\00\00\00\00\00\00\05\00\00\00\00\00\00\00\05\00\00\00\00\00\00\00\05\00\00\00\00\00\00\00\05\00\00\00\00\00\00\00\05\00\00\00\00\00\00\00\05\00\00\00\00\00\00\00\05\00\00\00\00\00\00\00\05\00\00\00\00\00\00\00\05\00\00\00\00\00\00\00\05\00\00\00\00\00\00\00\05\00\00\00\00\00\00\00\05\00\00\00\00\00\00\00\05\00\00\00\00\00\00\00\05\00\00\00\00\00\00\00\05\00\00\00\00\00\00\00\05\00\00\00\00\00\00\00\05\00\00\00\00\00\00\00\05\00\00\00\00\00\00\00\05\00\00\00\00\00\00\00\05\00\00\00\00\00\00\00\05\00\00\00\00\00\00\00\05\00\00\00\00\00\00\00\05\00\00\00\00\00\00\00\05\00\00\00\00\00\00\00\05\00\00\00\00\00\00\00\05\00\00\00\00\00\00\00\05\00\00\00\00\00\00\00\05\00\00\00\00\00\00\00\05\00\00\00\00\00\00\00\05\00\00\00\00\00\00\00\05\00\00\00\00\00\00\00\05\00\00\00\00\00\00\00\05\00\00\00\00\00\00\00\05\00\00\00\00\00\00\00\05\00\00\00\00\00\00\00\05\00\00\00\00\00\00\00\05\00\00\00\00\00\00\00\05\00\00\00\00\00\00\00\05\00\00\00\00\00\00\00\05\00\00\00\00\00\00\00\05\00\00\00\00\00\00\00\05\00\00\00\00\00\00\00\05\00\00\00\00\00\00\00\05\00\00\00\00\00\00\00\05\00\00\00\00\00\00\00\05\00\00\00\00\00\00\00\05\00\00\00\00\00\00\00\05\00\00\00\00\00\00\00\05\00\00\00\00\00\00\00\05\00\00\00\00\00\00\00\05\00\00\00\00\00\00\00\05\00\00\00\00\00\00\00\05\00\00\00\00\00\00\00\05\00\00\00\00\00\00\00\05\00\00\00\00\00\00\00\05\00\00\00\00\00\00\00\05\00\00\00\00\00\00\00\05\00\00\00\00\00\00\00\05\00\00\00\00\00\00\00\05\00\00\00\00\00\00\00\05\00\00\00\00\00\00\00\05\00\00\00\00\00\00\00\05\00\00\00\00\00\00\00\05\00\00\00\00\00\00\00\05\00\00\00\00\00\00\00\05\00\00\00\00\00\00\00\05\00\00\00\00\00\00\00\05\00\00\00\00\00\00\00\05\00\00\00\00\00\00\00\05\00\00\00\00\00\00\00\05\00\00\00\00\00\00\00\05\00\00\00\00\00\00\00\05\00\00\00\00\00\00\00\05\00\00\00\00\00\00\00\05\00\00\00\00\00\00\00\05\00\00\00\00\00\00\00\05\00\00\00\00\00\00\00\05\00\00\00\00\00\00\00\05\00\00\00\00\00\00\00\05\00\00\00\00\00\00\00\05\00\00\00\00\00\00\00\05\00\00\00\00\00\00\00\05\00\00\00\00\00\00\00\05\00\00\00\00\00\00\00\05\00\00\00\00\00\00\00\05\00\00\00\00\00\00\00\05\00\00\00\00\00\00\00\05\00\00\00\00\00\00\00\05\00\00\00\00\00\00\00\05\00\00\00\00\00\00\00\05\00\00\00\00\00\00\00\05\00\00\00\00\00\00\00\05\00\00\00\00\00\00\00\05\00\00\00\00\00\00\00\05\00\00\00\00\00\00\00\05\00\00\00\00\00\00\00\05\00\00\00\00\00\00\00\05\00\00\00\00\00\00\00\05\00\00\00\00\00\00\00\05\00\00\00\00\00\00\00\05\00\00\00\00\00\00\00\05\00\00\00\00\00\00\00\05\00\00\00\00\00\00\00\05\00\00\00\00\00\00\00\05\00\00\00\00\00\00\00\05\00\00\00\00\00\00\00\05\00\00\00\00\00\00\00\05\00\00\00\00\00\00\00\05\00\00\00\00\00\00\00\05\00\00\00\00\00\00\00\05\00\00\00\00\00\00\00\05\00\00\00\00\00\00\00\05\00\00\00\00\00\00\00\05\00\00\00\00\00\00\00\05\00\00\00\00\00\00\00\05\00\00\00\00\00\00\00\05\00\00\00\00\00\00\00\05\00\00\00\00\00\00\00\05\00\00\00\00\00\00\00\05\00\00\00\00\00\00\00\05\00\00\00\00\00\00\00\05\00\00\00\00\00\00\00\05\00\00\00\00\00\00\00\05\00\00\00\00\00\00\00\05\00\00\00\00\00\00\00\05\00\00\00\00\00\00\00\05\00\00\00\00\00\00\00\05\00\00\00\00\00\00\00\05\00\00\00\00\00\00\00\05\00\00\00\00\00\00\00\05\00\00\00\00\00\00\00\05\00\00\00\00\00\00\00\05\00\00\00\00\00\00\00\05\00\00\00\00\00\00\00\05\00\00\00\00\00\00\00\05\00\00\00\00\00\00\00\05\00\00\00\00\00\00\00\05\00\00\00\00\00\00\00\05\00\00\00\00\00\00\00\05\00\00\00\00\00\00\00\05\00\00\00\00\00\00\00\05\00\00\00\00\00\00\00\05\00\00\00\00\00\00\00\05\00\00\00\00\00\00\00\05\00\00\00\00\00\00\00\05\00\00\00\00\00\00\00\05\00\00\00\00\00\00\00\05\00\00\00\00\00\00\00\05\00\00\00\00\00\00\00\05\00\00\00\00\00\00\00\06\00\00\00\00\00\00\00\06\00\00\00\00\00\00\00\06\00\00\00\00\00\00\00\06\00\00\00\00\00\00\00\06\00\00\00\00\00\00\00\06\00\00\00\00\00\00\00\06\00\00\00\00\00\00\00\06\00\00\00\00\00\00\00\06\00\00\00\00\00\00\00\06\00\00\00\00\00\00\00\06\00\00\00\00\00\00\00\06\00\00\00\00\00\00\00\06\00\00\00\00\00\00\00\06\00\00\00\00\00\00\00\06\00\00\00\00\00\00\00\06\00\00\00\00\00\00\00\06\00\00\00\00\00\00\00\06\00\00\00\00\00\00\00\06\00\00\00\00\00\00\00\06\00\00\00\00\00\00\00\06\00\00\00\00\00\00\00\06\00\00\00\00\00\00\00\06\00\00\00\00\00\00\00\06\00\00\00\00\00\00\00\06\00\00\00\00\00\00\00\06\00\00\00\00\00\00\00\06\00\00\00\00\00\00\00\06\00\00\00\00\00\00\00\06\00\00\00\00\00\00\00\06\00\00\00\00\00\00\00\06\00\00\00\00\00\00\00\06\00\00\00\00\00\00\00\06\00\00\00\00\00\00\00\06\00\00\00\00\00\00\00\06\00\00\00\00\00\00\00\06\00\00\00\00\00\00\00\06\00\00\00\00\00\00\00\06\00\00\00\00\00\00\00\06\00\00\00\00\00\00\00\06\00\00\00\00\00\00\00\06\00\00\00\00\00\00\00\06\00\00\00\00\00\00\00\06\00\00\00\00\00\00\00\06\00\00\00\00\00\00\00\06\00\00\00\00\00\00\00\06\00\00\00\00\00\00\00\06\00\00\00\00\00\00\00\06\00\00\00\00\00\00\00\06\00\00\00\00\00\00\00\06\00\00\00\00\00\00\00\06\00\00\00\00\00\00\00\06\00\00\00\00\00\00\00\06\00\00\00\00\00\00\00\06\00\00\00\00\00\00\00\06\00\00\00\00\00\00\00\06\00\00\00\00\00\00\00\06\00\00\00\00\00\00\00\06\00\00\00\00\00\00\00\06\00\00\00\00\00\00\00\06\00\00\00\00\00\00\00\06\00\00\00\00\00\00\00\06\00\00\00\00\00\00\00\06\00\00\00\00\00\00\00\06\00\00\00\00\00\00\00\06\00\00\00\00\00\00\00\06\00\00\00\00\00\00\00\06\00\00\00\00\00\00\00\06\00\00\00\00\00\00\00\06\00\00\00\00\00\00\00\06\00\00\00\00\00\00\00\06\00\00\00\00\00\00\00\06\00\00\00\00\00\00\00\06\00\00\00\00\00\00\00\06\00\00\00\00\00\00\00\06\00\00\00\00\00\00\00\06\00\00\00\00\00\00\00\06\00\00\00\00\00\00\00\06\00\00\00\00\00\00\00\06\00\00\00\00\00\00\00\06\00\00\00\00\00\00\00\06\00\00\00\00\00\00\00\06\00\00\00\00\00\00\00\06\00\00\00\00\00\00\00\06\00\00\00\00\00\00\00\06\00\00\00\00\00\00\00\06\00\00\00\00\00\00\00\06\00\00\00\00\00\00\00\06\00\00\00\00\00\00\00\06\00\00\00\00\00\00\00\06\00\00\00\00\00\00\00\06\00\00\00\00\00\00\00\06\00\00\00\00\00\00\00\06\00\00\00\00\00\00\00\06\00\00\00\00\00\00\00\06\00\00\00\00\00\00\00\06\00\00\00\00\00\00\00\06\00\00\00\00\00\00\00\06\00\00\00\00\00\00\00\06\00\00\00\00\00\00\00\06\00\00\00\00\00\00\00\06\00\00\00\00\00\00\00\06\00\00\00\00\00\00\00\06\00\00\00\00\00\00\00\06\00\00\00\00\00\00\00\06\00\00\00\00\00\00\00\06\00\00\00\00\00\00\00\06\00\00\00\00\00\00\00\06\00\00\00\00\00\00\00\06\00\00\00\00\00\00\00\06\00\00\00\00\00\00\00\06\00\00\00\00\00\00\00\06\00\00\00\00\00\00\00\06\00\00\00\00\00\00\00\06\00\00\00\00\00\00\00\06\00\00\00\00\00\00\00\06\00\00\00\00\00\00\00\06\00\00\00\00\00\00\00\06\00\00\00\00\00\00\00\06\00\00\00\00\00\00\00\06\00\00\00\00\00\00\00\06\00\00\00\00\00\00\00\06\00\00\00\00\00\00\00\06\00\00\00\00\00\00\00\06\00\00\00\00\00\00\00\06\00\00\00\00\00\00\00\06\00\00\00\00\00\00\00\06\00\00\00\00\00\00\00\06\00\00\00\00\00\00\00\06\00\00\00\00\00\00\00\06\00\00\00\00\00\00\00\06\00\00\00\00\00\00\00\06\00\00\00\00\00\00\00\06\00\00\00\00\00\00\00\06\00\00\00\00\00\00\00\06\00\00\00\00\00\00\00\06\00\00\00\00\00\00\00\06\00\00\00\00\00\00\00\06\00\00\00\00\00\00\00\06\00\00\00\00\00\00\00\06\00\00\00\00\00\00\00\06\00\00\00\00\00\00\00\06\00\00\00\00\00\00\00\06\00\00\00\00\00\00\00\06\00\00\00\00\00\00\00\06\00\00\00\00\00\00\00\06\00\00\00\00\00\00\00\06\00\00\00\00\00\00\00\06\00\00\00\00\00\00\00\06\00\00\00\00\00\00\00\06\00\00\00\00\00\00\00\06\00\00\00\00\00\00\00\06\00\00\00\00\00\00\00\06\00\00\00\00\00\00\00\06\00\00\00\00\00\00\00\06\00\00\00\00\00\00\00\06\00\00\00\00\00\00\00\06\00\00\00\00\00\00\00\06\00\00\00\00\00\00\00\06\00\00\00\00\00\00\00\06\00\00\00\00\00\00\00\06\00\00\00\00\00\00\00\06\00\00\00\00\00\00\00\06\00\00\00\00\00\00\00\06\00\00\00\00\00\00\00\06\00\00\00\00\00\00\00\06\00\00\00\00\00\00\00\06\00\00\00\00\00\00\00\06\00\00\00\00\00\00\00\06\00\00\00\00\00\00\00\06\00\00\00\00\00\00\00\06\00\00\00\00\00\00\00\06\00\00\00\00\00\00\00\06\00\00\00\00\00\00\00\06\00\00\00\00\00\00\00\06\00\00\00\00\00\00\00\06\00\00\00\00\00\00\00\06\00\00\00\00\00\00\00\06\00\00\00\00\00\00\00\06\00\00\00\00\00\00\00\06\00\00\00\00\00\00\00\06\00\00\00\00\00\00\00\06\00\00\00\00\00\00\00\06\00\00\00\00\00\00\00\06\00\00\00\00\00\00\00\06\00\00\00\00\00\00\00\06\00\00\00\00\00\00\00\06\00\00\00\00\00\00\00\06\00\00\00\00\00\00\00\06\00\00\00\00\00\00\00\06\00\00\00\00\00\00\00\06\00\00\00\00\00\00\00\06\00\00\00\00\00\00\00\06\00\00\00\00\00\00\00\06\00\00\00\00\00\00\00\06\00\00\00\00\00\00\00\06\00\00\00\00\00\00\00\06\00\00\00\00\00\00\00\06\00\00\00\00\00\00\00\06\00\00\00\00\00\00\00\06\00\00\00\00\00\00\00\06\00\00\00\00\00\00\00\06\00\00\00\00\00\00\00\06\00\00\00\00\00\00\00\06\00\00\00\00\00\00\00\06\00\00\00\00\00\00\00\06\00\00\00\00\00\00\00\06\00\00\00\00\00\00\00\06\00\00\00\00\00\00\00\06\00\00\00\00\00\00\00\06\00\00\00\00\00\00\00\06\00\00\00\00\00\00\00\06\00\00\00\00\00\00\00\06\00\00\00\00\00\00\00\06\00\00\00\00\00\00\00\06\00\00\00\00\00\00\00\06\00\00\00\00\00\00\00\06\00\00\00\00\00\00\00\06\00\00\00\00\00\00\00\06\00\00\00\00\00\00\00\06\00\00\00\00\00\00\00\06\00\00\00\00\00\00\00\06\00\00\00\00\00\00\00\06\00\00\00\00\00\00\00\06\00\00\00\00\00\00\00\06\00\00\00\00\00\00\00\06\00\00\00\00\00\00\00\06\00\00\00\00\00\00\00\06\00\00\00\00\00\00\00\06\00\00\00\00\00\00\00\06\00\00\00\00\00\00\00\06\00\00\00\00\00\00\00\06\00\00\00\00\00\00\00\06\00\00\00\00\00\00\00\06\00\00\00\00\00\00\00\06\00\00\00\00\00\00\00\06\00\00\00\00\00\00\00\06\00\00\00\00\00\00\00\06\00\00\00\00\00\00\00\06\00\00\00\00\00\00\00\06\00\00\00\00\00\00\00\06\00\00\00\00\00\00\00\06\00\00\00\00\00\00\00\06\00\00\00\00\00\00\00\06\00\00\00\00\00\00\00\06\00\00\00\00\00\00\00\06\00\00\00\00\00\00\00\06\00\00\00\00\00\00\00\06\00\00\00\00\00\00\00\06\00\00\00\00\00\00\00\06\00\00\00\00\00\00\00\06\00\00\00\00\00\00\00\06\00\00\00\00\00\00\00\06\00\00\00\00\00\00\00\06\00\00\00\00\00\00\00\06\00\00\00\00\00\00\00\06\00\00\00\00\00\00\00\06\00\00\00\00\00\00\00\06\00\00\00\00\00\00\00\06\00\00\00\00\00\00\00\06\00\00\00\00\00\00\00\06\00\00\00\00\00\00\00\06\00\00\00\00\00\00\00\06\00\00\00\00\00\00\00\06\00\00\00\00\00\00\00\06\00\00\00\00\00\00\00\06\00\00\00\00\00\00\00\06\00\00\00\00\00\00\00\06\00\00\00\00\00\00\00\06\00\00\00\00\00\00\00\06\00\00\00\00\00\00\00\06\00\00\00\00\00\00\00\06\00\00\00\00\00\00\00\06\00\00\00\00\00\00\00\06\00\00\00\00\00\00\00\06\00\00\00\00\00\00\00\06\00\00\00\00\00\00\00\06\00\00\00\00\00\00\00\06\00\00\00\00\00\00\00\06\00\00\00\00\00\00\00\06\00\00\00\00\00\00\00\06\00\00\00\00\00\00\00\06\00\00\00\00\00\00\00\06\00\00\00\00\00\00\00\06\00\00\00\00\00\00\00\06\00\00\00\00\00\00\00\06\00\00\00\00\00\00\00\06\00\00\00\00\00\00\00\06\00\00\00\00\00\00\00\06\00\00\00\00\00\00\00\06\00\00\00\00\00\00\00\06\00\00\00\00\00\00\00\06\00\00\00\00\00\00\00\06\00\00\00\00\00\00\00\06\00\00\00\00\00\00\00\06\00\00\00\00\00\00\00\06\00\00\00\00\00\00\00\06\00\00\00\00\00\00\00\06\00\00\00\00\00\00\00\06\00\00\00\00\00\00\00\06\00\00\00\00\00\00\00\06\00\00\00\00\00\00\00\06\00\00\00\00\00\00\00\06\00\00\00\00\00\00\00\06\00\00\00\00\00\00\00\06\00\00\00\00\00\00\00\06\00\00\00\00\00\00\00\06\00\00\00\00\00\00\00\06\00\00\00\00\00\00\00\06\00\00\00\00\00\00\00\06\00\00\00\00\00\00\00\06\00\00\00\00\00\00\00\06\00\00\00\00\00\00\00\06\00\00\00\00\00\00\00\06\00\00\00\00\00\00\00\06\00\00\00\00\00\00\00\06\00\00\00\00\00\00\00\06\00\00\00\00\00\00\00\06\00\00\00\00\00\00\00\06\00\00\00\00\00\00\00\06\00\00\00\00\00\00\00\06\00\00\00\00\00\00\00\06\00\00\00\00\00\00\00\06\00\00\00\00\00\00\00\06\00\00\00\00\00\00\00\06\00\00\00\00\00\00\00\06\00\00\00\00\00\00\00\06\00\00\00\00\00\00\00\06\00\00\00\00\00\00\00\06\00\00\00\00\00\00\00\06\00\00\00\00\00\00\00\06\00\00\00\00\00\00\00\06\00\00\00\00\00\00\00\06\00\00\00\00\00\00\00\06\00\00\00\00\00\00\00\06\00\00\00\00\00\00\00\06\00\00\00\00\00\00\00\06\00\00\00\00\00\00\00\06\00\00\00\00\00\00\00\06\00\00\00\00\00\00\00\06\00\00\00\00\00\00\00\06\00\00\00\00\00\00\00\06\00\00\00\00\00\00\00\06\00\00\00\00\00\00\00\06\00\00\00\00\00\00\00\06\00\00\00\00\00\00\00\06\00\00\00\00\00\00\00\06\00\00\00\00\00\00\00\06\00\00\00\00\00\00\00\06\00\00\00\00\00\00\00\06\00\00\00\00\00\00\00\06\00\00\00\00\00\00\00\06\00\00\00\00\00\00\00\06\00\00\00\00\00\00\00\06\00\00\00\00\00\00\00\06\00\00\00\00\00\00\00\06\00\00\00\00\00\00\00\06\00\00\00\00\00\00\00\06\00\00\00\00\00\00\00\06\00\00\00\00\00\00\00\06\00\00\00\00\00\00\00\06\00\00\00\00\00\00\00\06\00\00\00\00\00\00\00\06\00\00\00\00\00\00\00\06\00\00\00\00\00\00\00\06\00\00\00\00\00\00\00\06\00\00\00\00\00\00\00\06\00\00\00\00\00\00\00\06\00\00\00\00\00\00\00\06\00\00\00\00\00\00\00\06\00\00\00\00\00\00\00\06\00\00\00\00\00\00\00\06\00\00\00\00\00\00\00\06\00\00\00\00\00\00\00\06\00\00\00\00\00\00\00\06\00\00\00\00\00\00\00\06\00\00\00\00\00\00\00\06\00\00\00\00\00\00\00\06\00\00\00\00\00\00\00\06\00\00\00\00\00\00\00\06\00\00\00\00\00\00\00\06\00\00\00\00\00\00\00\06\00\00\00\00\00\00\00\06\00\00\00\00\00\00\00\06\00\00\00\00\00\00\00\06\00\00\00\00\00\00\00\06\00\00\00\00\00\00\00\06\00\00\00\00\00\00\00\06\00\00\00\00\00\00\00\06\00\00\00\00\00\00\00\06\00\00\00\00\00\00\00\06\00\00\00\00\00\00\00\06\00\00\00\00\00\00\00\06\00\00\00\00\00\00\00\06\00\00\00\00\00\00\00\06\00\00\00\00\00\00\00\06\00\00\00\00\00\00\00\06\00\00\00\00\00\00\00\06\00\00\00\00\00\00\00\06\00\00\00\00\00\00\00\06\00\00\00\00\00\00\00\06\00\00\00\00\00\00\00\06\00\00\00\00\00\00\00\06\00\00\00\00\00\00\00\06\00\00\00\00\00\00\00\06\00\00\00\00\00\00\00\06\00\00\00\00\00\00\00\06\00\00\00\00\00\00\00\06\00\00\00\00\00\00\00\06\00\00\00\00\00\00\00\06\00\00\00\00\00\00\00\06\00\00\00\00\00\00\00\06\00\00\00\00\00\00\00\06\00\00\00\00\00\00\00\06\00\00\00\00\00\00\00\06\00\00\00\00\00\00\00\06\00\00\00\00\00\00\00\06\00\00\00\00\00\00\00\06\00\00\00\00\00\00\00\06\00\00\00\00\00\00\00\06\00\00\00\00\00\00\00\06\00\00\00\00\00\00\00\06\00\00\00\00\00\00\00\06\00\00\00\00\00\00\00\06\00\00\00\00\00\00\00\06\00\00\00\00\00\00\00\06\00\00\00\00\00\00\00\06\00\00\00\00\00\00\00\06\00\00\00\00\00\00\00\06\00\00\00\00\00\00\00\06\00\00\00\00\00\00\00\06\00\00\00\00\00\00\00\06\00\00\00\00\00\00\00\06\00\00\00\00\00\00\00\06\00\00\00\00\00\00\00\06\00\00\00\00\00\00\00\06\00\00\00\00\00\00\00\06\00\00\00\00\00\00\00\06\00\00\00\00\00\00\00\06\00\00\00\00\00\00\00\06\00\00\00\00\00\00\00\06\00\00\00\00\00\00\00\06\00\00\00\00\00\00\00\06\00\00\00\00\00\00\00\06\00\00\00\00\00\00\00\06\00\00\00\00\00\00\00\06\00\00\00\00\00\00\00\06\00\00\00\00\00\00\00\06\00\00\00\00\00\00\00\06\00\00\00\00\00\00\00\06\00\00\00\00\00\00\00\06\00\00\00\00\00\00\00\06\00\00\00\00\00\00\00\06\00\00\00\00\00\00\00\06\00\00\00\00\00\00\00\06\00\00\00\00\00\00\00\06\00\00\00\00\00\00\00\06\00\00\00\00\00\00\00\06\00\00\00\00\00\00\00\06\00\00\00\00\00\00\00\06\00\00\00\00\00\00\00\06\00\00\00\00\00\00\00\06\00\00\00\00\00\00\00\06\00\00\00\00\00\00\00\06\00\00\00\00\00\00\00\06\00\00\00\00\00\00\00\06\00\00\00\00\00\00\00\06\00\00\00\00\00\00\00\06\00\00\00\00\00\00\00\06\00\00\00\00\00\00\00\06\00\00\00\00\00\00\00\06\00\00\00\00\00\00\00\06\00\00\00\00\00\00\00\06\00\00\00\00\00\00\00\06\00\00\00\00\00\00\00\06\00\00\00\00\00\00\00\06\00\00\00\00\00\00\00\06\00\00\00\00\00\00\00\06\00\00\00\00\00\00\00\06\00\00\00\00\00\00\00\06\00\00\00\00\00\00\00\06\00\00\00\00\00\00\00\06\00\00\00\00\00\00\00\06\00\00\00\00\00\00\00\06\00\00\00\00\00\00\00\06\00\00\00\00\00\00\00\06\00\00\00\00\00\00\00\06\00\00\00\00\00\00\00\06\00\00\00\00\00\00\00\06\00\00\00\00\00\00\00\06\00\00\00\00\00\00\00\06\00\00\00\00\00\00\00\06\00\00\00\00\00\00\00\06\00\00\00\00\00\00\00\06\00\00\00\00\00\00\00\06\00\00\00\00\00\00\00\06\00\00\00\00\00\00\00\06\00\00\00\00\00\00\00\06\00\00\00\00\00\00\00\06\00\00\00\00\00\00\00\06\00\00\00\00\00\00\00\06\00\00\00\00\00\00\00\06\00\00\00\00\00\00\00\06\00\00\00\00\00\00\00\06\00\00\00\00\00\00\00\06\00\00\00\00\00\00\00\06\00\00\00\00\00\00\00\06\00\00\00\00\00\00\00\06\00\00\00\00\00\00\00\06\00\00\00\00\00\00\00\06\00\00\00\00\00\00\00\06\00\00\00\00\00\00\00\06\00\00\00\00\00\00\00\07\00\00\00\00\00\00\00\07\00\00\00\00\00\00\00\07\00\00\00\00\00\00\00\07\00\00\00\00\00\00\00\07\00\00\00\00\00\00\00\07\00\00\00\00\00\00\00\07\00\00\00\00\00\00\00\07\00\00\00\00\00\00\00\07\00\00\00\00\00\00\00\07\00\00\00\00\00\00\00\07\00\00\00\00\00\00\00\07\00\00\00\00\00\00\00\07\00\00\00\00\00\00\00\07\00\00\00\00\00\00\00\07\00\00\00\00\00\00\00\07\00\00\00\00\00\00\00\07\00\00\00\00\00\00\00\07\00\00\00\00\00\00\00\07\00\00\00\00\00\00\00\07\00\00\00\00\00\00\00\07\00\00\00\00\00\00\00\07\00\00\00\00\00\00\00\07\00\00\00\00\00\00\00\07\00\00\00\00\00\00\00\07\00\00\00\00\00\00\00\07\00\00\00\00\00\00\00\07\00\00\00\00\00\00\00\07\00\00\00\00\00\00\00\07\00\00\00\00\00\00\00\07\00\00\00\00\00\00\00\07\00\00\00\00\00\00\00\07\00\00\00\00\00\00\00\07\00\00\00\00\00\00\00\07\00\00\00\00\00\00\00\07\00\00\00\00\00\00\00\07\00\00\00\00\00\00\00\07\00\00\00\00\00\00\00\07\00\00\00\00\00\00\00\07\00\00\00\00\00\00\00\07\00\00\00\00\00\00\00\07\00\00\00\00\00\00\00\07\00\00\00\00\00\00\00\07\00\00\00\00\00\00\00\07\00\00\00\00\00\00\00\07\00\00\00\00\00\00\00\07\00\00\00\00\00\00\00\07\00\00\00\00\00\00\00\07\00\00\00\00\00\00\00\07\00\00\00\00\00\00\00\07\00\00\00\00\00\00\00\07\00\00\00\00\00\00\00\07\00\00\00\00\00\00\00\07\00\00\00\00\00\00\00\07\00\00\00\00\00\00\00\07\00\00\00\00\00\00\00\07\00\00\00\00\00\00\00\07\00\00\00\00\00\00\00\07\00\00\00\00\00\00\00\07\00\00\00\00\00\00\00\07\00\00\00\00\00\00\00\07\00\00\00\00\00\00\00\07\00\00\00\00\00\00\00\07\00\00\00\00\00\00\00\07\00\00\00\00\00\00\00\07\00\00\00\00\00\00\00\07\00\00\00\00\00\00\00\07\00\00\00\00\00\00\00\07\00\00\00\00\00\00\00\07\00\00\00\00\00\00\00\07\00\00\00\00\00\00\00\07\00\00\00\00\00\00\00\07\00\00\00\00\00\00\00\07\00\00\00\00\00\00\00\07\00\00\00\00\00\00\00\07\00\00\00\00\00\00\00\07\00\00\00\00\00\00\00\07\00\00\00\00\00\00\00\07\00\00\00\00\00\00\00\07\00\00\00\00\00\00\00\07\00\00\00\00\00\00\00\07\00\00\00\00\00\00\00\07\00\00\00\00\00\00\00\07\00\00\00\00\00\00\00\07\00\00\00\00\00\00\00\07\00\00\00\00\00\00\00\07\00\00\00\00\00\00\00\07\00\00\00\00\00\00\00\07\00\00\00\00\00\00\00\07\00\00\00\00\00\00\00\07\00\00\00\00\00\00\00\07\00\00\00\00\00\00\00\07\00\00\00\00\00\00\00\07\00\00\00\00\00\00\00\07\00\00\00\00\00\00\00\07\00\00\00\00\00\00\00\07\00\00\00\00\00\00\00\07\00\00\00\00\00\00\00\07\00\00\00\00\00\00\00\07\00\00\00\00\00\00\00\07\00\00\00\00\00\00\00\07\00\00\00\00\00\00\00\07\00\00\00\00\00\00\00\07\00\00\00\00\00\00\00\07\00\00\00\00\00\00\00\07\00\00\00\00\00\00\00\07\00\00\00\00\00\00\00\07\00\00\00\00\00\00\00\07\00\00\00\00\00\00\00\07\00\00\00\00\00\00\00\07\00\00\00\00\00\00\00\07\00\00\00\00\00\00\00\07\00\00\00\00\00\00\00\07\00\00\00\00\00\00\00\07\00\00\00\00\00\00\00\07\00\00\00\00\00\00\00\07\00\00\00\00\00\00\00\07\00\00\00\00\00\00\00\07\00\00\00\00\00\00\00\07\00\00\00\00\00\00\00\07\00\00\00\00\00\00\00\07\00\00\00\00\00\00\00\07\00\00\00\00\00\00\00\07\00\00\00\00\00\00\00\07\00\00\00\00\00\00\00\07\00\00\00\00\00\00\00\07\00\00\00\00\00\00\00\07\00\00\00\00\00\00\00\07\00\00\00\00\00\00\00\07\00\00\00\00\00\00\00\07\00\00\00\00\00\00\00\07\00\00\00\00\00\00\00\07\00\00\00\00\00\00\00\07\00\00\00\00\00\00\00\07\00\00\00\00\00\00\00\07\00\00\00\00\00\00\00\07\00\00\00\00\00\00\00\07\00\00\00\00\00\00\00\07\00\00\00\00\00\00\00\07\00\00\00\00\00\00\00\07\00\00\00\00\00\00\00\07\00\00\00\00\00\00\00\07\00\00\00\00\00\00\00\07\00\00\00\00\00\00\00\07\00\00\00\00\00\00\00\07\00\00\00\00\00\00\00\07\00\00\00\00\00\00\00\07\00\00\00\00\00\00\00\07\00\00\00\00\00\00\00\07\00\00\00\00\00\00\00\07\00\00\00\00\00\00\00\07\00\00\00\00\00\00\00\07\00\00\00\00\00\00\00\07\00\00\00\00\00\00\00\07\00\00\00\00\00\00\00\07\00\00\00\00\00\00\00\07\00\00\00\00\00\00\00\07\00\00\00\00\00\00\00\07\00\00\00\00\00\00\00\07\00\00\00\00\00\00\00\07\00\00\00\00\00\00\00\07\00\00\00\00\00\00\00\07\00\00\00\00\00\00\00\07\00\00\00\00\00\00\00\07\00\00\00\00\00\00\00\07\00\00\00\00\00\00\00\07\00\00\00\00\00\00\00\07\00\00\00\00\00\00\00\07\00\00\00\00\00\00\00\07\00\00\00\00\00\00\00\07\00\00\00\00\00\00\00\07\00\00\00\00\00\00\00\07\00\00\00\00\00\00\00\07\00\00\00\00\00\00\00\07\00\00\00\00\00\00\00\07\00\00\00\00\00\00\00\07\00\00\00\00\00\00\00\07\00\00\00\00\00\00\00\07\00\00\00\00\00\00\00\07\00\00\00\00\00\00\00\07\00\00\00\00\00\00\00\07\00\00\00\00\00\00\00\07\00\00\00\00\00\00\00\07\00\00\00\00\00\00\00\07\00\00\00\00\00\00\00\07\00\00\00\00\00\00\00\07\00\00\00\00\00\00\00\07\00\00\00\00\00\00\00\07\00\00\00\00\00\00\00\07\00\00\00\00\00\00\00\07\00\00\00\00\00\00\00\07\00\00\00\00\00\00\00\07\00\00\00\00\00\00\00\07\00\00\00\00\00\00\00\07\00\00\00\00\00\00\00\07\00\00\00\00\00\00\00\07\00\00\00\00\00\00\00\07\00\00\00\00\00\00\00\07\00\00\00\00\00\00\00\07\00\00\00\00\00\00\00\07\00\00\00\00\00\00\00\07\00\00\00\00\00\00\00\07\00\00\00\00\00\00\00\07\00\00\00\00\00\00\00\07\00\00\00\00\00\00\00\07\00\00\00\00\00\00\00\07\00\00\00\00\00\00\00\07\00\00\00\00\00\00\00\07\00\00\00\00\00\00\00\07\00\00\00\00\00\00\00\07\00\00\00\00\00\00\00\07\00\00\00\00\00\00\00\07\00\00\00\00\00\00\00\07\00\00\00\00\00\00\00\07\00\00\00\00\00\00\00\07\00\00\00\00\00\00\00\07\00\00\00\00\00\00\00\07\00\00\00\00\00\00\00\07\00\00\00\00\00\00\00\07\00\00\00\00\00\00\00\07\00\00\00\00\00\00\00\07\00\00\00\00\00\00\00\07\00\00\00\00\00\00\00\07\00\00\00\00\00\00\00\07\00\00\00\00\00\00\00\07\00\00\00\00\00\00\00\07\00\00\00\00\00\00\00\07\00\00\00\00\00\00\00\07\00\00\00\00\00\00\00\07\00\00\00\00\00\00\00\07\00\00\00\00\00\00\00\07\00\00\00\00\00\00\00\07\00\00\00\00\00\00\00\07\00\00\00\00\00\00\00\07\00\00\00\00\00\00\00\07\00\00\00\00\00\00\00\07\00\00\00\00\00\00\00\07\00\00\00\00\00\00\00\07\00\00\00\00\00\00\00\07\00\00\00\00\00\00\00\07\00\00\00\00\00\00\00\07\00\00\00\00\00\00\00\07\00\00\00\00\00\00\00\07\00\00\00\00\00\00\00\07\00\00\00\00\00\00\00\07\00\00\00\00\00\00\00\07\00\00\00\00\00\00\00\07\00\00\00\00\00\00\00\07\00\00\00\00\00\00\00\07\00\00\00\00\00\00\00\07\00\00\00\00\00\00\00\07\00\00\00\00\00\00\00\07\00\00\00\00\00\00\00\07\00\00\00\00\00\00\00\07\00\00\00\00\00\00\00\07\00\00\00\00\00\00\00\07\00\00\00\00\00\00\00\07\00\00\00\00\00\00\00\07\00\00\00\00\00\00\00\07\00\00\00\00\00\00\00\07\00\00\00\00\00\00\00\07\00\00\00\00\00\00\00\07\00\00\00\00\00\00\00\07\00\00\00\00\00\00\00\07\00\00\00\00\00\00\00\07\00\00\00\00\00\00\00\07\00\00\00\00\00\00\00\07\00\00\00\00\00\00\00\07\00\00\00\00\00\00\00\07\00\00\00\00\00\00\00\07\00\00\00\00\00\00\00\07\00\00\00\00\00\00\00\07\00\00\00\00\00\00\00\07\00\00\00\00\00\00\00\07\00\00\00\00\00\00\00\07\00\00\00\00\00\00\00\07\00\00\00\00\00\00\00\07\00\00\00\00\00\00\00\07\00\00\00\00\00\00\00\07\00\00\00\00\00\00\00\07\00\00\00\00\00\00\00\07\00\00\00\00\00\00\00\07\00\00\00\00\00\00\00\07\00\00\00\00\00\00\00\07\00\00\00\00\00\00\00\07\00\00\00\00\00\00\00\07\00\00\00\00\00\00\00\07\00\00\00\00\00\00\00\07\00\00\00\00\00\00\00\07\00\00\00\00\00\00\00\07\00\00\00\00\00\00\00\07\00\00\00\00\00\00\00\07\00\00\00\00\00\00\00\07\00\00\00\00\00\00\00\07\00\00\00\00\00\00\00\07\00\00\00\00\00\00\00\07\00\00\00\00\00\00\00\07\00\00\00\00\00\00\00\07\00\00\00\00\00\00\00\07\00\00\00\00\00\00\00\07\00\00\00\00\00\00\00\07\00\00\00\00\00\00\00\07\00\00\00\00\00\00\00\07\00\00\00\00\00\00\00\07\00\00\00\00\00\00\00\07\00\00\00\00\00\00\00\07\00\00\00\00\00\00\00\07\00\00\00\00\00\00\00\07\00\00\00\00\00\00\00\07\00\00\00\00\00\00\00\07\00\00\00\00\00\00\00\07\00\00\00\00\00\00\00\07\00\00\00\00\00\00\00\07\00\00\00\00\00\00\00\07\00\00\00\00\00\00\00\07\00\00\00\00\00\00\00\07\00\00\00\00\00\00\00\07\00\00\00\00\00\00\00\07\00\00\00\00\00\00\00\07\00\00\00\00\00\00\00\07\00\00\00\00\00\00\00\07\00\00\00\00\00\00\00\07\00\00\00\00\00\00\00\07\00\00\00\00\00\00\00\07\00\00\00\00\00\00\00\07\00\00\00\00\00\00\00\07\00\00\00\00\00\00\00\07\00\00\00\00\00\00\00\07\00\00\00\00\00\00\00\07\00\00\00\00\00\00\00\07\00\00\00\00\00\00\00\07\00\00\00\00\00\00\00\07\00\00\00\00\00\00\00\07\00\00\00\00\00\00\00\07\00\00\00\00\00\00\00\07\00\00\00\00\00\00\00\07\00\00\00\00\00\00\00\07\00\00\00\00\00\00\00\07\00\00\00\00\00\00\00\07\00\00\00\00\00\00\00\07\00\00\00\00\00\00\00\07\00\00\00\00\00\00\00\07\00\00\00\00\00\00\00\07\00\00\00\00\00\00\00\07\00\00\00\00\00\00\00\07\00\00\00\00\00\00\00\07\00\00\00\00\00\00\00\07\00\00\00\00\00\00\00\07\00\00\00\00\00\00\00\07\00\00\00\00\00\00\00\07\00\00\00\00\00\00\00\07\00\00\00\00\00\00\00\07\00\00\00\00\00\00\00\07\00\00\00\00\00\00\00\07\00\00\00\00\00\00\00\07\00\00\00\00\00\00\00\07\00\00\00\00\00\00\00\07\00\00\00\00\00\00\00\07\00\00\00\00\00\00\00\07\00\00\00\00\00\00\00\07\00\00\00\00\00\00\00\07\00\00\00\00\00\00\00\07\00\00\00\00\00\00\00\07\00\00\00\00\00\00\00\07\00\00\00\00\00\00\00\07\00\00\00\00\00\00\00\07\00\00\00\00\00\00\00\07\00\00\00\00\00\00\00\07\00\00\00\00\00\00\00\07\00\00\00\00\00\00\00\07\00\00\00\00\00\00\00\07\00\00\00\00\00\00\00\07\00\00\00\00\00\00\00\07\00\00\00\00\00\00\00\07\00\00\00\00\00\00\00\07\00\00\00\00\00\00\00\07\00\00\00\00\00\00\00\07\00\00\00\00\00\00\00\07\00\00\00\00\00\00\00\07\00\00\00\00\00\00\00\07\00\00\00\00\00\00\00\07\00\00\00\00\00\00\00\07\00\00\00\00\00\00\00\07\00\00\00\00\00\00\00\07\00\00\00\00\00\00\00\07\00\00\00\00\00\00\00\07\00\00\00\00\00\00\00\07\00\00\00\00\00\00\00\07\00\00\00\00\00\00\00\07\00\00\00\00\00\00\00\07\00\00\00\00\00\00\00\07\00\00\00\00\00\00\00\07\00\00\00\00\00\00\00\07\00\00\00\00\00\00\00\07\00\00\00\00\00\00\00\07\00\00\00\00\00\00\00\07\00\00\00\00\00\00\00\07\00\00\00\00\00\00\00\07\00\00\00\00\00\00\00\07\00\00\00\00\00\00\00\07\00\00\00\00\00\00\00\07\00\00\00\00\00\00\00\07\00\00\00\00\00\00\00\07\00\00\00\00\00\00\00\07\00\00\00\00\00\00\00\07\00\00\00\00\00\00\00\07\00\00\00\00\00\00\00\07\00\00\00\00\00\00\00\07\00\00\00\00\00\00\00\07\00\00\00\00\00\00\00\07\00\00\00\00\00\00\00\07\00\00\00\00\00\00\00\07\00\00\00\00\00\00\00\07\00\00\00\00\00\00\00\07\00\00\00\00\00\00\00\07\00\00\00\00\00\00\00\07\00\00\00\00\00\00\00\07\00\00\00\00\00\00\00\07\00\00\00\00\00\00\00\07\00\00\00\00\00\00\00\07\00\00\00\00\00\00\00\07\00\00\00\00\00\00\00\07\00\00\00\00\00\00\00\07\00\00\00\00\00\00\00\07\00\00\00\00\00\00\00\07\00\00\00\00\00\00\00\07\00\00\00\00\00\00\00\07\00\00\00\00\00\00\00\07\00\00\00\00\00\00\00\07\00\00\00\00\00\00\00\07\00\00\00\00\00\00\00\07\00\00\00\00\00\00\00\07\00\00\00\00\00\00\00\07\00\00\00\00\00\00\00\07\00\00\00\00\00\00\00\07\00\00\00\00\00\00\00\07\00\00\00\00\00\00\00\07\00\00\00\00\00\00\00\07\00\00\00\00\00\00\00\07\00\00\00\00\00\00\00\07\00\00\00\00\00\00\00\07\00\00\00\00\00\00\00\07\00\00\00\00\00\00\00\07\00\00\00\00\00\00\00\07\00\00\00\00\00\00\00\07\00\00\00\00\00\00\00\07\00\00\00\00\00\00\00\07\00\00\00\00\00\00\00\07\00\00\00\00\00\00\00\07\00\00\00\00\00\00\00\07\00\00\00\00\00\00\00\07\00\00\00\00\00\00\00\07\00\00\00\00\00\00\00\07\00\00\00\00\00\00\00\07\00\00\00\00\00\00\00\07\00\00\00\00\00\00\00\07\00\00\00\00\00\00\00\07\00\00\00\00\00\00\00\07\00\00\00\00\00\00\00\07\00\00\00\00\00\00\00\07\00\00\00\00\00\00\00\07\00\00\00\00\00\00\00\07\00\00\00\00\00\00\00\07\00\00\00\00\00\00\00\07\00\00\00\00\00\00\00\07\00\00\00\00\00\00\00\07\00\00\00\00\00\00\00\07\00\00\00\00\00\00\00\07\00\00\00\00\00\00\00\07\00\00\00\00\00\00\00\07\00\00\00\00\00\00\00\07\00\00\00\00\00\00\00\07\00\00\00\00\00\00\00\07\00\00\00\00\00\00\00\07\00\00\00\00\00\00\00\07\00\00\00\00\00\00\00\07\00\00\00\00\00\00\00\07\00\00\00\00\00\00\00\07\00\00\00\00\00\00\00\07\00\00\00\00\00\00\00\07\00\00\00\00\00\00\00\07\00\00\00\00\00\00\00\07\00\00\00\00\00\00\00\07\00\00\00\00\00\00\00\07\00\00\00\00\00\00\00\07\00\00\00\00\00\00\00\07\00\00\00\00\00\00\00\07\00\00\00\00\00\00\00\07\00\00\00\00\00\00\00\07\00\00\00\00\00\00\00\07\00\00\00\00\00\00\00\07\00\00\00\00\00\00\00\07\00\00\00\00\00\00\00\07\00\00\00\00\00\00\00\07\00\00\00\00\00\00\00\07\00\00\00\00\00\00\00\07\00\00\00\00\00\00\00\07\00\00\00\00\00\00\00\07\00\00\00\00\00\00\00\07\00\00\00\00\00\00\00\07\00\00\00\00\00\00\00\07\00\00\00\00\00\00\00\07\00\00\00\00\00\00\00\07\00\00\00\00\00\00\00\07\00\00\00\00\00\00\00\07\00\00\00\00\00\00\00\07\00\00\00\00\00\00\00\07\00\00\00\00\00\00\00\07\00\00\00\00\00\00\00\07\00\00\00\00\00\00\00\07\00\00\00\00\00\00\00\07\00\00\00\00\00\00\00\07\00\00\00\00\00\00\00\07\00\00\00\00\00\00\00\07\00\00\00\00\00\00\00\07\00\00\00\00\00\00\00\07\00\00\00\00\00\00\00\07\00\00\00\00\00\00\00\07\00\00\00\00\00\00\00\07\00\00\00\00\00\00\00\07\00\00\00\00\00\00\00\07\00\00\00\00\00\00\00\07\00\00\00\00\00\00\00\07\00\00\00\00\00\00\00\07\00\00\00\00\00\00\00\07\00\00\00\00\00\00\00\07\00\00\00\00\00\00\00\07\00\00\00\00\00\00\00\07\00\00\00\00\00\00\00\07\00\00\00\00\00\00\00\07\00\00\00\00\00\00\00\07\00\00\00\00\00\00\00\07\00\00\00\00\00\00\00\07\00\00\00\00\00\00\00\07\00\00\00\00\00\00\00\07\00\00\00\00\00\00\00\07\00\00\00\00\00\00\00\07\00\00\00\00\00\00\00\07\00\00\00\00\00\00\00\07\00\00\00\00\00\00\00\07\00\00\00\00\00\00\00\07\00\00\00\00\00\00\00\07\00\00\00\00\00\00\00\07\00\00\00\00\00\00\00\07\00\00\00\00\00\00\00\07\00\00\00\00\00\00\00\07\00\00\00\00\00\00\00\07\00\00\00\00\00\00\00\07\00\00\00\00\00\00\00\07\00\00\00\00\00\00\00\07\00\00\00\00\00\00\00\07\00\00\00\00\00\00\00\07\00\00\00\00\00\00\00\07\00\00\00\00\00\00\00\07\00\00\00\00\00\00\00\07\00\00\00\00\00\00\00\07\00\00\00\00\00\00\00\07\00\00\00\00\00\00\00\07\00\00\00\00\00\00\00\07\00\00\00\00\00\00\00\07\00\00\00\00\00\00\00\07\00\00\00\00\00\00\00\07\00\00\00\00\00\00\00\07\00\00\00\00\00\00\00\07\00\00\00\00\00\00\00\07\00\00\00\00\00\00\00\07\00\00\00\00\00\00\00\07\00\00\00\00\00\00\00\07\00\00\00\00\00\00\00\07\00\00\00\00\00\00\00\07\00\00\00\00\00\00\00\07\00\00\00\00\00\00\00\07\00\00\00\00\00\00\00\07\00\00\00\00\00\00\00\07\00\00\00\00\00\00\00\07\00\00\00\00\00\00\00\07\00\00\00\00\00\00\00\07\00\00\00\00\00\00\00\07\00\00\00\00\00\00\00\07\00\00\00\00\00\00\00\07\00\00\00\00\00\00\00\07\00\00\00\00\00\00\00\07\00\00\00\00\00\00\00\07\00\00\00\00\00\00\00\07\00\00\00\00\00\00\00\07\00\00\00\00\00\00\00\07\00\00\00\00\00\00\00\07\00\00\00\00\00\00\00\07\00\00\00\00\00\00\00\07\00\00\00\00\00\00\00\07\00\00\00\00\00\00\00\07\00\00\00\00\00\00\00\07\00\00\00\00\00\00\00\07\00\00\00\00\00\00\00\07\00\00\00\00\00\00\00\07\00\00\00\00\00\00\00\07\00\00\00\00\00\00\00\07\00\00\00\00\00\00\00\07\00\00\00\00\00\00\00\07\00\00\00\00\00\00\00\07\00\00\00\00\00\00\00\07\00\00\00\00\00\00\00\07\00\00\00\00\00\00\00\07\00\00\00\00\00\00\00\07\00\00\00\00\00\00\00\07\00\00\00\00\00\00\00\07\00\00\00\00\00\00\00\07\00\00\00\00\00\00\00\07\00\00\00\00\00\00\00\07\00\00\00\00\00\00\00\07\00\00\00\00\00\00\00\07\00\00\00\00\00\00\00\07\00\00\00\00\00\00\00\07\00\00\00\00\00\00\00\07\00\00\00\00\00\00\00\07\00\00\00\00\00\00\00\07\00\00\00\00\00\00\00\07\00\00\00\00\00\00\00\07\00\00\00\00\00\00\00\07\00\00\00\00\00\00\00\07\00\00\00\00\00\00\00\07\00\00\00\00\00\00\00\07\00\00\00\00\00\00\00\07\00\00\00\00\00\00\00\07\00\00\00\00\00\00\00\07\00\00\00\00\00\00\00\07\00\00\00\00\00\00\00\07\00\00\00\00\00\00\00\07\00\00\00\00\00\00\00\07\00\00\00\00\00\00\00\07\00\00\00\00\00\00\00\07\00\00\00\00\00\00\00\07\00\00\00\00\00\00\00\07\00\00\00\00\00\00\00\07\00\00\00\00\00\00\00\07\00\00\00\00\00\00\00\07\00\00\00\00\00\00\00\07\00\00\00\00\00\00\00\07\00\00\00\00\00\00\00\07\00\00\00\00\00\00\00\07\00\00\00\00\00\00\00\07\00\00\00\00\00\00\00\07\00\00\00\00\00\00\00\07\00\00\00\00\00\00\00\07\00\00\00\00\00\00\00\07\00\00\00\00\00\00\00\07\00\00\00\00\00\00\00\07\00\00\00\00\00\00\00\07\00\00\00\00\00\00\00\07\00\00\00\00\00\00\00\07\00\00\00\00\00\00\00\07\00\00\00\00\00\00\00\07\00\00\00\00\00\00\00\07\00\00\00\00\00\00\00\07\00\00\00\00\00\00\00\07\00\00\00\00\00\00\00\07\00\00\00\00\00\00\00\07\00\00\00\00\00\00\00\07\00\00\00\00\00\00\00\07\00\00\00\00\00\00\00\07\00\00\00\00\00\00\00\07\00\00\00\00\00\00\00\07\00\00\00\00\00\00\00\07\00\00\00\00\00\00\00\07\00\00\00\00\00\00\00\07\00\00\00\00\00\00\00\07\00\00\00\00\00\00\00\07\00\00\00\00\00\00\00\07\00\00\00\00\00\00\00\07\00\00\00\00\00\00\00\07\00\00\00\00\00\00\00\07\00\00\00\00\00\00\00\07\00\00\00\00\00\00\00\07\00\00\00\00\00\00\00\07\00\00\00\00\00\00\00\07\00\00\00\00\00\00\00\07\00\00\00\00\00\00\00\07\00\00\00\00\00\00\00\07\00\00\00\00\00\00\00\07\00\00\00\00\00\00\00\07\00\00\00\00\00\00\00\07\00\00\00\00\00\00\00\07\00\00\00\00\00\00\00\07\00\00\00\00\00\00\00\07\00\00\00\00\00\00\00\07\00\00\00\00\00\00\00\07\00\00\00\00\00\00\00\07\00\00\00\00\00\00\00\07\00\00\00\00\00\00\00\07\00\00\00\00\00\00\00\07\00\00\00\00\00\00\00\07\00\00\00\00\00\00\00\07\00\00\00\00\00\00\00\07\00\00\00\00\00\00\00\07\00\00\00\00\00\00\00\07\00\00\00\00\00\00\00\07\00\00\00\00\00\00\00\07\00\00\00\00\00\00\00\07\00\00\00\00\00\00\00\07\00\00\00\00\00\00\00\07\00\00\00\00\00\00\00\07\00\00\00\00\00\00\00\07\00\00\00\00\00\00\00\07\00\00\00\00\00\00\00\07\00\00\00\00\00\00\00\07\00\00\00\00\00\00\00\07\00\00\00\00\00\00\00\07\00\00\00\00\00\00\00\07\00\00\00\00\00\00\00\07\00\00\00\00\00\00\00\07\00\00\00\00\00\00\00\07\00\00\00\00\00\00\00\07\00\00\00\00\00\00\00\07\00\00\00\00\00\00\00\07\00\00\00\00\00\00\00\07\00\00\00\00\00\00\00\07\00\00\00\00\00\00\00\07\00\00\00\00\00\00\00\07\00\00\00\00\00\00\00\07\00\00\00\00\00\00\00\07\00\00\00\00\00\00\00\07\00\00\00\00\00\00\00\07\00\00\00\00\00\00\00\07\00\00\00\00\00\00\00\07\00\00\00\00\00\00\00\07\00\00\00\00\00\00\00\07\00\00\00\00\00\00\00\07\00\00\00\00\00\00\00\07\00\00\00\00\00\00\00\07\00\00\00\00\00\00\00\07\00\00\00\00\00\00\00\07\00\00\00\00\00\00\00\07\00\00\00\00\00\00\00\07\00\00\00\00\00\00\00\07\00\00\00\00\00\00\00\07\00\00\00\00\00\00\00\07\00\00\00\00\00\00\00\07\00\00\00\00\00\00\00\07\00\00\00\00\00\00\00\07\00\00\00\00\00\00\00\07\00\00\00\00\00\00\00\07\00\00\00\00\00\00\00\07\00\00\00\00\00\00\00\07\00\00\00\00\00\00\00\07\00\00\00\00\00\00\00\07\00\00\00\00\00\00\00\07\00\00\00\00\00\00\00\07\00\00\00\00\00\00\00\07\00\00\00\00\00\00\00\07\00\00\00\00\00\00\00\07\00\00\00\00\00\00\00\07\00\00\00\00\00\00\00\07\00\00\00\00\00\00\00\07\00\00\00\00\00\00\00\07\00\00\00\00\00\00\00\07\00\00\00\00\00\00\00\07\00\00\00\00\00\00\00\07\00\00\00\00\00\00\00\07\00\00\00\00\00\00\00\07\00\00\00\00\00\00\00\07\00\00\00\00\00\00\00\07\00\00\00\00\00\00\00\07\00\00\00\00\00\00\00\07\00\00\00\00\00\00\00\07\00\00\00\00\00\00\00\07\00\00\00\00\00\00\00\07\00\00\00\00\00\00\00\07\00\00\00\00\00\00\00\07\00\00\00\00\00\00\00\07\00\00\00\00\00\00\00\07\00\00\00\00\00\00\00\07\00\00\00\00\00\00\00\07\00\00\00\00\00\00\00\07\00\00\00\00\00\00\00\07\00\00\00\00\00\00\00\07\00\00\00\00\00\00\00\07\00\00\00\00\00\00\00\07\00\00\00\00\00\00\00\07\00\00\00\00\00\00\00\07\00\00\00\00\00\00\00\07\00\00\00\00\00\00\00\07\00\00\00\00\00\00\00\07\00\00\00\00\00\00\00\07\00\00\00\00\00\00\00\07\00\00\00\00\00\00\00\07\00\00\00\00\00\00\00\07\00\00\00\00\00\00\00\07\00\00\00\00\00\00\00\07\00\00\00\00\00\00\00\07\00\00\00\00\00\00\00\07\00\00\00\00\00\00\00\07\00\00\00\00\00\00\00\07\00\00\00\00\00\00\00\07\00\00\00\00\00\00\00\07\00\00\00\00\00\00\00\07\00\00\00\00\00\00\00\07\00\00\00\00\00\00\00\07\00\00\00\00\00\00\00\07\00\00\00\00\00\00\00\07\00\00\00\00\00\00\00\07\00\00\00\00\00\00\00\07\00\00\00\00\00\00\00\07\00\00\00\00\00\00\00\07\00\00\00\00\00\00\00\07\00\00\00\00\00\00\00\07\00\00\00\00\00\00\00\07\00\00\00\00\00\00\00\07\00\00\00\00\00\00\00\07\00\00\00\00\00\00\00\07\00\00\00\00\00\00\00\07\00\00\00\00\00\00\00\07\00\00\00\00\00\00\00\07\00\00\00\00\00\00\00\07\00\00\00\00\00\00\00\07\00\00\00\00\00\00\00\07\00\00\00\00\00\00\00\07\00\00\00\00\00\00\00\07\00\00\00\00\00\00\00\07\00\00\00\00\00\00\00\07\00\00\00\00\00\00\00\07\00\00\00\00\00\00\00\07\00\00\00\00\00\00\00\07\00\00\00\00\00\00\00\07\00\00\00\00\00\00\00\07\00\00\00\00\00\00\00\07\00\00\00\00\00\00\00\07\00\00\00\00\00\00\00\07\00\00\00\00\00\00\00\07\00\00\00\00\00\00\00\07\00\00\00\00\00\00\00\07\00\00\00\00\00\00\00\07\00\00\00\00\00\00\00\07\00\00\00\00\00\00\00\07\00\00\00\00\00\00\00\07\00\00\00\00\00\00\00\07\00\00\00\00\00\00\00\07\00\00\00\00\00\00\00\07\00\00\00\00\00\00\00\07\00\00\00\00\00\00\00\07\00\00\00\00\00\00\00\07\00\00\00\00\00\00\00\07\00\00\00\00\00\00\00\07\00\00\00\00\00\00\00\07\00\00\00\00\00\00\00\07\00\00\00\00\00\00\00\07\00\00\00\00\00\00\00\07\00\00\00\00\00\00\00\07\00\00\00\00\00\00\00\07\00\00\00\00\00\00\00\07\00\00\00\00\00\00\00\07\00\00\00\00\00\00\00\07\00\00\00\00\00\00\00\07\00\00\00\00\00\00\00\07\00\00\00\00\00\00\00\07\00\00\00\00\00\00\00\07\00\00\00\00\00\00\00\07\00\00\00\00\00\00\00\07\00\00\00\00\00\00\00\07\00\00\00\00\00\00\00\07\00\00\00\00\00\00\00\07\00\00\00\00\00\00\00\07\00\00\00\00\00\00\00\07\00\00\00\00\00\00\00\07\00\00\00\00\00\00\00\07\00\00\00\00\00\00\00\07\00\00\00\00\00\00\00\07\00\00\00\00\00\00\00\07\00\00\00\00\00\00\00\07\00\00\00\00\00\00\00\07\00\00\00\00\00\00\00\07\00\00\00\00\00\00\00\07\00\00\00\00\00\00\00\07\00\00\00\00\00\00\00\07\00\00\00\00\00\00\00\07\00\00\00\00\00\00\00\07\00\00\00\00\00\00\00\07\00\00\00\00\00\00\00\07\00\00\00\00\00\00\00\07\00\00\00\00\00\00\00\07\00\00\00\00\00\00\00\07\00\00\00\00\00\00\00\07\00\00\00\00\00\00\00\07\00\00\00\00\00\00\00\07\00\00\00\00\00\00\00\07\00\00\00\00\00\00\00\07\00\00\00\00\00\00\00\07\00\00\00\00\00\00\00\07\00\00\00\00\00\00\00\07\00\00\00\00\00\00\00\07\00\00\00\00\00\00\00\07\00\00\00\00\00\00\00\07\00\00\00\00\00\00\00\07\00\00\00\00\00\00\00\07\00\00\00\00\00\00\00\07\00\00\00\00\00\00\00\07\00\00\00\00\00\00\00\07\00\00\00\00\00\00\00\07\00\00\00\00\00\00\00\07\00\00\00\00\00\00\00\07\00\00\00\00\00\00\00\07\00\00\00\00\00\00\00\07\00\00\00\00\00\00\00\07\00\00\00\00\00\00\00\07\00\00\00\00\00\00\00\07\00\00\00\00\00\00\00\07\00\00\00\00\00\00\00\07\00\00\00\00\00\00\00\07\00\00\00\00\00\00\00\07\00\00\00\00\00\00\00\07\00\00\00\00\00\00\00\07\00\00\00\00\00\00\00\07\00\00\00\00\00\00\00\07\00\00\00\00\00\00\00\07\00\00\00\00\00\00\00\07\00\00\00\00\00\00\00\07\00\00\00\00\00\00\00\07\00\00\00\00\00\00\00\07\00\00\00\00\00\00\00\07\00\00\00\00\00\00\00\07\00\00\00\00\00\00\00\07\00\00\00\00\00\00\00\07\00\00\00\00\00\00\00\07\00\00\00\00\00\00\00\07\00\00\00\00\00\00\00\07\00\00\00\00\00\00\00\07\00\00\00\00\00\00\00\07\00\00\00\00\00\00\00\07\00\00\00\00\00\00\00\07\00\00\00\00\00\00\00\07\00\00\00\00\00\00\00\07\00\00\00\00\00\00\00\07\00\00\00\00\00\00\00\07\00\00\00\00\00\00\00\07\00\00\00\00\00\00\00\07\00\00\00\00\00\00\00\07\00\00\00\00\00\00\00\07\00\00\00\00\00\00\00\07\00\00\00\00\00\00\00\07\00\00\00\00\00\00\00\07\00\00\00\00\00\00\00\07\00\00\00\00\00\00\00\07\00\00\00\00\00\00\00\07\00\00\00\00\00\00\00\07\00\00\00\00\00\00\00\07\00\00\00\00\00\00\00\07\00\00\00\00\00\00\00\07\00\00\00\00\00\00\00\07\00\00\00\00\00\00\00\07\00\00\00\00\00\00\00\07\00\00\00\00\00\00\00\07\00\00\00\00\00\00\00\07\00\00\00\00\00\00\00\07\00\00\00\00\00\00\00\07\00\00\00\00\00\00\00\07\00\00\00\00\00\00\00\07\00\00\00\00\00\00\00\07\00\00\00\00\00\00\00\07\00\00\00\00\00\00\00\07\00\00\00\00\00\00\00\07\00\00\00\00\00\00\00\07\00\00\00\00\00\00\00\07\00\00\00\00\00\00\00\07\00\00\00\00\00\00\00\07\00\00\00\00\00\00\00\07\00\00\00\00\00\00\00\07\00\00\00\00\00\00\00\07\00\00\00\00\00\00\00\07\00\00\00\00\00\00\00\07\00\00\00\00\00\00\00\07\00\00\00\00\00\00\00\07\00\00\00\00\00\00\00\07\00\00\00\00\00\00\00\07\00\00\00\00\00\00\00\07\00\00\00\00\00\00\00\07\00\00\00\00\00\00\00\07\00\00\00\00\00\00\00\07\00\00\00\00\00\00\00\07\00\00\00\00\00\00\00\07\00\00\00\00\00\00\00\07\00\00\00\00\00\00\00\07\00\00\00\00\00\00\00\07\00\00\00\00\00\00\00\07\00\00\00\00\00\00\00\07\00\00\00\00\00\00\00\07\00\00\00\00\00\00\00\07\00\00\00\00\00\00\00\07\00\00\00\00\00\00\00\07\00\00\00\00\00\00\00\07\00\00\00\00\00\00\00\07\00\00\00\00\00\00\00\07\00\00\00\00\00\00\00\07\00\00\00\00\00\00\00\07\00\00\00\00\00\00\00\07\00\00\00\00\00\00\00\07\00\00\00\00\00\00\00\07\00\00\00\00\00\00\00\07\00\00\00\00\00\00\00\07\00\00\00\00\00\00\00\07\00\00\00\00\00\00\00\07\00\00\00\00\00\00\00\07\00\00\00\00\00\00\00\07\00\00\00\00\00\00\00\07\00\00\00\00\00\00\00\07\00\00\00\00\00\00\00\07\00\00\00\00\00\00\00\07\00\00\00\00\00\00\00\07\00\00\00\00\00\00\00\07\00\00\00\00\00\00\00\07\00\00\00\00\00\00\00\07\00\00\00\00\00\00\00\07\00\00\00\00\00\00\00\07\00\00\00\00\00\00\00\07\00\00\00\00\00\00\00\07\00\00\00\00\00\00\00\07\00\00\00\00\00\00\00\07\00\00\00\00\00\00\00\07\00\00\00\00\00\00\00\07\00\00\00\00\00\00\00\07\00\00\00\00\00\00\00\07\00\00\00\00\00\00\00\07\00\00\00\00\00\00\00\07\00\00\00\00\00\00\00\07\00\00\00\00\00\00\00\07\00\00\00\00\00\00\00\07\00\00\00\00\00\00\00" }>, align 8
@1 = private unnamed_addr constant <{ i8*, [8 x i8] }> <{ i8* getelementptr inbounds (<{ [16392 x i8] }>, <{ [16392 x i8] }>* @alloc15, i32 0, i32 0, i32 0), [8 x i8] c"\01\08\00\00\00\00\00\00" }>, align 8
@alloc76 = private unnamed_addr constant <{ i8*, [16 x i8] }> <{ i8* getelementptr inbounds (<{ [55 x i8] }>, <{ [55 x i8] }>* @alloc75, i32 0, i32 0, i32 0), [16 x i8] c"7\00\00\00\00\00\00\00*\00\00\00\0C\00\00\00" }>, align 8
@_ZN17OOMGuardAllocator11MyblocksNum17hdc597d1ff9b698dfE = global <{ [64 x i8] }> zeroinitializer, align 8
@_ZN17OOMGuardAllocator7MyPages17h88e9f62e421a8614E = global <{ [144 x i8] }> <{ [144 x i8] c"\00\00\00\00\00\00\00\00\10\00\00\00\00\00\00\00\00\00\00\00\00\00\00\00 \00\00\00\00\00\00\00\00\00\00\00\00\00\00\00@\00\00\00\00\00\00\00\00\00\00\00\00\00\00\00\80\00\00\00\00\00\00\00\00\00\00\00\00\00\00\00\00\01\00\00\00\00\00\00\00\00\00\00\00\00\00\00\00\02\00\00\00\00\00\00\00\00\00\00\00\00\00\00\00\04\00\00\00\00\00\00\00\00\00\00\00\00\00\00\00\08\00\00\00\00\00\00\00\00\00\00\00\00\00\00\01\08\00\00\00\00\00\00" }>, align 8

; OOMGuardAllocator::cal_tools::decal_position
; Function Attrs: nonlazybind uwtable
define void @_ZN17OOMGuardAllocator9cal_tools14decal_position17h1bc50b2f454bb269E({ i64, i64, i64 }* noalias nocapture sret({ i64, i64, i64 }) dereferenceable(24) %0, i64 %i, i64 %size_class) unnamed_addr #0 {
start:
  %j = alloca i64, align 8
  %pos = alloca i64, align 8
  store i64 0, i64* %pos, align 8
  %1 = udiv i64 %i, 64
  store i64 %1, i64* %pos, align 8
  store i64 %i, i64* %j, align 8
  %_6 = load i64, i64* %j, align 8
  %_8 = load i64, i64* %pos, align 8
  %2 = call { i64, i1 } @llvm.umul.with.overflow.i64(i64 %_8, i64 64)
  %_9.0 = extractvalue { i64, i1 } %2, 0
  %_9.1 = extractvalue { i64, i1 } %2, 1
  %3 = call i1 @llvm.expect.i1(i1 %_9.1, i1 false)
  br i1 %3, label %panic, label %bb1

bb1:                                              ; preds = %start
  %4 = call { i64, i1 } @llvm.usub.with.overflow.i64(i64 %_6, i64 %_9.0)
  %_10.0 = extractvalue { i64, i1 } %4, 0
  %_10.1 = extractvalue { i64, i1 } %4, 1
  %5 = call i1 @llvm.expect.i1(i1 %_10.1, i1 false)
  br i1 %5, label %panic1, label %bb2

panic:                                            ; preds = %start
; call core::panicking::panic
  call void @_ZN4core9panicking5panic17hac91d6d33ac66361E([0 x i8]* nonnull align 1 bitcast ([33 x i8]* @str.0 to [0 x i8]*), i64 33, %"core::panic::location::Location"* align 8 dereferenceable(24) bitcast (<{ i8*, [16 x i8] }>* @alloc70 to %"core::panic::location::Location"*)) #4
  unreachable

bb2:                                              ; preds = %bb1
  store i64 %_10.0, i64* %j, align 8
  %_12.0 = load [0 x i64]*, [0 x i64]** getelementptr inbounds ({ [0 x i64]*, i64 }, { [0 x i64]*, i64 }* bitcast (<{ i8*, [8 x i8] }>* @0 to { [0 x i64]*, i64 }*), i32 0, i32 0), align 8, !nonnull !2
  %_12.1 = load i64, i64* getelementptr inbounds ({ [0 x i64]*, i64 }, { [0 x i64]*, i64 }* bitcast (<{ i8*, [8 x i8] }>* @0 to { [0 x i64]*, i64 }*), i32 0, i32 1), align 8
  %_13 = load i64, i64* %j, align 8
  %_15 = icmp ult i64 %_13, 64
  %6 = call i1 @llvm.expect.i1(i1 %_15, i1 true)
  br i1 %6, label %bb3, label %panic2

panic1:                                           ; preds = %bb1
; call core::panicking::panic
  call void @_ZN4core9panicking5panic17hac91d6d33ac66361E([0 x i8]* nonnull align 1 bitcast ([33 x i8]* @str.1 to [0 x i8]*), i64 33, %"core::panic::location::Location"* align 8 dereferenceable(24) bitcast (<{ i8*, [16 x i8] }>* @alloc72 to %"core::panic::location::Location"*)) #4
  unreachable

bb3:                                              ; preds = %bb2
  %7 = getelementptr inbounds [0 x i64], [0 x i64]* %_12.0, i64 0, i64 %_13
  %ret = load i64, i64* %7, align 8
  %_16 = load i64, i64* %pos, align 8
  %_18 = load i64, i64* %j, align 8
  %8 = bitcast { i64, i64, i64 }* %0 to i64*
  store i64 %_16, i64* %8, align 8
  %9 = getelementptr inbounds { i64, i64, i64 }, { i64, i64, i64 }* %0, i32 0, i32 1
  store i64 %ret, i64* %9, align 8
  %10 = getelementptr inbounds { i64, i64, i64 }, { i64, i64, i64 }* %0, i32 0, i32 2
  store i64 %_18, i64* %10, align 8
  ret void

panic2:                                           ; preds = %bb2
; call core::panicking::panic_bounds_check
  call void @_ZN4core9panicking18panic_bounds_check17h2aafc6203614405fE(i64 %_13, i64 64, %"core::panic::location::Location"* align 8 dereferenceable(24) bitcast (<{ i8*, [16 x i8] }>* @alloc74 to %"core::panic::location::Location"*)) #4
  unreachable
}

; OOMGuardAllocator::cal_tools::find_block
; Function Attrs: nonlazybind uwtable
define i64 @_ZN17OOMGuardAllocator9cal_tools10find_block17h27b93b27ace7baf8E(i64 %i) unnamed_addr #0 {
start:
  %0 = alloca i64, align 8
  %_2 = icmp ugt i64 %i, 2048
  br i1 %_2, label %bb1, label %bb2

bb2:                                              ; preds = %start
  %_4.0 = load [0 x i64]*, [0 x i64]** getelementptr inbounds ({ [0 x i64]*, i64 }, { [0 x i64]*, i64 }* bitcast (<{ i8*, [8 x i8] }>* @1 to { [0 x i64]*, i64 }*), i32 0, i32 0), align 8, !nonnull !2
  %_4.1 = load i64, i64* getelementptr inbounds ({ [0 x i64]*, i64 }, { [0 x i64]*, i64 }* bitcast (<{ i8*, [8 x i8] }>* @1 to { [0 x i64]*, i64 }*), i32 0, i32 1), align 8
  %_7 = icmp ult i64 %i, 2049
  %1 = call i1 @llvm.expect.i1(i1 %_7, i1 true)
  br i1 %1, label %bb3, label %panic

bb1:                                              ; preds = %start
  store i64 8, i64* %0, align 8
  br label %bb4

bb4:                                              ; preds = %bb3, %bb1
  %2 = load i64, i64* %0, align 8
  ret i64 %2

bb3:                                              ; preds = %bb2
  %3 = getelementptr inbounds [0 x i64], [0 x i64]* %_4.0, i64 0, i64 %i
  %4 = load i64, i64* %3, align 8
  store i64 %4, i64* %0, align 8
  br label %bb4

panic:                                            ; preds = %bb2
; call core::panicking::panic_bounds_check
  call void @_ZN4core9panicking18panic_bounds_check17h2aafc6203614405fE(i64 %i, i64 2049, %"core::panic::location::Location"* align 8 dereferenceable(24) bitcast (<{ i8*, [16 x i8] }>* @alloc76 to %"core::panic::location::Location"*)) #4
  unreachable
}

; OOMGuardAllocator::my_wrap_end
; Function Attrs: nonlazybind uwtable
define void @_ZN17OOMGuardAllocator11my_wrap_end17h430d0f8a3548e3beE() unnamed_addr #0 {
start:
  ret void
}

; OOMGuardAllocator::PageListHead::new
; Function Attrs: nonlazybind uwtable
define { i64*, i64 } @_ZN17OOMGuardAllocator12PageListHead3new17h73d27e4627ea5cbeE(i64 %size_class) unnamed_addr #0 {
start:
  %0 = alloca { i64*, i64 }, align 8
  %1 = bitcast { i64*, i64 }* %0 to %MyPage**
  store %MyPage* null, %MyPage** %1, align 8
  %2 = getelementptr inbounds { i64*, i64 }, { i64*, i64 }* %0, i32 0, i32 1
  store i64 %size_class, i64* %2, align 8
  %3 = getelementptr inbounds { i64*, i64 }, { i64*, i64 }* %0, i32 0, i32 0
  %4 = load i64*, i64** %3, align 8
  %5 = getelementptr inbounds { i64*, i64 }, { i64*, i64 }* %0, i32 0, i32 1
  %6 = load i64, i64* %5, align 8
  %7 = insertvalue { i64*, i64 } undef, i64* %4, 0
  %8 = insertvalue { i64*, i64 } %7, i64 %6, 1
  ret { i64*, i64 } %8
}

; Function Attrs: nofree nosync nounwind readnone speculatable willreturn
declare { i64, i1 } @llvm.umul.with.overflow.i64(i64, i64) #1

; Function Attrs: nofree nosync nounwind readnone willreturn
declare i1 @llvm.expect.i1(i1, i1) #2

; core::panicking::panic
; Function Attrs: cold noinline noreturn nonlazybind uwtable
declare void @_ZN4core9panicking5panic17hac91d6d33ac66361E([0 x i8]* nonnull align 1, i64, %"core::panic::location::Location"* align 8 dereferenceable(24)) unnamed_addr #3

; Function Attrs: nofree nosync nounwind readnone speculatable willreturn
declare { i64, i1 } @llvm.usub.with.overflow.i64(i64, i64) #1

; core::panicking::panic_bounds_check
; Function Attrs: cold noinline noreturn nonlazybind uwtable
declare void @_ZN4core9panicking18panic_bounds_check17h2aafc6203614405fE(i64, i64, %"core::panic::location::Location"* align 8 dereferenceable(24)) unnamed_addr #3

attributes #0 = { nonlazybind uwtable "probe-stack"="__rust_probestack" "target-cpu"="x86-64" }
attributes #1 = { nofree nosync nounwind readnone speculatable willreturn }
attributes #2 = { nofree nosync nounwind readnone willreturn }
attributes #3 = { cold noinline noreturn nonlazybind uwtable "probe-stack"="__rust_probestack" "target-cpu"="x86-64" }
attributes #4 = { noreturn }

!llvm.module.flags = !{!0, !1}

!0 = !{i32 7, !"PIC Level", i32 2}
!1 = !{i32 2, !"RtLibUseGOT", i32 1}
!2 = !{}
