; ModuleID = '4dqtcuyss0mwvymi'
source_filename = "4dqtcuyss0mwvymi"
target datalayout = "e-m:e-p270:32:32-p271:32:32-p272:64:64-i64:64-f80:128-n8:16:32:64-S128"
target triple = "x86_64-unknown-linux-gnu"

%"std::thread::local::fast::Key<proc_macro::bridge::scoped_cell::ScopedCell<proc_macro::bridge::client::BridgeStateL>>" = type { %"std::thread::local::lazy::LazyKeyInner<proc_macro::bridge::scoped_cell::ScopedCell<proc_macro::bridge::client::BridgeStateL>>", i8, [7 x i8] }
%"std::thread::local::lazy::LazyKeyInner<proc_macro::bridge::scoped_cell::ScopedCell<proc_macro::bridge::client::BridgeStateL>>" = type { %"core::cell::UnsafeCell<core::option::Option<proc_macro::bridge::scoped_cell::ScopedCell<proc_macro::bridge::client::BridgeStateL>>>" }
%"core::cell::UnsafeCell<core::option::Option<proc_macro::bridge::scoped_cell::ScopedCell<proc_macro::bridge::client::BridgeStateL>>>" = type { %"core::option::Option<proc_macro::bridge::scoped_cell::ScopedCell<proc_macro::bridge::client::BridgeStateL>>" }
%"core::option::Option<proc_macro::bridge::scoped_cell::ScopedCell<proc_macro::bridge::client::BridgeStateL>>" = type { i64, [8 x i64] }
%"std::sync::once::Once" = type { %"core::marker::PhantomData<*const std::sync::once::Waiter>", %"core::sync::atomic::AtomicUsize" }
%"core::marker::PhantomData<*const std::sync::once::Waiter>" = type {}
%"core::sync::atomic::AtomicUsize" = type { i64 }
%"alloc::string::String" = type { %"alloc::vec::Vec<u8>" }
%"alloc::vec::Vec<u8>" = type { { i8*, i64 }, i64 }
%"core::panic::location::Location" = type { { [0 x i8]*, i64 }, i32, i32 }
%"proc_macro::bridge::buffer::Buffer<u8>" = type { i8*, i64, i64, void (%"proc_macro::bridge::buffer::Buffer<u8>"*, %"proc_macro::bridge::buffer::Buffer<u8>"*, i64)*, void (%"proc_macro::bridge::buffer::Buffer<u8>"*)* }
%"proc_macro::bridge::client::TokenStream" = type { i32 }
%"syn::punctuated::PrivateIter<syn::path::GenericArgument, syn::token::Comma>" = type { { i64*, i64* }, i64* }
%"syn::path::GenericArgument" = type { i64, [44 x i64] }
%"syn::token::Comma" = type { [1 x %"proc_macro2::Span"] }
%"proc_macro2::Span" = type { %"core::marker::PhantomData<proc_macro2::marker::ProcMacroAutoTraits>", %"proc_macro2::imp::Span" }
%"core::marker::PhantomData<proc_macro2::marker::ProcMacroAutoTraits>" = type {}
%"proc_macro2::imp::Span" = type { i32 }
%"alloc::vec::into_iter::IntoIter<&str>" = type { %"core::marker::PhantomData<&str>", %"alloc::alloc::Global", i64*, i64, { [0 x i8]*, i64 }*, { [0 x i8]*, i64 }* }
%"core::marker::PhantomData<&str>" = type {}
%"alloc::alloc::Global" = type {}
%"core::option::Option<usize>::Some" = type { [1 x i64], i64 }
%"proc_macro::bridge::scoped_cell::ScopedCell<proc_macro::bridge::client::BridgeStateL>" = type { %"core::cell::Cell<proc_macro::bridge::client::BridgeState>" }
%"core::cell::Cell<proc_macro::bridge::client::BridgeState>" = type { %"core::cell::UnsafeCell<proc_macro::bridge::client::BridgeState>" }
%"core::cell::UnsafeCell<proc_macro::bridge::client::BridgeState>" = type { %"proc_macro::bridge::client::BridgeState" }
%"proc_macro::bridge::client::BridgeState" = type { [56 x i8], i8, [7 x i8] }
%"core::option::Option<proc_macro::bridge::client::BridgeState>" = type { [56 x i8], i8, [7 x i8] }
%"proc_macro::bridge::scoped_cell::ScopedCell<T>::replace::PutBackOnDrop<proc_macro::bridge::client::BridgeStateL>" = type { %"proc_macro::bridge::scoped_cell::ScopedCell<proc_macro::bridge::client::BridgeStateL>"*, %"core::option::Option<proc_macro::bridge::client::BridgeState>" }
%"core::option::Option<proc_macro::bridge::client::BridgeState>::Some" = type { %"proc_macro::bridge::client::BridgeState" }
%"proc_macro::bridge::Bridge" = type { %"proc_macro::bridge::buffer::Buffer<u8>", { i64*, i8* }, i8, [7 x i8] }
%"[closure@proc_macro::bridge::client::run_client<(proc_macro::bridge::client::TokenStream, proc_macro::bridge::client::TokenStream), proc_macro::bridge::client::TokenStream, [closure@proc_macro::bridge::client::Client<fn(proc_macro::TokenStream, proc_macro::TokenStream) -> proc_macro::TokenStream>::expand2::run<fn(proc_macro::TokenStream, proc_macro::TokenStream) -> proc_macro::TokenStream>::{closure#0}]>::{closure#0}]" = type { %"proc_macro::bridge::Bridge", %"proc_macro::bridge::buffer::Buffer<u8>"*, i64* }
%"core::panic::unwind_safe::AssertUnwindSafe<[closure@proc_macro::bridge::client::run_client<(proc_macro::bridge::client::TokenStream, proc_macro::bridge::client::TokenStream), proc_macro::bridge::client::TokenStream, [closure@proc_macro::bridge::client::Client<fn(proc_macro::TokenStream, proc_macro::TokenStream) -> proc_macro::TokenStream>::expand2::run<fn(proc_macro::TokenStream, proc_macro::TokenStream) -> proc_macro::TokenStream>::{closure#0}]>::{closure#0}]>" = type { %"[closure@proc_macro::bridge::client::run_client<(proc_macro::bridge::client::TokenStream, proc_macro::bridge::client::TokenStream), proc_macro::bridge::client::TokenStream, [closure@proc_macro::bridge::client::Client<fn(proc_macro::TokenStream, proc_macro::TokenStream) -> proc_macro::TokenStream>::expand2::run<fn(proc_macro::TokenStream, proc_macro::TokenStream) -> proc_macro::TokenStream>::{closure#0}]>::{closure#0}]" }
%"core::result::Result<(), proc_macro::bridge::rpc::PanicMessage>" = type { i64, [3 x i64] }
%"proc_macro::bridge::rpc::PanicMessage" = type { i64, [3 x i64] }
%"core::result::Result<(), proc_macro::bridge::rpc::PanicMessage>::Err" = type { %"proc_macro::bridge::rpc::PanicMessage" }
%"core::result::Result<proc_macro::bridge::client::TokenStream, ()>" = type { i32 }
%"core::result::Result<proc_macro::bridge::client::TokenStream, ()>::Ok" = type { %"proc_macro::bridge::client::TokenStream" }
%"proc_macro::TokenStream" = type { %"proc_macro::bridge::client::TokenStream" }
%"[closure@proc_macro::bridge::client::BridgeState::with<proc_macro::bridge::buffer::Buffer<u8>, [closure@proc_macro::bridge::client::<impl proc_macro::bridge::Bridge>::with<proc_macro::bridge::buffer::Buffer<u8>, [closure@proc_macro::bridge::client::run_client<(proc_macro::bridge::client::TokenStream, proc_macro::bridge::client::TokenStream), proc_macro::bridge::client::TokenStream, [closure@proc_macro::bridge::client::Client<fn(proc_macro::TokenStream, proc_macro::TokenStream) -> proc_macro::TokenStream>::expand2::run<fn(proc_macro::TokenStream, proc_macro::TokenStream) -> proc_macro::TokenStream>::{closure#0}]>::{closure#0}::{closure#0}::{closure#1}]>::{closure#0}]>::{closure#0}]" = type { %"[closure@proc_macro::bridge::client::<impl proc_macro::bridge::Bridge>::with<proc_macro::bridge::buffer::Buffer<u8>, [closure@proc_macro::bridge::client::run_client<(proc_macro::bridge::client::TokenStream, proc_macro::bridge::client::TokenStream), proc_macro::bridge::client::TokenStream, [closure@proc_macro::bridge::client::Client<fn(proc_macro::TokenStream, proc_macro::TokenStream) -> proc_macro::TokenStream>::expand2::run<fn(proc_macro::TokenStream, proc_macro::TokenStream) -> proc_macro::TokenStream>::{closure#0}]>::{closure#0}::{closure#0}::{closure#1}]>::{closure#0}]" }
%"[closure@proc_macro::bridge::client::<impl proc_macro::bridge::Bridge>::with<proc_macro::bridge::buffer::Buffer<u8>, [closure@proc_macro::bridge::client::run_client<(proc_macro::bridge::client::TokenStream, proc_macro::bridge::client::TokenStream), proc_macro::bridge::client::TokenStream, [closure@proc_macro::bridge::client::Client<fn(proc_macro::TokenStream, proc_macro::TokenStream) -> proc_macro::TokenStream>::expand2::run<fn(proc_macro::TokenStream, proc_macro::TokenStream) -> proc_macro::TokenStream>::{closure#0}]>::{closure#0}::{closure#0}::{closure#1}]>::{closure#0}]" = type { %"[closure@proc_macro::bridge::client::run_client<(proc_macro::bridge::client::TokenStream, proc_macro::bridge::client::TokenStream), proc_macro::bridge::client::TokenStream, [closure@proc_macro::bridge::client::Client<fn(proc_macro::TokenStream, proc_macro::TokenStream) -> proc_macro::TokenStream>::expand2::run<fn(proc_macro::TokenStream, proc_macro::TokenStream) -> proc_macro::TokenStream>::{closure#0}]>::{closure#0}::{closure#0}::{closure#1}]" }
%"[closure@proc_macro::bridge::client::run_client<(proc_macro::bridge::client::TokenStream, proc_macro::bridge::client::TokenStream), proc_macro::bridge::client::TokenStream, [closure@proc_macro::bridge::client::Client<fn(proc_macro::TokenStream, proc_macro::TokenStream) -> proc_macro::TokenStream>::expand2::run<fn(proc_macro::TokenStream, proc_macro::TokenStream) -> proc_macro::TokenStream>::{closure#0}]>::{closure#0}::{closure#0}::{closure#1}]" = type {}
%"[closure@proc_macro::bridge::client::BridgeState::with<proc_macro::bridge::buffer::Buffer<u8>, [closure@proc_macro::bridge::client::<impl proc_macro::bridge::Bridge>::with<proc_macro::bridge::buffer::Buffer<u8>, [closure@proc_macro::bridge::client::run_client<(proc_macro::bridge::client::TokenStream, proc_macro::bridge::client::TokenStream), proc_macro::bridge::client::TokenStream, [closure@proc_macro::bridge::client::Client<fn(proc_macro::TokenStream, proc_macro::TokenStream) -> proc_macro::TokenStream>::expand2::run<fn(proc_macro::TokenStream, proc_macro::TokenStream) -> proc_macro::TokenStream>::{closure#0}]>::{closure#0}::{closure#0}::{closure#1}]>::{closure#0}]>::{closure#0}::{closure#0}]" = type { %"[closure@proc_macro::bridge::client::<impl proc_macro::bridge::Bridge>::with<proc_macro::bridge::buffer::Buffer<u8>, [closure@proc_macro::bridge::client::run_client<(proc_macro::bridge::client::TokenStream, proc_macro::bridge::client::TokenStream), proc_macro::bridge::client::TokenStream, [closure@proc_macro::bridge::client::Client<fn(proc_macro::TokenStream, proc_macro::TokenStream) -> proc_macro::TokenStream>::expand2::run<fn(proc_macro::TokenStream, proc_macro::TokenStream) -> proc_macro::TokenStream>::{closure#0}]>::{closure#0}::{closure#0}::{closure#1}]>::{closure#0}]" }
%"proc_macro::bridge::client::BridgeState::Connected" = type { %"proc_macro::bridge::Bridge" }
%"[closure@proc_macro::bridge::client::<impl proc_macro::bridge::Bridge>::enter<(), [closure@proc_macro::bridge::client::run_client<(proc_macro::bridge::client::TokenStream, proc_macro::bridge::client::TokenStream), proc_macro::bridge::client::TokenStream, [closure@proc_macro::bridge::client::Client<fn(proc_macro::TokenStream, proc_macro::TokenStream) -> proc_macro::TokenStream>::expand2::run<fn(proc_macro::TokenStream, proc_macro::TokenStream) -> proc_macro::TokenStream>::{closure#0}]>::{closure#0}::{closure#0}]>::{closure#1}]" = type { %"proc_macro::bridge::Bridge", { i64*, i64* } }
%"[closure@proc_macro::bridge::client::<impl proc_macro::bridge::Bridge>::enter<(), [closure@proc_macro::bridge::client::run_client<(proc_macro::bridge::client::TokenStream, proc_macro::bridge::client::TokenStream), proc_macro::bridge::client::TokenStream, [closure@proc_macro::bridge::client::Client<fn(proc_macro::TokenStream, proc_macro::TokenStream) -> proc_macro::TokenStream>::expand2::run<fn(proc_macro::TokenStream, proc_macro::TokenStream) -> proc_macro::TokenStream>::{closure#0}]>::{closure#0}::{closure#0}]>::{closure#0}::{closure#0}]" = type { { {}*, [3 x i64]* }, i8, [7 x i8] }
%"core::panic::panic_info::PanicInfo" = type { { {}*, [3 x i64]* }, i64*, %"core::panic::location::Location"* }
%"alloc::vec::Vec<char>" = type { { i32*, i64 }, i64 }
%"alloc::vec::Vec<&str>" = type { { i64*, i64 }, i64 }
%"core::str::iter::Split<&str>" = type { %"core::str::iter::SplitInternal<&str>" }
%"core::str::iter::SplitInternal<&str>" = type { i64, i64, %"core::str::pattern::StrSearcher", i8, i8, [6 x i8] }
%"core::str::pattern::StrSearcher" = type { { [0 x i8]*, i64 }, { [0 x i8]*, i64 }, %"core::str::pattern::StrSearcherImpl" }
%"core::str::pattern::StrSearcherImpl" = type { i64, [8 x i64] }
%"core::str::iter::Split<char>" = type { %"core::str::iter::SplitInternal<char>" }
%"core::str::iter::SplitInternal<char>" = type { i64, i64, %"core::str::pattern::CharSearcher", i8, i8, [6 x i8] }
%"core::str::pattern::CharSearcher" = type { { [0 x i8]*, i64 }, i64, i64, i64, i32, [4 x i8] }
%"core::result::Result<(), std::thread::local::AccessError>::Err" = type { [1 x i8], %"std::thread::local::AccessError" }
%"std::thread::local::AccessError" = type {}
%"core::result::Result<bool, std::thread::local::AccessError>::Err" = type { %"std::thread::local::AccessError" }
%"core::result::Result<proc_macro::bridge::buffer::Buffer<u8>, std::thread::local::AccessError>" = type { [3 x i64], {}*, [1 x i64] }
%"core::result::Result<proc_macro::bridge::buffer::Buffer<u8>, std::thread::local::AccessError>::Err" = type { %"std::thread::local::AccessError" }
%"core::result::Result<alloc::string::String, std::io::error::Error>" = type { i64, [3 x i64] }
%"std::path::Path" = type { %"std::ffi::os_str::OsStr" }
%"std::ffi::os_str::OsStr" = type { %"std::sys::unix::os_str::Slice" }
%"std::sys::unix::os_str::Slice" = type { [0 x i8] }
%"core::result::Result<proc_macro::bridge::buffer::Buffer<u8>, std::thread::local::AccessError>::Ok" = type { %"proc_macro::bridge::buffer::Buffer<u8>" }
%"core::result::Result<(), std::thread::local::AccessError>::Ok" = type { [1 x i8], {} }
%"core::option::Option<proc_macro::bridge::scoped_cell::ScopedCell<proc_macro::bridge::client::BridgeStateL>>::Some" = type { [1 x i64], %"proc_macro::bridge::scoped_cell::ScopedCell<proc_macro::bridge::client::BridgeStateL>" }
%"core::mem::manually_drop::ManuallyDrop<core::panic::unwind_safe::AssertUnwindSafe<[closure@proc_macro::bridge::client::run_client<(proc_macro::bridge::client::TokenStream, proc_macro::bridge::client::TokenStream), proc_macro::bridge::client::TokenStream, [closure@proc_macro::bridge::client::Client<fn(proc_macro::TokenStream, proc_macro::TokenStream) -> proc_macro::TokenStream>::expand2::run<fn(proc_macro::TokenStream, proc_macro::TokenStream) -> proc_macro::TokenStream>::{closure#0}]>::{closure#0}]>>" = type { %"core::panic::unwind_safe::AssertUnwindSafe<[closure@proc_macro::bridge::client::run_client<(proc_macro::bridge::client::TokenStream, proc_macro::bridge::client::TokenStream), proc_macro::bridge::client::TokenStream, [closure@proc_macro::bridge::client::Client<fn(proc_macro::TokenStream, proc_macro::TokenStream) -> proc_macro::TokenStream>::expand2::run<fn(proc_macro::TokenStream, proc_macro::TokenStream) -> proc_macro::TokenStream>::{closure#0}]>::{closure#0}]>" }
%"std::panicking::r#try::Data<core::panic::unwind_safe::AssertUnwindSafe<[closure@proc_macro::bridge::client::run_client<(proc_macro::bridge::client::TokenStream, proc_macro::bridge::client::TokenStream), proc_macro::bridge::client::TokenStream, [closure@proc_macro::bridge::client::Client<fn(proc_macro::TokenStream, proc_macro::TokenStream) -> proc_macro::TokenStream>::expand2::run<fn(proc_macro::TokenStream, proc_macro::TokenStream) -> proc_macro::TokenStream>::{closure#0}]>::{closure#0}]>, ()>" = type { [10 x i64] }
%"core::result::Result<(), alloc::boxed::Box<dyn core::any::Any + core::marker::Send>>::Ok" = type { {} }
%"core::mem::manually_drop::ManuallyDrop<()>" = type { {} }
%"syn::punctuated::Punctuated<syn::path::GenericArgument, syn::token::Comma>" = type { %"alloc::vec::Vec<(syn::path::GenericArgument, syn::token::Comma)>", i64* }
%"alloc::vec::Vec<(syn::path::GenericArgument, syn::token::Comma)>" = type { { i64*, i64 }, i64 }
%"syn::punctuated::Punctuated<syn::generics::WherePredicate, syn::token::Comma>" = type { %"alloc::vec::Vec<(syn::generics::WherePredicate, syn::token::Comma)>", i64* }
%"alloc::vec::Vec<(syn::generics::WherePredicate, syn::token::Comma)>" = type { { i64*, i64 }, i64 }
%"syn::generics::WherePredicate" = type { i64, [77 x i64] }
%"syn::punctuated::Punctuated<syn::path::PathSegment, syn::token::Colon2>" = type { %"alloc::vec::Vec<(syn::path::PathSegment, syn::token::Colon2)>", i64* }
%"alloc::vec::Vec<(syn::path::PathSegment, syn::token::Colon2)>" = type { { i64*, i64 }, i64 }
%"proc_macro2::TokenStream" = type { %"core::marker::PhantomData<proc_macro2::marker::ProcMacroAutoTraits>", %"proc_macro2::imp::TokenStream" }
%"proc_macro2::imp::TokenStream" = type { i64, [4 x i64] }
%"syn::error::Error" = type { %"alloc::vec::Vec<syn::error::ErrorMessage>" }
%"alloc::vec::Vec<syn::error::ErrorMessage>" = type { { i64*, i64 }, i64 }
%"core::result::Result<syn::generics::WherePredicate, syn::error::Error>" = type { i64, [78 x i64] }
%"core::result::Result<syn::generics::WherePredicate, syn::error::Error>::Ok" = type { [1 x i64], %"syn::generics::WherePredicate" }
%"core::result::Result<syn::generics::WherePredicate, syn::error::Error>::Err" = type { [1 x i64], %"syn::error::Error" }
%"syn::ty::Type" = type { i32, [75 x i32] }
%"core::result::Result<syn::ty::Type, syn::error::Error>" = type { i64, [38 x i64] }
%"core::result::Result<syn::ty::Type, syn::error::Error>::Ok" = type { [1 x i64], %"syn::ty::Type" }
%"core::result::Result<syn::ty::Type, syn::error::Error>::Err" = type { [1 x i64], %"syn::error::Error" }
%"syn::expr::Expr" = type { i64, [34 x i64] }
%"core::result::Result<syn::expr::Expr, syn::error::Error>" = type { i64, [35 x i64] }
%"core::result::Result<syn::expr::Expr, syn::error::Error>::Ok" = type { [1 x i64], %"syn::expr::Expr" }
%"core::result::Result<syn::expr::Expr, syn::error::Error>::Err" = type { [1 x i64], %"syn::error::Error" }
%"syn::stmt::Stmt" = type { i32, [87 x i32] }
%"core::result::Result<syn::stmt::Stmt, syn::error::Error>" = type { i64, [44 x i64] }
%"core::result::Result<syn::stmt::Stmt, syn::error::Error>::Ok" = type { [1 x i64], %"syn::stmt::Stmt" }
%"core::result::Result<syn::stmt::Stmt, syn::error::Error>::Err" = type { [1 x i64], %"syn::error::Error" }
%"core::result::Result<syn::item::ItemFn, syn::error::Error>" = type { i64, [42 x i64] }
%"core::option::Option<proc_macro2::Span>" = type { i32, [1 x i32] }
%"core::result::Result<core::convert::Infallible, syn::error::Error>::Err" = type { %"syn::error::Error" }
%"core::result::Result<(), syn::error::Error>" = type { {}*, [2 x i64] }
%"core::ops::control_flow::ControlFlow<core::result::Result<core::convert::Infallible, syn::error::Error>>" = type { {}*, [2 x i64] }
%"core::ops::control_flow::ControlFlow<core::result::Result<core::convert::Infallible, syn::error::Error>, syn::ty::Type>" = type { i64, [38 x i64] }
%"syn::parse::ParseBuffer" = type { %"core::marker::PhantomData<syn::buffer::Cursor>", { i64*, i64* }, i64*, %"proc_macro2::Span", [1 x i32] }
%"core::marker::PhantomData<syn::buffer::Cursor>" = type {}
%"core::ops::control_flow::ControlFlow<core::result::Result<core::convert::Infallible, syn::error::Error>, syn::ty::Type>::Continue" = type { [1 x i64], %"syn::ty::Type" }
%"core::ops::control_flow::ControlFlow<core::result::Result<core::convert::Infallible, syn::error::Error>, syn::ty::Type>::Break" = type { [1 x i64], %"core::result::Result<core::convert::Infallible, syn::error::Error>::Err" }
%"core::ops::control_flow::ControlFlow<core::result::Result<core::convert::Infallible, syn::error::Error>>::Break" = type { %"core::result::Result<core::convert::Infallible, syn::error::Error>::Err" }
%"core::option::Option<proc_macro2::Span>::Some" = type { [1 x i32], %"proc_macro2::Span" }
%"core::ops::control_flow::ControlFlow<core::result::Result<core::convert::Infallible, syn::error::Error>, syn::generics::WherePredicate>" = type { i64, [78 x i64] }
%"core::ops::control_flow::ControlFlow<core::result::Result<core::convert::Infallible, syn::error::Error>, syn::generics::WherePredicate>::Continue" = type { [1 x i64], %"syn::generics::WherePredicate" }
%"core::ops::control_flow::ControlFlow<core::result::Result<core::convert::Infallible, syn::error::Error>, syn::generics::WherePredicate>::Break" = type { [1 x i64], %"core::result::Result<core::convert::Infallible, syn::error::Error>::Err" }
%"syn::item::ItemFn" = type { %"alloc::vec::Vec<syn::attr::Attribute>", %"syn::data::Visibility", %"syn::item::Signature", %"syn::stmt::Block"* }
%"alloc::vec::Vec<syn::attr::Attribute>" = type { { i64*, i64 }, i64 }
%"syn::data::Visibility" = type { i32, [7 x i32] }
%"syn::item::Signature" = type { %"core::option::Option<syn::ty::Abi>", %"proc_macro2::Ident", %"syn::generics::Generics", %"syn::punctuated::Punctuated<syn::item::FnArg, syn::token::Comma>", %"core::option::Option<syn::ty::Variadic>", %"syn::ty::ReturnType", %"core::option::Option<syn::token::Const>", %"core::option::Option<syn::token::Async>", %"core::option::Option<syn::token::Unsafe>", %"syn::token::Fn", %"syn::token::Paren" }
%"core::option::Option<syn::ty::Abi>" = type { i64, [2 x i64] }
%"proc_macro2::Ident" = type { %"core::marker::PhantomData<proc_macro2::marker::ProcMacroAutoTraits>", %"proc_macro2::imp::Ident" }
%"proc_macro2::imp::Ident" = type { i32, [9 x i32] }
%"syn::generics::Generics" = type { %"syn::punctuated::Punctuated<syn::generics::GenericParam, syn::token::Comma>", %"core::option::Option<syn::generics::WhereClause>", %"core::option::Option<syn::token::Lt>", %"core::option::Option<syn::token::Gt>" }
%"syn::punctuated::Punctuated<syn::generics::GenericParam, syn::token::Comma>" = type { %"alloc::vec::Vec<(syn::generics::GenericParam, syn::token::Comma)>", i64* }
%"alloc::vec::Vec<(syn::generics::GenericParam, syn::token::Comma)>" = type { { i64*, i64 }, i64 }
%"core::option::Option<syn::generics::WhereClause>" = type { {}*, [4 x i64] }
%"core::option::Option<syn::token::Lt>" = type { i32, [1 x i32] }
%"core::option::Option<syn::token::Gt>" = type { i32, [1 x i32] }
%"syn::punctuated::Punctuated<syn::item::FnArg, syn::token::Comma>" = type { %"alloc::vec::Vec<(syn::item::FnArg, syn::token::Comma)>", i64* }
%"alloc::vec::Vec<(syn::item::FnArg, syn::token::Comma)>" = type { { i64*, i64 }, i64 }
%"core::option::Option<syn::ty::Variadic>" = type { {}*, [4 x i64] }
%"syn::ty::ReturnType" = type { {}*, [1 x i64] }
%"core::option::Option<syn::token::Const>" = type { i32, [1 x i32] }
%"core::option::Option<syn::token::Async>" = type { i32, [1 x i32] }
%"core::option::Option<syn::token::Unsafe>" = type { i32, [1 x i32] }
%"syn::token::Fn" = type { %"proc_macro2::Span" }
%"syn::token::Paren" = type { %"proc_macro2::Span" }
%"syn::stmt::Block" = type { %"alloc::vec::Vec<syn::stmt::Stmt>", %"syn::token::Brace", [1 x i32] }
%"alloc::vec::Vec<syn::stmt::Stmt>" = type { { i64*, i64 }, i64 }
%"syn::token::Brace" = type { %"proc_macro2::Span" }
%"core::ops::control_flow::ControlFlow<core::result::Result<core::convert::Infallible, syn::error::Error>, syn::item::ItemFn>" = type { i64, [42 x i64] }
%"core::ops::control_flow::ControlFlow<core::result::Result<core::convert::Infallible, syn::error::Error>, syn::item::ItemFn>::Continue" = type { [1 x i64], %"syn::item::ItemFn" }
%"core::ops::control_flow::ControlFlow<core::result::Result<core::convert::Infallible, syn::error::Error>, syn::item::ItemFn>::Break" = type { [1 x i64], %"core::result::Result<core::convert::Infallible, syn::error::Error>::Err" }
%"core::result::Result<syn::item::ItemFn, syn::error::Error>::Ok" = type { [1 x i64], %"syn::item::ItemFn" }
%"core::result::Result<syn::item::ItemFn, syn::error::Error>::Err" = type { [1 x i64], %"syn::error::Error" }
%"core::ops::control_flow::ControlFlow<core::result::Result<core::convert::Infallible, syn::error::Error>, syn::expr::Expr>" = type { i64, [35 x i64] }
%"core::ops::control_flow::ControlFlow<core::result::Result<core::convert::Infallible, syn::error::Error>, syn::expr::Expr>::Continue" = type { [1 x i64], %"syn::expr::Expr" }
%"core::ops::control_flow::ControlFlow<core::result::Result<core::convert::Infallible, syn::error::Error>, syn::expr::Expr>::Break" = type { [1 x i64], %"core::result::Result<core::convert::Infallible, syn::error::Error>::Err" }
%"core::ops::control_flow::ControlFlow<core::result::Result<core::convert::Infallible, syn::error::Error>, syn::stmt::Stmt>" = type { i64, [44 x i64] }
%"core::ops::control_flow::ControlFlow<core::result::Result<core::convert::Infallible, syn::error::Error>, syn::stmt::Stmt>::Continue" = type { [1 x i64], %"syn::stmt::Stmt" }
%"core::ops::control_flow::ControlFlow<core::result::Result<core::convert::Infallible, syn::error::Error>, syn::stmt::Stmt>::Break" = type { [1 x i64], %"core::result::Result<core::convert::Infallible, syn::error::Error>::Err" }
%"core::fmt::Formatter" = type { { i64, i64 }, { i64, i64 }, { {}*, [3 x i64]* }, i32, i32, i8, [7 x i8] }
%"rustc_demangle::Demangle" = type { %"core::option::Option<rustc_demangle::DemangleStyle>", { [0 x i8]*, i64 }, { [0 x i8]*, i64 } }
%"core::option::Option<rustc_demangle::DemangleStyle>" = type { i64, [3 x i64] }
%"core::fmt::Opaque" = type {}
%"core::fmt::Arguments" = type { { [0 x { [0 x i8]*, i64 }]*, i64 }, { i64*, i64 }, { [0 x { i8*, i64* }]*, i64 } }
%"core::mem::manually_drop::ManuallyDrop<proc_macro::bridge::client::BridgeState>" = type { %"proc_macro::bridge::client::BridgeState" }
%"core::mem::manually_drop::ManuallyDrop<proc_macro::bridge::client::TokenStream>" = type { %"proc_macro::bridge::client::TokenStream" }
%"core::mem::manually_drop::ManuallyDrop<proc_macro::bridge::buffer::Buffer<u8>>" = type { %"proc_macro::bridge::buffer::Buffer<u8>" }
%"core::mem::manually_drop::ManuallyDrop<alloc::vec::Vec<u8>>" = type { %"alloc::vec::Vec<u8>" }
%"core::mem::maybe_uninit::MaybeUninit<proc_macro::bridge::client::BridgeState>" = type { [8 x i64] }
%ExprAST = type { i64, [5 x i64] }
%FieldInfo = type { i64, i64, i64 }
%Tmp = type { i64, [5 x i64] }
%"Tmp::Variable" = type { [1 x i64], %"proc_macro2::Ident" }
%"ExprAST::Phi" = type { [1 x i64], %PhiExprAST }
%PhiExprAST = type { %"alloc::vec::Vec<alloc::boxed::Box<ExprAST>>" }
%"alloc::vec::Vec<alloc::boxed::Box<ExprAST>>" = type { { i64*, i64 }, i64 }
%"ExprAST::Binary" = type { [1 x i64], %BinaryExprAST }
%BinaryExprAST = type { %ExprAST*, %ExprAST*, i32, [1 x i32] }
%"ExprAST::Field" = type { [1 x i64], %FieldExprAST }
%FieldExprAST = type { i64, i64, %"alloc::vec::Vec<FieldInfo>" }
%"alloc::vec::Vec<FieldInfo>" = type { { i64*, i64 }, i64 }
%"std::io::error::Repr" = type { i8, [15 x i8] }
%"std::io::error::Repr::Custom" = type { [1 x i64], %"std::io::error::Custom"* }
%"std::io::error::Custom" = type { { {}*, [3 x i64]* }, i8, [7 x i8] }
%"std::io::error::Error" = type { %"std::io::error::Repr" }
%"core::mem::maybe_uninit::MaybeUninit<proc_macro::bridge::buffer::Buffer<u8>>" = type { [5 x i64] }
%"core::mem::manually_drop::ManuallyDrop<core::option::Option<proc_macro::bridge::client::BridgeState>>" = type { %"core::option::Option<proc_macro::bridge::client::BridgeState>" }
%"core::mem::maybe_uninit::MaybeUninit<core::option::Option<proc_macro::bridge::client::BridgeState>>" = type { [8 x i64] }
%"core::mem::manually_drop::ManuallyDrop<core::option::Option<proc_macro::bridge::scoped_cell::ScopedCell<proc_macro::bridge::client::BridgeStateL>>>" = type { %"core::option::Option<proc_macro::bridge::scoped_cell::ScopedCell<proc_macro::bridge::client::BridgeStateL>>" }
%"core::mem::maybe_uninit::MaybeUninit<core::option::Option<proc_macro::bridge::scoped_cell::ScopedCell<proc_macro::bridge::client::BridgeStateL>>>" = type { [9 x i64] }
%"core::mem::maybe_uninit::MaybeUninit<core::panic::unwind_safe::AssertUnwindSafe<[closure@proc_macro::bridge::client::run_client<(proc_macro::bridge::client::TokenStream, proc_macro::bridge::client::TokenStream), proc_macro::bridge::client::TokenStream, [closure@proc_macro::bridge::client::Client<fn(proc_macro::TokenStream, proc_macro::TokenStream) -> proc_macro::TokenStream>::expand2::run<fn(proc_macro::TokenStream, proc_macro::TokenStream) -> proc_macro::TokenStream>::{closure#0}]>::{closure#0}]>>" = type { [10 x i64] }
%"proc_macro::bridge::rpc::PanicMessage::String" = type { [1 x i64], %"alloc::string::String" }
%"alloc::vec::Vec<&proc_macro2::Ident>" = type { { i64*, i64 }, i64 }
%"alloc::vec::Vec<core::option::Option<&syn::ty::Type>>" = type { { i64*, i64 }, i64 }
%"core::ptr::metadata::PtrRepr<[core::option::Option<&syn::ty::Type>]>" = type { [2 x i64] }
%"core::ptr::metadata::PtrRepr<[FieldInfo]>" = type { [2 x i64] }
%"core::ptr::metadata::PtrRepr<[alloc::boxed::Box<ExprAST>]>" = type { [2 x i64] }
%"core::ptr::metadata::PtrRepr<[&proc_macro2::Ident]>" = type { [2 x i64] }
%"core::ptr::metadata::PtrRepr<[char]>" = type { [2 x i64] }
%"core::result::Result<alloc::string::String, std::io::error::Error>::Ok" = type { [1 x i64], %"alloc::string::String" }
%"core::result::Result<alloc::string::String, std::io::error::Error>::Err" = type { [1 x i64], %"std::io::error::Error" }
%"core::option::Option<(usize, usize)>" = type { i64, [2 x i64] }
%"core::option::Option<(usize, usize)>::Some" = type { [1 x i64], { i64, i64 } }
%"core::option::Option<core::fmt::Arguments>" = type { {}*, [5 x i64] }
%"core::result::Result<&syn::path::GenericArgument, usize>" = type { i64, [1 x i64] }
%"core::ops::control_flow::ControlFlow<core::result::Result<core::convert::Infallible, usize>, &syn::path::GenericArgument>" = type { i64, [1 x i64] }
%"core::ops::control_flow::ControlFlow<core::result::Result<core::convert::Infallible, usize>, &syn::path::GenericArgument>::Continue" = type { [1 x i64], %"syn::path::GenericArgument"* }
%"core::ops::control_flow::ControlFlow<core::result::Result<core::convert::Infallible, usize>, &syn::path::GenericArgument>::Break" = type { [1 x i64], i64 }
%"core::ops::control_flow::ControlFlow<core::result::Result<core::convert::Infallible, core::alloc::layout::LayoutError>, usize>::Continue" = type { [1 x i64], i64 }
%"core::result::Result<&syn::path::GenericArgument, usize>::Err" = type { [1 x i64], i64 }
%"core::result::Result<&syn::path::GenericArgument, usize>::Ok" = type { [1 x i64], %"syn::path::GenericArgument"* }
%"core::result::Result<&proc_macro::bridge::scoped_cell::ScopedCell<proc_macro::bridge::client::BridgeStateL>, std::thread::local::AccessError>::Err" = type { %"std::thread::local::AccessError" }
%"core::option::Option<syn::ty::Type>" = type { i32, [75 x i32] }
%"core::option::Option<syn::ty::Type>::Some" = type { %"syn::ty::Type" }
%"core::result::Result<i64, core::num::error::ParseIntError>" = type { i8, [15 x i8] }
%"core::result::Result<i64, core::num::error::ParseIntError>::Ok" = type { [1 x i64], i64 }
%"core::result::Result<i64, core::num::error::ParseIntError>::Err" = type { [1 x i8], i8 }
%"core::result::Result<(), std::io::error::Error>" = type { i8, [15 x i8] }
%"core::result::Result<(), std::io::error::Error>::Err" = type { %"std::io::error::Error" }
%"core::result::Result<(), proc_macro::bridge::rpc::PanicMessage>::Ok" = type { {} }
%"core::result::Result<(), alloc::collections::TryReserveError>" = type { i64, [2 x i64] }
%"core::result::Result<(), alloc::collections::TryReserveError>::Err" = type { [1 x i64], { i64, i64 } }
%"core::result::Result<(), alloc::collections::TryReserveErrorKind>" = type { i64, [2 x i64] }
%"core::result::Result<(), alloc::collections::TryReserveErrorKind>::Err" = type { [1 x i64], { i64, i64 } }
%"core::option::Option<(core::ptr::non_null::NonNull<u8>, core::alloc::layout::Layout)>" = type { {}*, [2 x i64] }
%"core::option::Option<(core::ptr::non_null::NonNull<u8>, core::alloc::layout::Layout)>::Some" = type { { i8*, { i64, i64 } } }
%"core::result::Result<core::ptr::non_null::NonNull<[u8]>, alloc::collections::TryReserveError>" = type { i64, [2 x i64] }
%"core::ops::control_flow::ControlFlow<core::result::Result<core::convert::Infallible, alloc::collections::TryReserveError>, core::ptr::non_null::NonNull<[u8]>>" = type { i64, [2 x i64] }
%"core::result::Result<usize, alloc::collections::TryReserveErrorKind>" = type { i64, [2 x i64] }
%"core::ops::control_flow::ControlFlow<core::result::Result<core::convert::Infallible, alloc::collections::TryReserveErrorKind>, usize>" = type { i64, [2 x i64] }
%"core::ops::control_flow::ControlFlow<core::result::Result<core::convert::Infallible, alloc::collections::TryReserveErrorKind>, usize>::Continue" = type { [1 x i64], i64 }
%"core::ops::control_flow::ControlFlow<core::result::Result<core::convert::Infallible, alloc::collections::TryReserveErrorKind>, usize>::Break" = type { [1 x i64], { i64, i64 } }
%"core::ops::control_flow::ControlFlow<core::result::Result<core::convert::Infallible, alloc::collections::TryReserveError>, core::ptr::non_null::NonNull<[u8]>>::Continue" = type { [1 x i64], { i8*, i64 } }
%"core::ops::control_flow::ControlFlow<core::result::Result<core::convert::Infallible, alloc::collections::TryReserveError>, core::ptr::non_null::NonNull<[u8]>>::Break" = type { [1 x i64], { i64, i64 } }
%"core::result::Result<core::convert::Infallible, std::thread::local::AccessError>::Err" = type { %"std::thread::local::AccessError" }
%"core::ops::control_flow::ControlFlow<core::result::Result<core::convert::Infallible, std::thread::local::AccessError>, &proc_macro::bridge::scoped_cell::ScopedCell<proc_macro::bridge::client::BridgeStateL>>::Break" = type { %"core::result::Result<core::convert::Infallible, std::thread::local::AccessError>::Err" }
%"core::str::pattern::SearchStep" = type { i64, [2 x i64] }
%"core::str::pattern::StrSearcherImpl::TwoWay" = type { [1 x i64], %"core::str::pattern::TwoWaySearcher" }
%"core::str::pattern::TwoWaySearcher" = type { i64, i64, i64, i64, i64, i64, i64, i64 }
%"core::str::pattern::SearchStep::Match" = type { [1 x i64], i64, i64 }
%"core::str::pattern::StrSearcherImpl::Empty" = type { [1 x i64], %"core::str::pattern::EmptyNeedle" }
%"core::str::pattern::EmptyNeedle" = type { i64, i64, i8, i8, i8, [5 x i8] }
%"core::str::pattern::SearchStep::Reject" = type { [1 x i64], i64, i64 }
%"core::mem::manually_drop::ManuallyDrop<alloc::vec::Vec<&str>>" = type { %"alloc::vec::Vec<&str>" }
%"syn::ty::Type::Path" = type { [1 x i64], %"syn::ty::TypePath" }
%"syn::ty::TypePath" = type { %"core::option::Option<syn::path::QSelf>", %"syn::path::Path" }
%"core::option::Option<syn::path::QSelf>" = type { [5 x i32], i32, [2 x i32] }
%"syn::path::Path" = type { %"syn::punctuated::Punctuated<syn::path::PathSegment, syn::token::Colon2>", %"core::option::Option<syn::token::Colon2>", [1 x i32] }
%"core::option::Option<syn::token::Colon2>" = type { i32, [2 x i32] }
%"syn::path::PathSegment" = type { %"proc_macro2::Ident", %"syn::path::PathArguments" }
%"syn::path::PathArguments" = type { i64, [7 x i64] }
%"syn::path::PathArguments::AngleBracketed" = type { [1 x i64], %"syn::path::AngleBracketedGenericArguments" }
%"syn::path::AngleBracketedGenericArguments" = type { %"syn::punctuated::Punctuated<syn::path::GenericArgument, syn::token::Comma>", %"core::option::Option<syn::token::Colon2>", %"syn::token::Lt", %"syn::token::Gt", [1 x i32] }
%"syn::token::Lt" = type { [1 x %"proc_macro2::Span"] }
%"syn::token::Gt" = type { [1 x %"proc_macro2::Span"] }
%"syn::path::GenericArgument::Type" = type { [1 x i64], %"syn::ty::Type" }
%"Tmp::Const" = type { [1 x i64], i64 }
%VariableExprAST = type { i64, i64, i64, i64 }
%"ExprAST::Constant" = type { [1 x i64], i64 }
%"core::result::Result<usize, core::num::error::ParseIntError>" = type { i8, [15 x i8] }
%"ExprAST::Variable" = type { [1 x i64], %VariableExprAST }
%"core::option::Option<alloc::vec::Vec<alloc::boxed::Box<ExprAST>>>" = type { {}*, [2 x i64] }
%"core::option::Option<alloc::vec::Vec<alloc::boxed::Box<ExprAST>>>::Some" = type { %"alloc::vec::Vec<alloc::boxed::Box<ExprAST>>" }
%"syn::generics::WhereClause" = type { %"syn::punctuated::Punctuated<syn::generics::WherePredicate, syn::token::Comma>", %"syn::token::Where", [1 x i32] }
%"syn::token::Where" = type { %"proc_macro2::Span" }
%"syn::item::FnArg" = type { i64, [12 x i64] }
%"syn::item::FnArg::Receiver" = type { [1 x i64], %"syn::item::Receiver" }
%"syn::item::Receiver" = type { %"alloc::vec::Vec<syn::attr::Attribute>", %"core::option::Option<(syn::token::And, core::option::Option<syn::lifetime::Lifetime>)>", %"core::option::Option<syn::token::Mut>", %"syn::token::SelfValue", [1 x i32] }
%"core::option::Option<(syn::token::And, core::option::Option<syn::lifetime::Lifetime>)>" = type { [2 x i32], i32, [11 x i32] }
%"core::option::Option<syn::token::Mut>" = type { i32, [1 x i32] }
%"syn::token::SelfValue" = type { %"proc_macro2::Span" }
%"syn::item::FnArg::Typed" = type { [1 x i64], %"syn::pat::PatType" }
%"syn::pat::PatType" = type { %"alloc::vec::Vec<syn::attr::Attribute>", %"syn::pat::Pat"*, %"syn::ty::Type"*, %"syn::token::Colon", [1 x i32] }
%"syn::pat::Pat" = type { i64, [17 x i64] }
%"syn::token::Colon" = type { [1 x %"proc_macro2::Span"] }
%"syn::pat::Pat::Ident" = type { [1 x i64], %"syn::pat::PatIdent" }
%"syn::pat::PatIdent" = type { %"alloc::vec::Vec<syn::attr::Attribute>", %"proc_macro2::Ident", %"core::option::Option<(syn::token::At, alloc::boxed::Box<syn::pat::Pat>)>", %"core::option::Option<syn::token::Ref>", %"core::option::Option<syn::token::Mut>" }
%"core::option::Option<(syn::token::At, alloc::boxed::Box<syn::pat::Pat>)>" = type { [1 x i64], {}* }
%"core::option::Option<syn::token::Ref>" = type { i32, [1 x i32] }
%"syn::ty::ReturnType::Type" = type { %"syn::ty::Type"*, %"syn::token::RArrow" }
%"syn::token::RArrow" = type { [2 x %"proc_macro2::Span"] }
%"core::option::Option<syn::generics::WhereClause>::Some" = type { %"syn::generics::WhereClause" }
%"unwind::libunwind::_Unwind_Exception" = type { i64, void (i32, %"unwind::libunwind::_Unwind_Exception"*)*, [6 x i64] }
%"unwind::libunwind::_Unwind_Context" = type { [0 x i8] }
%"proc_macro::bridge::client::HandleCounters" = type { %"core::sync::atomic::AtomicUsize", %"core::sync::atomic::AtomicUsize", %"core::sync::atomic::AtomicUsize", %"core::sync::atomic::AtomicUsize", %"core::sync::atomic::AtomicUsize", %"core::sync::atomic::AtomicUsize", %"core::sync::atomic::AtomicUsize", %"core::sync::atomic::AtomicUsize", %"core::sync::atomic::AtomicUsize", %"core::sync::atomic::AtomicUsize", %"core::sync::atomic::AtomicUsize", %"core::sync::atomic::AtomicUsize" }

@alloc501 = private unnamed_addr constant <{ [82 x i8] }> <{ [82 x i8] c"/rustc/34926f0a1681458588a2d4240c0715ef9eff7d35/library/alloc/src/vec/into_iter.rs" }>, align 1
@alloc502 = private unnamed_addr constant <{ i8*, [16 x i8] }> <{ i8* getelementptr inbounds (<{ [82 x i8] }>, <{ [82 x i8] }>* @alloc501, i32 0, i32 0, i32 0), [16 x i8] c"R\00\00\00\00\00\00\00\91\00\00\00\1B\00\00\00" }>, align 8
@alloc522 = private unnamed_addr constant <{ [92 x i8] }> <{ [92 x i8] c"/rustc/34926f0a1681458588a2d4240c0715ef9eff7d35/library/proc_macro/src/bridge/scoped_cell.rs" }>, align 1
@alloc504 = private unnamed_addr constant <{ i8*, [16 x i8] }> <{ i8* getelementptr inbounds (<{ [92 x i8] }>, <{ [92 x i8] }>* @alloc522, i32 0, i32 0, i32 0), [16 x i8] c"\\\00\00\00\00\00\00\00K\00\00\003\00\00\00" }>, align 8
@alloc511 = private unnamed_addr constant <{ [87 x i8] }> <{ [87 x i8] c"/rustc/34926f0a1681458588a2d4240c0715ef9eff7d35/library/proc_macro/src/bridge/client.rs" }>, align 1
@alloc506 = private unnamed_addr constant <{ i8*, [16 x i8] }> <{ i8* getelementptr inbounds (<{ [87 x i8] }>, <{ [87 x i8] }>* @alloc511, i32 0, i32 0, i32 0), [16 x i8] c"W\00\00\00\00\00\00\00s\01\00\00 \00\00\00" }>, align 8
@alloc19 = private unnamed_addr constant <{ i8*, [0 x i8] }> <{ i8* bitcast (i64* ()* @_ZN10proc_macro6bridge6client12BRIDGE_STATE7__getit17hdcebe9fb68245f9eE to i8*), [0 x i8] zeroinitializer }>, align 8
@_ZN10proc_macro6bridge6client12BRIDGE_STATE7__getit5__KEY17h43c9aca96cf8b64dE = external thread_local global %"std::thread::local::fast::Key<proc_macro::bridge::scoped_cell::ScopedCell<proc_macro::bridge::client::BridgeStateL>>"
@alloc513 = private unnamed_addr constant <{ [54 x i8] }> <{ [54 x i8] c"procedural macro API is used while it's already in use" }>, align 1
@alloc509 = private unnamed_addr constant <{ i8*, [16 x i8] }> <{ i8* getelementptr inbounds (<{ [87 x i8] }>, <{ [87 x i8] }>* @alloc511, i32 0, i32 0, i32 0), [16 x i8] c"W\00\00\00\00\00\00\00N\01\00\00\11\00\00\00" }>, align 8
@alloc514 = private unnamed_addr constant <{ [58 x i8] }> <{ [58 x i8] c"procedural macro API is used outside of a procedural macro" }>, align 1
@alloc512 = private unnamed_addr constant <{ i8*, [16 x i8] }> <{ i8* getelementptr inbounds (<{ [87 x i8] }>, <{ [87 x i8] }>* @alloc511, i32 0, i32 0, i32 0), [16 x i8] c"W\00\00\00\00\00\00\00K\01\00\00\11\00\00\00" }>, align 8
@"_ZN10proc_macro6bridge6client44_$LT$impl$u20$proc_macro..bridge..Bridge$GT$5enter28HIDE_PANICS_DURING_EXPANSION17h5cdb84b622a70183E" = external global %"std::sync::once::Once"
@vtable.0 = private unnamed_addr constant <{ i8*, [16 x i8], i8*, i8*, i8*, [0 x i8] }> <{ i8* bitcast (void (%"[closure@proc_macro::bridge::client::<impl proc_macro::bridge::Bridge>::enter<(), [closure@proc_macro::bridge::client::run_client<(proc_macro::bridge::client::TokenStream, proc_macro::bridge::client::TokenStream), proc_macro::bridge::client::TokenStream, [closure@proc_macro::bridge::client::Client<fn(proc_macro::TokenStream, proc_macro::TokenStream) -> proc_macro::TokenStream>::expand2::run<fn(proc_macro::TokenStream, proc_macro::TokenStream) -> proc_macro::TokenStream>::{closure#0}]>::{closure#0}::{closure#0}]>::{closure#0}::{closure#0}]"*)* @"_ZN4core3ptr701drop_in_place$LT$proc_macro..bridge..client..$LT$impl$u20$proc_macro..bridge..Bridge$GT$..enter$LT$$LP$$RP$$C$proc_macro..bridge..client..run_client$LT$$LP$proc_macro..bridge..client..TokenStream$C$proc_macro..bridge..client..TokenStream$RP$$C$proc_macro..bridge..client..TokenStream$C$proc_macro..bridge..client..Client$LT$fn$LP$proc_macro..TokenStream$C$proc_macro..TokenStream$RP$$u20$.$GT$$u20$proc_macro..TokenStream$GT$..expand2..run$LT$fn$LP$proc_macro..TokenStream$C$proc_macro..TokenStream$RP$$u20$.$GT$$u20$proc_macro..TokenStream$GT$..$u7b$$u7b$closure$u7d$$u7d$$GT$..$u7b$$u7b$closure$u7d$$u7d$..$u7b$$u7b$closure$u7d$$u7d$$GT$..$u7b$$u7b$closure$u7d$$u7d$..$u7b$$u7b$closure$u7d$$u7d$$GT$17h6906edcd3b44b366E" to i8*), [16 x i8] c"\18\00\00\00\00\00\00\00\08\00\00\00\00\00\00\00", i8* bitcast (void (%"[closure@proc_macro::bridge::client::<impl proc_macro::bridge::Bridge>::enter<(), [closure@proc_macro::bridge::client::run_client<(proc_macro::bridge::client::TokenStream, proc_macro::bridge::client::TokenStream), proc_macro::bridge::client::TokenStream, [closure@proc_macro::bridge::client::Client<fn(proc_macro::TokenStream, proc_macro::TokenStream) -> proc_macro::TokenStream>::expand2::run<fn(proc_macro::TokenStream, proc_macro::TokenStream) -> proc_macro::TokenStream>::{closure#0}]>::{closure#0}::{closure#0}]>::{closure#0}::{closure#0}]"*, %"core::panic::panic_info::PanicInfo"*)* @"_ZN4core3ops8function6FnOnce40call_once$u7b$$u7b$vtable.shim$u7d$$u7d$17hd5d57842e15bc8e0E" to i8*), i8* bitcast (void (%"[closure@proc_macro::bridge::client::<impl proc_macro::bridge::Bridge>::enter<(), [closure@proc_macro::bridge::client::run_client<(proc_macro::bridge::client::TokenStream, proc_macro::bridge::client::TokenStream), proc_macro::bridge::client::TokenStream, [closure@proc_macro::bridge::client::Client<fn(proc_macro::TokenStream, proc_macro::TokenStream) -> proc_macro::TokenStream>::expand2::run<fn(proc_macro::TokenStream, proc_macro::TokenStream) -> proc_macro::TokenStream>::{closure#0}]>::{closure#0}::{closure#0}]>::{closure#0}::{closure#0}]"*, %"core::panic::panic_info::PanicInfo"*)* @"_ZN10proc_macro6bridge6client44_$LT$impl$u20$proc_macro..bridge..Bridge$GT$5enter28_$u7b$$u7b$closure$u7d$$u7d$28_$u7b$$u7b$closure$u7d$$u7d$17h066c649cead5de00E" to i8*), i8* bitcast (void (%"[closure@proc_macro::bridge::client::<impl proc_macro::bridge::Bridge>::enter<(), [closure@proc_macro::bridge::client::run_client<(proc_macro::bridge::client::TokenStream, proc_macro::bridge::client::TokenStream), proc_macro::bridge::client::TokenStream, [closure@proc_macro::bridge::client::Client<fn(proc_macro::TokenStream, proc_macro::TokenStream) -> proc_macro::TokenStream>::expand2::run<fn(proc_macro::TokenStream, proc_macro::TokenStream) -> proc_macro::TokenStream>::{closure#0}]>::{closure#0}::{closure#0}]>::{closure#0}::{closure#0}]"*, %"core::panic::panic_info::PanicInfo"*)* @"_ZN10proc_macro6bridge6client44_$LT$impl$u20$proc_macro..bridge..Bridge$GT$5enter28_$u7b$$u7b$closure$u7d$$u7d$28_$u7b$$u7b$closure$u7d$$u7d$17h066c649cead5de00E" to i8*), [0 x i8] zeroinitializer }>, align 8
@alloc520 = private unnamed_addr constant <{ [85 x i8] }> <{ [85 x i8] c"/home/cj/.cargo/registry/src/github.com-1ecc6299db9ec823/syn-1.0.86/src/punctuated.rs" }>, align 1
@alloc521 = private unnamed_addr constant <{ i8*, [16 x i8] }> <{ i8* getelementptr inbounds (<{ [85 x i8] }>, <{ [85 x i8] }>* @alloc520, i32 0, i32 0, i32 0), [16 x i8] c"U\00\00\00\00\00\00\00\1F\03\00\00\09\00\00\00" }>, align 8
@str.1 = internal constant [28 x i8] c"attempt to add with overflow"
@alloc523 = private unnamed_addr constant <{ i8*, [16 x i8] }> <{ i8* getelementptr inbounds (<{ [92 x i8] }>, <{ [92 x i8] }>* @alloc522, i32 0, i32 0, i32 0), [16 x i8] c"\\\00\00\00\00\00\00\00>\00\00\003\00\00\00" }>, align 8
@vtable.2 = private unnamed_addr constant <{ i8*, [16 x i8], i8*, i8*, [0 x i8] }> <{ i8* bitcast (void (i64**)* @"_ZN4core3ptr741drop_in_place$LT$std..sync..once..Once..call_once$LT$proc_macro..bridge..client..$LT$impl$u20$proc_macro..bridge..Bridge$GT$..enter$LT$$LP$$RP$$C$proc_macro..bridge..client..run_client$LT$$LP$proc_macro..bridge..client..TokenStream$C$proc_macro..bridge..client..TokenStream$RP$$C$proc_macro..bridge..client..TokenStream$C$proc_macro..bridge..client..Client$LT$fn$LP$proc_macro..TokenStream$C$proc_macro..TokenStream$RP$$u20$.$GT$$u20$proc_macro..TokenStream$GT$..expand2..run$LT$fn$LP$proc_macro..TokenStream$C$proc_macro..TokenStream$RP$$u20$.$GT$$u20$proc_macro..TokenStream$GT$..$u7b$$u7b$closure$u7d$$u7d$$GT$..$u7b$$u7b$closure$u7d$$u7d$..$u7b$$u7b$closure$u7d$$u7d$$GT$..$u7b$$u7b$closure$u7d$$u7d$$GT$..$u7b$$u7b$closure$u7d$$u7d$$GT$17hb60b88c8d5112e0fE" to i8*), [16 x i8] c"\08\00\00\00\00\00\00\00\08\00\00\00\00\00\00\00", i8* bitcast (void (i64**, { i64, i8 }*)* @"_ZN4core3ops8function6FnOnce40call_once$u7b$$u7b$vtable.shim$u7d$$u7d$17h2f657b91f7858c5dE" to i8*), i8* bitcast (void (i64**, { i64, i8 }*)* @"_ZN3std4sync4once4Once9call_once28_$u7b$$u7b$closure$u7d$$u7d$17h5c37fa56ed9bf3c8E" to i8*), [0 x i8] zeroinitializer }>, align 8
@alloc528 = private unnamed_addr constant <{ [76 x i8] }> <{ [76 x i8] c"/rustc/34926f0a1681458588a2d4240c0715ef9eff7d35/library/std/src/sync/once.rs" }>, align 1
@alloc529 = private unnamed_addr constant <{ i8*, [16 x i8] }> <{ i8* getelementptr inbounds (<{ [76 x i8] }>, <{ [76 x i8] }>* @alloc528, i32 0, i32 0, i32 0), [16 x i8] c"L\00\00\00\00\00\00\00\06\01\00\002\00\00\00" }>, align 8
@alloc535 = private unnamed_addr constant <{ [70 x i8] }> <{ [70 x i8] c"cannot access a Thread Local Storage value during or after destruction" }>, align 1
@alloc536 = private unnamed_addr constant <{ [79 x i8] }> <{ [79 x i8] c"/rustc/34926f0a1681458588a2d4240c0715ef9eff7d35/library/std/src/thread/local.rs" }>, align 1
@alloc532 = private unnamed_addr constant <{ i8*, [16 x i8] }> <{ i8* getelementptr inbounds (<{ [79 x i8] }>, <{ [79 x i8] }>* @alloc536, i32 0, i32 0, i32 0), [16 x i8] c"O\00\00\00\00\00\00\00\84\01\00\00\1A\00\00\00" }>, align 8
@alloc537 = private unnamed_addr constant <{ i8*, [16 x i8] }> <{ i8* getelementptr inbounds (<{ [79 x i8] }>, <{ [79 x i8] }>* @alloc536, i32 0, i32 0, i32 0), [16 x i8] c"O\00\00\00\00\00\00\00\9B\01\00\00 \00\00\00" }>, align 8
@alloc555 = private unnamed_addr constant <{ i8*, [16 x i8], i8*, i8*, i8*, i8*, i8*, i8*, [0 x i8] }> <{ i8* bitcast (void (%"syn::punctuated::PrivateIter<syn::path::GenericArgument, syn::token::Comma>"*)* @"_ZN4core3ptr103drop_in_place$LT$syn..punctuated..PrivateIter$LT$syn..path..GenericArgument$C$syn..token..Comma$GT$$GT$17h357db7bf96ac97eeE" to i8*), [16 x i8] c"\18\00\00\00\00\00\00\00\08\00\00\00\00\00\00\00", i8* bitcast (i64* (%"syn::punctuated::PrivateIter<syn::path::GenericArgument, syn::token::Comma>"*)* @"_ZN100_$LT$syn..punctuated..PrivateIter$LT$T$C$P$GT$$u20$as$u20$core..iter..traits..iterator..Iterator$GT$4next17hb59df1966425ea4fE" to i8*), i8* bitcast (void ({ i64, { i64, i64 } }*, %"syn::punctuated::PrivateIter<syn::path::GenericArgument, syn::token::Comma>"*)* @_ZN4core4iter6traits8iterator8Iterator9size_hint17h5b798110347bc542E to i8*), i8* bitcast ({ i64, i64 } (%"syn::punctuated::PrivateIter<syn::path::GenericArgument, syn::token::Comma>"*, i64)* @_ZN4core4iter6traits8iterator8Iterator10advance_by17hedf4d47dcc332dbbE to i8*), i8* bitcast (i64* (%"syn::punctuated::PrivateIter<syn::path::GenericArgument, syn::token::Comma>"*, i64)* @_ZN4core4iter6traits8iterator8Iterator3nth17ha2fa202ab2949ab0E to i8*), i8* bitcast (i64 (%"syn::punctuated::PrivateIter<syn::path::GenericArgument, syn::token::Comma>"*)* @"_ZN111_$LT$syn..punctuated..PrivateIter$LT$T$C$P$GT$$u20$as$u20$core..iter..traits..exact_size..ExactSizeIterator$GT$3len17h58a19572e257b9c4E" to i8*), i8* bitcast (i1 (%"syn::punctuated::PrivateIter<syn::path::GenericArgument, syn::token::Comma>"*)* @_ZN4core4iter6traits10exact_size17ExactSizeIterator8is_empty17h97f235946bdc7cacE to i8*), [0 x i8] zeroinitializer }>, align 8
@vtable.3 = private unnamed_addr constant <{ i8*, [16 x i8], i8*, i8*, i8*, i8*, i8*, i8*, i8*, i8*, i8*, i8*, i8*, [0 x i8] }> <{ i8* bitcast (void (%"syn::punctuated::PrivateIter<syn::path::GenericArgument, syn::token::Comma>"*)* @"_ZN4core3ptr103drop_in_place$LT$syn..punctuated..PrivateIter$LT$syn..path..GenericArgument$C$syn..token..Comma$GT$$GT$17h357db7bf96ac97eeE" to i8*), [16 x i8] c"\18\00\00\00\00\00\00\00\08\00\00\00\00\00\00\00", i8* bitcast (i64* (%"syn::punctuated::PrivateIter<syn::path::GenericArgument, syn::token::Comma>"*)* @"_ZN100_$LT$syn..punctuated..PrivateIter$LT$T$C$P$GT$$u20$as$u20$core..iter..traits..iterator..Iterator$GT$4next17hb59df1966425ea4fE" to i8*), i8* bitcast (void ({ i64, { i64, i64 } }*, %"syn::punctuated::PrivateIter<syn::path::GenericArgument, syn::token::Comma>"*)* @_ZN4core4iter6traits8iterator8Iterator9size_hint17h5b798110347bc542E to i8*), i8* bitcast ({ i64, i64 } (%"syn::punctuated::PrivateIter<syn::path::GenericArgument, syn::token::Comma>"*, i64)* @_ZN4core4iter6traits8iterator8Iterator10advance_by17hedf4d47dcc332dbbE to i8*), i8* bitcast (i64* (%"syn::punctuated::PrivateIter<syn::path::GenericArgument, syn::token::Comma>"*, i64)* @_ZN4core4iter6traits8iterator8Iterator3nth17ha2fa202ab2949ab0E to i8*), i8* bitcast (i64* (%"syn::punctuated::PrivateIter<syn::path::GenericArgument, syn::token::Comma>"*)* @"_ZN115_$LT$syn..punctuated..PrivateIter$LT$T$C$P$GT$$u20$as$u20$core..iter..traits..double_ended..DoubleEndedIterator$GT$9next_back17hd597dab6b5e93a33E" to i8*), i8* bitcast ({ i64, i64 } (%"syn::punctuated::PrivateIter<syn::path::GenericArgument, syn::token::Comma>"*, i64)* @_ZN4core4iter6traits12double_ended19DoubleEndedIterator15advance_back_by17hefa4fd9eafeb07eeE to i8*), i8* bitcast (i64* (%"syn::punctuated::PrivateIter<syn::path::GenericArgument, syn::token::Comma>"*, i64)* @_ZN4core4iter6traits12double_ended19DoubleEndedIterator8nth_back17h92bd42bc11bbe2e2E to i8*), i8* bitcast (i64 (%"syn::punctuated::PrivateIter<syn::path::GenericArgument, syn::token::Comma>"*)* @"_ZN111_$LT$syn..punctuated..PrivateIter$LT$T$C$P$GT$$u20$as$u20$core..iter..traits..exact_size..ExactSizeIterator$GT$3len17h58a19572e257b9c4E" to i8*), i8* bitcast (i1 (%"syn::punctuated::PrivateIter<syn::path::GenericArgument, syn::token::Comma>"*)* @_ZN4core4iter6traits10exact_size17ExactSizeIterator8is_empty17h97f235946bdc7cacE to i8*), i8* bitcast (<{ i8*, [16 x i8], i8*, i8*, i8*, i8*, i8*, i8*, [0 x i8] }>* @alloc555 to i8*), i8* bitcast ({ {}*, [3 x i64]* } (%"syn::punctuated::PrivateIter<syn::path::GenericArgument, syn::token::Comma>"*)* @"_ZN57_$LT$I$u20$as$u20$syn..punctuated..IterTrait$LT$T$GT$$GT$9clone_box17h05c44ce8e5ddf8c6E" to i8*), [0 x i8] zeroinitializer }>, align 8
@alloc558 = private unnamed_addr constant <{ [86 x i8] }> <{ [86 x i8] c"/home/cj/.cargo/registry/src/github.com-1ecc6299db9ec823/syn-1.0.86/src/parse_quote.rs" }>, align 1
@alloc559 = private unnamed_addr constant <{ i8*, [16 x i8] }> <{ i8* getelementptr inbounds (<{ [86 x i8] }>, <{ [86 x i8] }>* @alloc558, i32 0, i32 0, i32 0), [16 x i8] c"V\00\00\00\00\00\00\00x\00\00\00\15\00\00\00" }>, align 8
@alloc562 = private unnamed_addr constant <{ [80 x i8] }> <{ [80 x i8] c"/home/cj/.cargo/registry/src/github.com-1ecc6299db9ec823/syn-1.0.86/src/parse.rs" }>, align 1
@alloc561 = private unnamed_addr constant <{ i8*, [16 x i8] }> <{ i8* getelementptr inbounds (<{ [80 x i8] }>, <{ [80 x i8] }>* @alloc562, i32 0, i32 0, i32 0), [16 x i8] c"P\00\00\00\00\00\00\00\B9\04\00\00\14\00\00\00" }>, align 8
@alloc563 = private unnamed_addr constant <{ i8*, [16 x i8] }> <{ i8* getelementptr inbounds (<{ [80 x i8] }>, <{ [80 x i8] }>* @alloc562, i32 0, i32 0, i32 0), [16 x i8] c"P\00\00\00\00\00\00\00\BA\04\00\00\09\00\00\00" }>, align 8
@alloc568 = private unnamed_addr constant <{ [16 x i8] }> <{ [16 x i8] c"unexpected token" }>, align 1
@vtable.4 = private unnamed_addr constant <{ i8*, [16 x i8], i8*, i8*, i8*, [0 x i8] }> <{ i8* bitcast (void (%"alloc::string::String"*)* @"_ZN4core3ptr42drop_in_place$LT$alloc..string..String$GT$17h2009586665427d00E" to i8*), [16 x i8] c"\18\00\00\00\00\00\00\00\08\00\00\00\00\00\00\00", i8* bitcast (i1 (%"alloc::string::String"*, [0 x i8]*, i64)* @"_ZN58_$LT$alloc..string..String$u20$as$u20$core..fmt..Write$GT$9write_str17hba5685338e4c815bE" to i8*), i8* bitcast (i1 (%"alloc::string::String"*, i32)* @"_ZN58_$LT$alloc..string..String$u20$as$u20$core..fmt..Write$GT$10write_char17h5b42872cd294cd8eE" to i8*), i8* bitcast (i1 (%"alloc::string::String"*, %"core::fmt::Arguments"*)* @_ZN4core3fmt5Write9write_fmt17h3aaba967388a2b5bE to i8*), [0 x i8] zeroinitializer }>, align 8
@alloc574 = private unnamed_addr constant <{ [55 x i8] }> <{ [55 x i8] c"a Display implementation returned an error unexpectedly" }>, align 1
@alloc575 = private unnamed_addr constant <{ [75 x i8] }> <{ [75 x i8] c"/rustc/34926f0a1681458588a2d4240c0715ef9eff7d35/library/alloc/src/string.rs" }>, align 1
@alloc576 = private unnamed_addr constant <{ i8*, [16 x i8] }> <{ i8* getelementptr inbounds (<{ [75 x i8] }>, <{ [75 x i8] }>* @alloc575, i32 0, i32 0, i32 0), [16 x i8] c"K\00\00\00\00\00\00\00_\09\00\00\0E\00\00\00" }>, align 8
@alloc577 = private unnamed_addr constant <{ [12 x i8] }> <{ [12 x i8] c"invalid args" }>, align 1
@alloc578 = private unnamed_addr constant <{ [75 x i8] }> <{ [75 x i8] c"/rustc/34926f0a1681458588a2d4240c0715ef9eff7d35/library/core/src/fmt/mod.rs" }>, align 1
@alloc579 = private unnamed_addr constant <{ i8*, [16 x i8] }> <{ i8* getelementptr inbounds (<{ [75 x i8] }>, <{ [75 x i8] }>* @alloc578, i32 0, i32 0, i32 0), [16 x i8] c"K\00\00\00\00\00\00\00k\01\00\00\0D\00\00\00" }>, align 8
@str.5 = internal constant [58 x i8] c"attempted to zero-initialize type `&str`, which is invalid"
@alloc582 = private unnamed_addr constant <{ [75 x i8] }> <{ [75 x i8] c"/rustc/34926f0a1681458588a2d4240c0715ef9eff7d35/library/core/src/ptr/mod.rs" }>, align 1
@alloc581 = private unnamed_addr constant <{ i8*, [16 x i8] }> <{ i8* getelementptr inbounds (<{ [75 x i8] }>, <{ [75 x i8] }>* @alloc582, i32 0, i32 0, i32 0), [16 x i8] c"K\00\00\00\00\00\00\00\1A\03\00\00\0D\00\00\00" }>, align 8
@alloc583 = private unnamed_addr constant <{ i8*, [16 x i8] }> <{ i8* getelementptr inbounds (<{ [75 x i8] }>, <{ [75 x i8] }>* @alloc582, i32 0, i32 0, i32 0), [16 x i8] c"K\00\00\00\00\00\00\00\BE\02\00\00\0D\00\00\00" }>, align 8
@alloc584 = private unnamed_addr constant <{ [73 x i8] }> <{ [73 x i8] c"assertion failed: 0 < pointee_size && pointee_size <= isize::MAX as usize" }>, align 1
@alloc585 = private unnamed_addr constant <{ [81 x i8] }> <{ [81 x i8] c"/rustc/34926f0a1681458588a2d4240c0715ef9eff7d35/library/core/src/ptr/const_ptr.rs" }>, align 1
@alloc586 = private unnamed_addr constant <{ i8*, [16 x i8] }> <{ i8* getelementptr inbounds (<{ [81 x i8] }>, <{ [81 x i8] }>* @alloc585, i32 0, i32 0, i32 0), [16 x i8] c"Q\00\00\00\00\00\00\00\B7\01\00\00\09\00\00\00" }>, align 8
@alloc591 = private unnamed_addr constant <{ [80 x i8] }> <{ [80 x i8] c"/rustc/34926f0a1681458588a2d4240c0715ef9eff7d35/library/core/src/char/methods.rs" }>, align 1
@alloc588 = private unnamed_addr constant <{ i8*, [16 x i8] }> <{ i8* getelementptr inbounds (<{ [80 x i8] }>, <{ [80 x i8] }>* @alloc591, i32 0, i32 0, i32 0), [16 x i8] c"P\00\00\00\00\00\00\00{\06\00\00\16\00\00\00" }>, align 8
@alloc590 = private unnamed_addr constant <{ i8*, [16 x i8] }> <{ i8* getelementptr inbounds (<{ [80 x i8] }>, <{ [80 x i8] }>* @alloc591, i32 0, i32 0, i32 0), [16 x i8] c"P\00\00\00\00\00\00\00\95\06\00\00\0A\00\00\00" }>, align 8
@alloc180 = private unnamed_addr constant <{ [18 x i8] }> <{ [18 x i8] c"encode_utf8: need " }>, align 1
@alloc182 = private unnamed_addr constant <{ [19 x i8] }> <{ [19 x i8] c" bytes to encode U+" }>, align 1
@alloc183 = private unnamed_addr constant <{ [21 x i8] }> <{ [21 x i8] c", but the buffer has " }>, align 1
@alloc181 = private unnamed_addr constant <{ i8*, [8 x i8], i8*, [8 x i8], i8*, [8 x i8] }> <{ i8* getelementptr inbounds (<{ [18 x i8] }>, <{ [18 x i8] }>* @alloc180, i32 0, i32 0, i32 0), [8 x i8] c"\12\00\00\00\00\00\00\00", i8* getelementptr inbounds (<{ [19 x i8] }>, <{ [19 x i8] }>* @alloc182, i32 0, i32 0, i32 0), [8 x i8] c"\13\00\00\00\00\00\00\00", i8* getelementptr inbounds (<{ [21 x i8] }>, <{ [21 x i8] }>* @alloc183, i32 0, i32 0, i32 0), [8 x i8] c"\15\00\00\00\00\00\00\00" }>, align 8
@alloc592 = private unnamed_addr constant <{ i8*, [16 x i8] }> <{ i8* getelementptr inbounds (<{ [80 x i8] }>, <{ [80 x i8] }>* @alloc591, i32 0, i32 0, i32 0), [16 x i8] c"P\00\00\00\00\00\00\00\8E\06\00\00\0E\00\00\00" }>, align 8
@alloc593 = private unnamed_addr constant <{ [90 x i8] }> <{ [90 x i8] c"/rustc/34926f0a1681458588a2d4240c0715ef9eff7d35/library/core/src/iter/traits/exact_size.rs" }>, align 1
@alloc594 = private unnamed_addr constant <{ i8*, [16 x i8] }> <{ i8* getelementptr inbounds (<{ [90 x i8] }>, <{ [90 x i8] }>* @alloc593, i32 0, i32 0, i32 0), [16 x i8] c"Z\00\00\00\00\00\00\00l\00\00\00\09\00\00\00" }>, align 8
@alloc595 = private unnamed_addr constant <{ [92 x i8] }> <{ [92 x i8] c"/rustc/34926f0a1681458588a2d4240c0715ef9eff7d35/library/core/src/iter/traits/double_ended.rs" }>, align 1
@alloc596 = private unnamed_addr constant <{ i8*, [16 x i8] }> <{ i8* getelementptr inbounds (<{ [92 x i8] }>, <{ [92 x i8] }>* @alloc595, i32 0, i32 0, i32 0), [16 x i8] c"\\\00\00\00\00\00\00\00\88\00\00\00\0D\00\00\00" }>, align 8
@alloc597 = private unnamed_addr constant <{ [88 x i8] }> <{ [88 x i8] c"/rustc/34926f0a1681458588a2d4240c0715ef9eff7d35/library/core/src/iter/traits/iterator.rs" }>, align 1
@alloc598 = private unnamed_addr constant <{ i8*, [16 x i8] }> <{ i8* getelementptr inbounds (<{ [88 x i8] }>, <{ [88 x i8] }>* @alloc597, i32 0, i32 0, i32 0), [16 x i8] c"X\00\00\00\00\00\00\00\13\01\00\00\0D\00\00\00" }>, align 8
@alloc599 = private unnamed_addr constant <{ [80 x i8] }> <{ [80 x i8] c"/rustc/34926f0a1681458588a2d4240c0715ef9eff7d35/library/core/src/alloc/layout.rs" }>, align 1
@alloc600 = private unnamed_addr constant <{ i8*, [16 x i8] }> <{ i8* getelementptr inbounds (<{ [80 x i8] }>, <{ [80 x i8] }>* @alloc599, i32 0, i32 0, i32 0), [16 x i8] c"P\00\00\00\00\00\00\00\98\01\00\00\1A\00\00\00" }>, align 8
@alloc606 = private unnamed_addr constant <{ [43 x i8] }> <{ [43 x i8] c"called `Option::unwrap()` on a `None` value" }>, align 1
@vtable.6 = private unnamed_addr constant <{ i8*, [16 x i8], i8*, [0 x i8] }> <{ i8* bitcast (void (%"std::thread::local::AccessError"*)* @"_ZN4core3ptr52drop_in_place$LT$std..thread..local..AccessError$GT$17hdece6913478114fdE" to i8*), [16 x i8] c"\00\00\00\00\00\00\00\00\01\00\00\00\00\00\00\00", i8* bitcast (i1 (%"std::thread::local::AccessError"*, %"core::fmt::Formatter"*)* @"_ZN68_$LT$std..thread..local..AccessError$u20$as$u20$core..fmt..Debug$GT$3fmt17haa218a8af6b40cc9E" to i8*), [0 x i8] zeroinitializer }>, align 8
@alloc618 = private unnamed_addr constant <{ [43 x i8] }> <{ [43 x i8] c"called `Result::unwrap()` on an `Err` value" }>, align 1
@vtable.7 = private unnamed_addr constant <{ i8*, [16 x i8], i8*, [0 x i8] }> <{ i8* bitcast (void (%"std::io::error::Error"*)* @"_ZN4core3ptr42drop_in_place$LT$std..io..error..Error$GT$17h6363ac5981266389E" to i8*), [16 x i8] c"\10\00\00\00\00\00\00\00\08\00\00\00\00\00\00\00", i8* bitcast (i1 (%"std::io::error::Error"*, %"core::fmt::Formatter"*)* @"_ZN58_$LT$std..io..error..Error$u20$as$u20$core..fmt..Debug$GT$3fmt17h7ced4ac19d2a5261E" to i8*), [0 x i8] zeroinitializer }>, align 8
@vtable.8 = private unnamed_addr constant <{ i8*, [16 x i8], i8*, [0 x i8] }> <{ i8* bitcast (void (i8*)* @"_ZN4core3ptr52drop_in_place$LT$core..num..error..ParseIntError$GT$17hfb214ee302eb7090E" to i8*), [16 x i8] c"\01\00\00\00\00\00\00\00\01\00\00\00\00\00\00\00", i8* bitcast (i1 (i8*, %"core::fmt::Formatter"*)* @"_ZN68_$LT$core..num..error..ParseIntError$u20$as$u20$core..fmt..Debug$GT$3fmt17ha670dd37272806deE" to i8*), [0 x i8] zeroinitializer }>, align 8
@alloc72 = private unnamed_addr constant <{ [0 x i8] }> zeroinitializer, align 8
@alloc153 = private unnamed_addr constant <{ i8*, [8 x i8] }> <{ i8* getelementptr inbounds (<{ [0 x i8] }>, <{ [0 x i8] }>* @alloc72, i32 0, i32 0, i32 0), [8 x i8] zeroinitializer }>, align 8
@0 = private unnamed_addr constant <{ [16 x i8] }> <{ [16 x i8] c"\08\00\00\00\00\00\00\00\00\00\00\00\00\00\00\00" }>, align 8
@1 = private unnamed_addr constant <{ [16 x i8] }> <{ [16 x i8] c"\04\00\00\00\00\00\00\00\00\00\00\00\00\00\00\00" }>, align 8
@alloc619 = private unnamed_addr constant <{ [74 x i8] }> <{ [74 x i8] c"/rustc/34926f0a1681458588a2d4240c0715ef9eff7d35/library/alloc/src/alloc.rs" }>, align 1
@alloc620 = private unnamed_addr constant <{ i8*, [16 x i8] }> <{ i8* getelementptr inbounds (<{ [74 x i8] }>, <{ [74 x i8] }>* @alloc619, i32 0, i32 0, i32 0), [16 x i8] c"J\00\00\00\00\00\00\00\AA\00\00\00\1B\00\00\00" }>, align 8
@alloc625 = private unnamed_addr constant <{ [76 x i8] }> <{ [76 x i8] c"/rustc/34926f0a1681458588a2d4240c0715ef9eff7d35/library/alloc/src/raw_vec.rs" }>, align 1
@alloc622 = private unnamed_addr constant <{ i8*, [16 x i8] }> <{ i8* getelementptr inbounds (<{ [76 x i8] }>, <{ [76 x i8] }>* @alloc625, i32 0, i32 0, i32 0), [16 x i8] c"L\00\00\00\00\00\00\00\87\01\00\00\1C\00\00\00" }>, align 8
@alloc624 = private unnamed_addr constant <{ i8*, [16 x i8] }> <{ i8* getelementptr inbounds (<{ [76 x i8] }>, <{ [76 x i8] }>* @alloc625, i32 0, i32 0, i32 0), [16 x i8] c"L\00\00\00\00\00\00\00\91\01\00\00\13\00\00\00" }>, align 8
@alloc626 = private unnamed_addr constant <{ i8*, [16 x i8] }> <{ i8* getelementptr inbounds (<{ [76 x i8] }>, <{ [76 x i8] }>* @alloc625, i32 0, i32 0, i32 0), [16 x i8] c"L\00\00\00\00\00\00\00m\01\00\00\09\00\00\00" }>, align 8
@str.9 = internal constant [25 x i8] c"attempt to divide by zero"
@alloc633 = private unnamed_addr constant <{ [84 x i8] }> <{ [84 x i8] c"/rustc/34926f0a1681458588a2d4240c0715ef9eff7d35/library/proc_macro/src/bridge/rpc.rs" }>, align 1
@alloc628 = private unnamed_addr constant <{ i8*, [16 x i8] }> <{ i8* getelementptr inbounds (<{ [84 x i8] }>, <{ [84 x i8] }>* @alloc633, i32 0, i32 0, i32 0), [16 x i8] c"T\00\00\00\00\00\00\00\81\00\00\00\01\00\00\00" }>, align 8
@alloc630 = private unnamed_addr constant <{ i8*, [16 x i8] }> <{ i8* getelementptr inbounds (<{ [84 x i8] }>, <{ [84 x i8] }>* @alloc633, i32 0, i32 0, i32 0), [16 x i8] c"T\00\00\00\00\00\00\00\D4\00\00\00\1B\00\00\00" }>, align 8
@alloc631 = private unnamed_addr constant <{ [79 x i8] }> <{ [79 x i8] c"/rustc/34926f0a1681458588a2d4240c0715ef9eff7d35/library/core/src/str/pattern.rs" }>, align 1
@alloc632 = private unnamed_addr constant <{ i8*, [16 x i8] }> <{ i8* getelementptr inbounds (<{ [79 x i8] }>, <{ [79 x i8] }>* @alloc631, i32 0, i32 0, i32 0), [16 x i8] c"O\00\00\00\00\00\00\00\1C\04\00\00\17\00\00\00" }>, align 8
@alloc634 = private unnamed_addr constant <{ i8*, [16 x i8] }> <{ i8* getelementptr inbounds (<{ [84 x i8] }>, <{ [84 x i8] }>* @alloc633, i32 0, i32 0, i32 0), [16 x i8] c"T\00\00\00\00\00\00\00\A8\00\00\00&\00\00\00" }>, align 8
@alloc924 = private unnamed_addr constant <{ [41 x i8] }> <{ [41 x i8] c"/home/cj/OOM/macro/macro_crate/src/lib.rs" }>, align 1
@alloc636 = private unnamed_addr constant <{ i8*, [16 x i8] }> <{ i8* getelementptr inbounds (<{ [41 x i8] }>, <{ [41 x i8] }>* @alloc924, i32 0, i32 0, i32 0), [16 x i8] c")\00\00\00\00\00\00\00\8C\00\00\005\00\00\00" }>, align 8
@alloc637 = private unnamed_addr constant <{ [6 x i8] }> <{ [6 x i8] c"Result" }>, align 1
@alloc639 = private unnamed_addr constant <{ i8*, [16 x i8] }> <{ i8* getelementptr inbounds (<{ [41 x i8] }>, <{ [41 x i8] }>* @alloc924, i32 0, i32 0, i32 0), [16 x i8] c")\00\00\00\00\00\00\00\95\00\00\00N\00\00\00" }>, align 8
@_ZN8OOMmacro11handle_flag17he5399ba6b34291deE = internal global <{ [1 x i8] }> zeroinitializer, align 1
@alloc641 = private unnamed_addr constant <{ i8*, [16 x i8] }> <{ i8* getelementptr inbounds (<{ [41 x i8] }>, <{ [41 x i8] }>* @alloc924, i32 0, i32 0, i32 0), [16 x i8] c")\00\00\00\00\00\00\00\1B\01\00\00\0F\00\00\00" }>, align 8
@alloc643 = private unnamed_addr constant <{ i8*, [16 x i8] }> <{ i8* getelementptr inbounds (<{ [41 x i8] }>, <{ [41 x i8] }>* @alloc924, i32 0, i32 0, i32 0), [16 x i8] c")\00\00\00\00\00\00\00\1D\01\00\00\0B\00\00\00" }>, align 8
@alloc645 = private unnamed_addr constant <{ i8*, [16 x i8] }> <{ i8* getelementptr inbounds (<{ [41 x i8] }>, <{ [41 x i8] }>* @alloc924, i32 0, i32 0, i32 0), [16 x i8] c")\00\00\00\00\00\00\00\1E\01\00\00\0F\00\00\00" }>, align 8
@alloc647 = private unnamed_addr constant <{ i8*, [16 x i8] }> <{ i8* getelementptr inbounds (<{ [41 x i8] }>, <{ [41 x i8] }>* @alloc924, i32 0, i32 0, i32 0), [16 x i8] c")\00\00\00\00\00\00\00!\01\00\00 \00\00\00" }>, align 8
@alloc649 = private unnamed_addr constant <{ i8*, [16 x i8] }> <{ i8* getelementptr inbounds (<{ [41 x i8] }>, <{ [41 x i8] }>* @alloc924, i32 0, i32 0, i32 0), [16 x i8] c")\00\00\00\00\00\00\00!\01\00\006\00\00\00" }>, align 8
@alloc651 = private unnamed_addr constant <{ i8*, [16 x i8] }> <{ i8* getelementptr inbounds (<{ [41 x i8] }>, <{ [41 x i8] }>* @alloc924, i32 0, i32 0, i32 0), [16 x i8] c")\00\00\00\00\00\00\00\22\01\00\00\0F\00\00\00" }>, align 8
@alloc653 = private unnamed_addr constant <{ i8*, [16 x i8] }> <{ i8* getelementptr inbounds (<{ [41 x i8] }>, <{ [41 x i8] }>* @alloc924, i32 0, i32 0, i32 0), [16 x i8] c")\00\00\00\00\00\00\00'\01\00\00\0F\00\00\00" }>, align 8
@alloc655 = private unnamed_addr constant <{ i8*, [16 x i8] }> <{ i8* getelementptr inbounds (<{ [41 x i8] }>, <{ [41 x i8] }>* @alloc924, i32 0, i32 0, i32 0), [16 x i8] c")\00\00\00\00\00\00\00*\01\00\00\0B\00\00\00" }>, align 8
@alloc657 = private unnamed_addr constant <{ i8*, [16 x i8] }> <{ i8* getelementptr inbounds (<{ [41 x i8] }>, <{ [41 x i8] }>* @alloc924, i32 0, i32 0, i32 0), [16 x i8] c")\00\00\00\00\00\00\00+\01\00\00\0F\00\00\00" }>, align 8
@alloc659 = private unnamed_addr constant <{ i8*, [16 x i8] }> <{ i8* getelementptr inbounds (<{ [41 x i8] }>, <{ [41 x i8] }>* @alloc924, i32 0, i32 0, i32 0), [16 x i8] c")\00\00\00\00\00\00\00-\01\00\00\22\00\00\00" }>, align 8
@alloc661 = private unnamed_addr constant <{ i8*, [16 x i8] }> <{ i8* getelementptr inbounds (<{ [41 x i8] }>, <{ [41 x i8] }>* @alloc924, i32 0, i32 0, i32 0), [16 x i8] c")\00\00\00\00\00\00\00-\01\00\008\00\00\00" }>, align 8
@alloc663 = private unnamed_addr constant <{ i8*, [16 x i8] }> <{ i8* getelementptr inbounds (<{ [41 x i8] }>, <{ [41 x i8] }>* @alloc924, i32 0, i32 0, i32 0), [16 x i8] c")\00\00\00\00\00\00\00.\01\00\00\0F\00\00\00" }>, align 8
@alloc665 = private unnamed_addr constant <{ i8*, [16 x i8] }> <{ i8* getelementptr inbounds (<{ [41 x i8] }>, <{ [41 x i8] }>* @alloc924, i32 0, i32 0, i32 0), [16 x i8] c")\00\00\00\00\00\00\000\01\00\00\0B\00\00\00" }>, align 8
@alloc667 = private unnamed_addr constant <{ i8*, [16 x i8] }> <{ i8* getelementptr inbounds (<{ [41 x i8] }>, <{ [41 x i8] }>* @alloc924, i32 0, i32 0, i32 0), [16 x i8] c")\00\00\00\00\00\00\001\01\00\00\0F\00\00\00" }>, align 8
@alloc669 = private unnamed_addr constant <{ i8*, [16 x i8] }> <{ i8* getelementptr inbounds (<{ [41 x i8] }>, <{ [41 x i8] }>* @alloc924, i32 0, i32 0, i32 0), [16 x i8] c")\00\00\00\00\00\00\003\01\00\00$\00\00\00" }>, align 8
@alloc671 = private unnamed_addr constant <{ i8*, [16 x i8] }> <{ i8* getelementptr inbounds (<{ [41 x i8] }>, <{ [41 x i8] }>* @alloc924, i32 0, i32 0, i32 0), [16 x i8] c")\00\00\00\00\00\00\003\01\00\00:\00\00\00" }>, align 8
@alloc673 = private unnamed_addr constant <{ i8*, [16 x i8] }> <{ i8* getelementptr inbounds (<{ [41 x i8] }>, <{ [41 x i8] }>* @alloc924, i32 0, i32 0, i32 0), [16 x i8] c")\00\00\00\00\00\00\004\01\00\00\0F\00\00\00" }>, align 8
@alloc675 = private unnamed_addr constant <{ i8*, [16 x i8] }> <{ i8* getelementptr inbounds (<{ [41 x i8] }>, <{ [41 x i8] }>* @alloc924, i32 0, i32 0, i32 0), [16 x i8] c")\00\00\00\00\00\00\006\01\00\00\0B\00\00\00" }>, align 8
@alloc677 = private unnamed_addr constant <{ i8*, [16 x i8] }> <{ i8* getelementptr inbounds (<{ [41 x i8] }>, <{ [41 x i8] }>* @alloc924, i32 0, i32 0, i32 0), [16 x i8] c")\00\00\00\00\00\00\007\01\00\00\0F\00\00\00" }>, align 8
@alloc679 = private unnamed_addr constant <{ i8*, [16 x i8] }> <{ i8* getelementptr inbounds (<{ [41 x i8] }>, <{ [41 x i8] }>* @alloc924, i32 0, i32 0, i32 0), [16 x i8] c")\00\00\00\00\00\00\009\01\00\00%\00\00\00" }>, align 8
@alloc681 = private unnamed_addr constant <{ i8*, [16 x i8] }> <{ i8* getelementptr inbounds (<{ [41 x i8] }>, <{ [41 x i8] }>* @alloc924, i32 0, i32 0, i32 0), [16 x i8] c")\00\00\00\00\00\00\009\01\00\00;\00\00\00" }>, align 8
@alloc683 = private unnamed_addr constant <{ i8*, [16 x i8] }> <{ i8* getelementptr inbounds (<{ [41 x i8] }>, <{ [41 x i8] }>* @alloc924, i32 0, i32 0, i32 0), [16 x i8] c")\00\00\00\00\00\00\00:\01\00\00\0F\00\00\00" }>, align 8
@alloc685 = private unnamed_addr constant <{ i8*, [16 x i8] }> <{ i8* getelementptr inbounds (<{ [41 x i8] }>, <{ [41 x i8] }>* @alloc924, i32 0, i32 0, i32 0), [16 x i8] c")\00\00\00\00\00\00\00<\01\00\00\0B\00\00\00" }>, align 8
@alloc687 = private unnamed_addr constant <{ i8*, [16 x i8] }> <{ i8* getelementptr inbounds (<{ [41 x i8] }>, <{ [41 x i8] }>* @alloc924, i32 0, i32 0, i32 0), [16 x i8] c")\00\00\00\00\00\00\00=\01\00\00\0F\00\00\00" }>, align 8
@alloc689 = private unnamed_addr constant <{ i8*, [16 x i8] }> <{ i8* getelementptr inbounds (<{ [41 x i8] }>, <{ [41 x i8] }>* @alloc924, i32 0, i32 0, i32 0), [16 x i8] c")\00\00\00\00\00\00\00?\01\00\00+\00\00\00" }>, align 8
@alloc691 = private unnamed_addr constant <{ i8*, [16 x i8] }> <{ i8* getelementptr inbounds (<{ [41 x i8] }>, <{ [41 x i8] }>* @alloc924, i32 0, i32 0, i32 0), [16 x i8] c")\00\00\00\00\00\00\00?\01\00\00A\00\00\00" }>, align 8
@alloc693 = private unnamed_addr constant <{ i8*, [16 x i8] }> <{ i8* getelementptr inbounds (<{ [41 x i8] }>, <{ [41 x i8] }>* @alloc924, i32 0, i32 0, i32 0), [16 x i8] c")\00\00\00\00\00\00\00@\01\00\00\0F\00\00\00" }>, align 8
@alloc695 = private unnamed_addr constant <{ i8*, [16 x i8] }> <{ i8* getelementptr inbounds (<{ [41 x i8] }>, <{ [41 x i8] }>* @alloc924, i32 0, i32 0, i32 0), [16 x i8] c")\00\00\00\00\00\00\00F\01\00\00\0E\00\00\00" }>, align 8
@alloc697 = private unnamed_addr constant <{ i8*, [16 x i8] }> <{ i8* getelementptr inbounds (<{ [41 x i8] }>, <{ [41 x i8] }>* @alloc924, i32 0, i32 0, i32 0), [16 x i8] c")\00\00\00\00\00\00\00G\01\00\00\0F\00\00\00" }>, align 8
@alloc699 = private unnamed_addr constant <{ i8*, [16 x i8] }> <{ i8* getelementptr inbounds (<{ [41 x i8] }>, <{ [41 x i8] }>* @alloc924, i32 0, i32 0, i32 0), [16 x i8] c")\00\00\00\00\00\00\00I\01\00\00\0F\00\00\00" }>, align 8
@alloc701 = private unnamed_addr constant <{ i8*, [16 x i8] }> <{ i8* getelementptr inbounds (<{ [41 x i8] }>, <{ [41 x i8] }>* @alloc924, i32 0, i32 0, i32 0), [16 x i8] c")\00\00\00\00\00\00\00N\01\00\00\0F\00\00\00" }>, align 8
@alloc703 = private unnamed_addr constant <{ i8*, [16 x i8] }> <{ i8* getelementptr inbounds (<{ [41 x i8] }>, <{ [41 x i8] }>* @alloc924, i32 0, i32 0, i32 0), [16 x i8] c")\00\00\00\00\00\00\00Q\01\00\00\0B\00\00\00" }>, align 8
@alloc705 = private unnamed_addr constant <{ i8*, [16 x i8] }> <{ i8* getelementptr inbounds (<{ [41 x i8] }>, <{ [41 x i8] }>* @alloc924, i32 0, i32 0, i32 0), [16 x i8] c")\00\00\00\00\00\00\00R\01\00\00\0F\00\00\00" }>, align 8
@alloc707 = private unnamed_addr constant <{ i8*, [16 x i8] }> <{ i8* getelementptr inbounds (<{ [41 x i8] }>, <{ [41 x i8] }>* @alloc924, i32 0, i32 0, i32 0), [16 x i8] c")\00\00\00\00\00\00\00T\01\00\00\22\00\00\00" }>, align 8
@alloc709 = private unnamed_addr constant <{ i8*, [16 x i8] }> <{ i8* getelementptr inbounds (<{ [41 x i8] }>, <{ [41 x i8] }>* @alloc924, i32 0, i32 0, i32 0), [16 x i8] c")\00\00\00\00\00\00\00T\01\00\008\00\00\00" }>, align 8
@alloc711 = private unnamed_addr constant <{ i8*, [16 x i8] }> <{ i8* getelementptr inbounds (<{ [41 x i8] }>, <{ [41 x i8] }>* @alloc924, i32 0, i32 0, i32 0), [16 x i8] c")\00\00\00\00\00\00\00U\01\00\00\0F\00\00\00" }>, align 8
@alloc713 = private unnamed_addr constant <{ i8*, [16 x i8] }> <{ i8* getelementptr inbounds (<{ [41 x i8] }>, <{ [41 x i8] }>* @alloc924, i32 0, i32 0, i32 0), [16 x i8] c")\00\00\00\00\00\00\00W\01\00\00\0B\00\00\00" }>, align 8
@alloc715 = private unnamed_addr constant <{ i8*, [16 x i8] }> <{ i8* getelementptr inbounds (<{ [41 x i8] }>, <{ [41 x i8] }>* @alloc924, i32 0, i32 0, i32 0), [16 x i8] c")\00\00\00\00\00\00\00X\01\00\00\0F\00\00\00" }>, align 8
@alloc717 = private unnamed_addr constant <{ i8*, [16 x i8] }> <{ i8* getelementptr inbounds (<{ [41 x i8] }>, <{ [41 x i8] }>* @alloc924, i32 0, i32 0, i32 0), [16 x i8] c")\00\00\00\00\00\00\00Z\01\00\00$\00\00\00" }>, align 8
@alloc719 = private unnamed_addr constant <{ i8*, [16 x i8] }> <{ i8* getelementptr inbounds (<{ [41 x i8] }>, <{ [41 x i8] }>* @alloc924, i32 0, i32 0, i32 0), [16 x i8] c")\00\00\00\00\00\00\00Z\01\00\00:\00\00\00" }>, align 8
@alloc721 = private unnamed_addr constant <{ i8*, [16 x i8] }> <{ i8* getelementptr inbounds (<{ [41 x i8] }>, <{ [41 x i8] }>* @alloc924, i32 0, i32 0, i32 0), [16 x i8] c")\00\00\00\00\00\00\00\\\01\00\00\0B\00\00\00" }>, align 8
@alloc723 = private unnamed_addr constant <{ i8*, [16 x i8] }> <{ i8* getelementptr inbounds (<{ [41 x i8] }>, <{ [41 x i8] }>* @alloc924, i32 0, i32 0, i32 0), [16 x i8] c")\00\00\00\00\00\00\00]\01\00\00\13\00\00\00" }>, align 8
@alloc725 = private unnamed_addr constant <{ i8*, [16 x i8] }> <{ i8* getelementptr inbounds (<{ [41 x i8] }>, <{ [41 x i8] }>* @alloc924, i32 0, i32 0, i32 0), [16 x i8] c")\00\00\00\00\00\00\00_\01\00\00\0F\00\00\00" }>, align 8
@alloc727 = private unnamed_addr constant <{ i8*, [16 x i8] }> <{ i8* getelementptr inbounds (<{ [41 x i8] }>, <{ [41 x i8] }>* @alloc924, i32 0, i32 0, i32 0), [16 x i8] c")\00\00\00\00\00\00\00`\01\00\00\13\00\00\00" }>, align 8
@alloc729 = private unnamed_addr constant <{ i8*, [16 x i8] }> <{ i8* getelementptr inbounds (<{ [41 x i8] }>, <{ [41 x i8] }>* @alloc924, i32 0, i32 0, i32 0), [16 x i8] c")\00\00\00\00\00\00\00b\01\00\00)\00\00\00" }>, align 8
@alloc731 = private unnamed_addr constant <{ i8*, [16 x i8] }> <{ i8* getelementptr inbounds (<{ [41 x i8] }>, <{ [41 x i8] }>* @alloc924, i32 0, i32 0, i32 0), [16 x i8] c")\00\00\00\00\00\00\00b\01\00\00?\00\00\00" }>, align 8
@alloc733 = private unnamed_addr constant <{ i8*, [16 x i8] }> <{ i8* getelementptr inbounds (<{ [41 x i8] }>, <{ [41 x i8] }>* @alloc924, i32 0, i32 0, i32 0), [16 x i8] c")\00\00\00\00\00\00\00c\01\00\00\13\00\00\00" }>, align 8
@alloc735 = private unnamed_addr constant <{ i8*, [16 x i8] }> <{ i8* getelementptr inbounds (<{ [41 x i8] }>, <{ [41 x i8] }>* @alloc924, i32 0, i32 0, i32 0), [16 x i8] c")\00\00\00\00\00\00\00e\01\00\00\0F\00\00\00" }>, align 8
@alloc737 = private unnamed_addr constant <{ i8*, [16 x i8] }> <{ i8* getelementptr inbounds (<{ [41 x i8] }>, <{ [41 x i8] }>* @alloc924, i32 0, i32 0, i32 0), [16 x i8] c")\00\00\00\00\00\00\00f\01\00\00\13\00\00\00" }>, align 8
@alloc739 = private unnamed_addr constant <{ i8*, [16 x i8] }> <{ i8* getelementptr inbounds (<{ [41 x i8] }>, <{ [41 x i8] }>* @alloc924, i32 0, i32 0, i32 0), [16 x i8] c")\00\00\00\00\00\00\00h\01\00\00'\00\00\00" }>, align 8
@alloc741 = private unnamed_addr constant <{ i8*, [16 x i8] }> <{ i8* getelementptr inbounds (<{ [41 x i8] }>, <{ [41 x i8] }>* @alloc924, i32 0, i32 0, i32 0), [16 x i8] c")\00\00\00\00\00\00\00h\01\00\00=\00\00\00" }>, align 8
@alloc743 = private unnamed_addr constant <{ i8*, [16 x i8] }> <{ i8* getelementptr inbounds (<{ [41 x i8] }>, <{ [41 x i8] }>* @alloc924, i32 0, i32 0, i32 0), [16 x i8] c")\00\00\00\00\00\00\00i\01\00\00\13\00\00\00" }>, align 8
@alloc745 = private unnamed_addr constant <{ i8*, [16 x i8] }> <{ i8* getelementptr inbounds (<{ [41 x i8] }>, <{ [41 x i8] }>* @alloc924, i32 0, i32 0, i32 0), [16 x i8] c")\00\00\00\00\00\00\00k\01\00\00\0F\00\00\00" }>, align 8
@alloc747 = private unnamed_addr constant <{ i8*, [16 x i8] }> <{ i8* getelementptr inbounds (<{ [41 x i8] }>, <{ [41 x i8] }>* @alloc924, i32 0, i32 0, i32 0), [16 x i8] c")\00\00\00\00\00\00\00k\01\00\00$\00\00\00" }>, align 8
@alloc749 = private unnamed_addr constant <{ i8*, [16 x i8] }> <{ i8* getelementptr inbounds (<{ [41 x i8] }>, <{ [41 x i8] }>* @alloc924, i32 0, i32 0, i32 0), [16 x i8] c")\00\00\00\00\00\00\00l\01\00\00\13\00\00\00" }>, align 8
@alloc751 = private unnamed_addr constant <{ i8*, [16 x i8] }> <{ i8* getelementptr inbounds (<{ [41 x i8] }>, <{ [41 x i8] }>* @alloc924, i32 0, i32 0, i32 0), [16 x i8] c")\00\00\00\00\00\00\00n\01\00\00*\00\00\00" }>, align 8
@alloc753 = private unnamed_addr constant <{ i8*, [16 x i8] }> <{ i8* getelementptr inbounds (<{ [41 x i8] }>, <{ [41 x i8] }>* @alloc924, i32 0, i32 0, i32 0), [16 x i8] c")\00\00\00\00\00\00\00n\01\00\00@\00\00\00" }>, align 8
@alloc755 = private unnamed_addr constant <{ i8*, [16 x i8] }> <{ i8* getelementptr inbounds (<{ [41 x i8] }>, <{ [41 x i8] }>* @alloc924, i32 0, i32 0, i32 0), [16 x i8] c")\00\00\00\00\00\00\00q\01\00\00\0F\00\00\00" }>, align 8
@alloc757 = private unnamed_addr constant <{ i8*, [16 x i8] }> <{ i8* getelementptr inbounds (<{ [41 x i8] }>, <{ [41 x i8] }>* @alloc924, i32 0, i32 0, i32 0), [16 x i8] c")\00\00\00\00\00\00\00v\01\00\00\0F\00\00\00" }>, align 8
@alloc759 = private unnamed_addr constant <{ i8*, [16 x i8] }> <{ i8* getelementptr inbounds (<{ [41 x i8] }>, <{ [41 x i8] }>* @alloc924, i32 0, i32 0, i32 0), [16 x i8] c")\00\00\00\00\00\00\00x\01\00\00\0B\00\00\00" }>, align 8
@alloc761 = private unnamed_addr constant <{ i8*, [16 x i8] }> <{ i8* getelementptr inbounds (<{ [41 x i8] }>, <{ [41 x i8] }>* @alloc924, i32 0, i32 0, i32 0), [16 x i8] c")\00\00\00\00\00\00\00{\01\00\00\0F\00\00\00" }>, align 8
@alloc763 = private unnamed_addr constant <{ i8*, [16 x i8] }> <{ i8* getelementptr inbounds (<{ [41 x i8] }>, <{ [41 x i8] }>* @alloc924, i32 0, i32 0, i32 0), [16 x i8] c")\00\00\00\00\00\00\00\80\01\00\00\0F\00\00\00" }>, align 8
@alloc765 = private unnamed_addr constant <{ i8*, [16 x i8] }> <{ i8* getelementptr inbounds (<{ [41 x i8] }>, <{ [41 x i8] }>* @alloc924, i32 0, i32 0, i32 0), [16 x i8] c")\00\00\00\00\00\00\00\81\01\00\00\08\00\00\00" }>, align 8
@alloc767 = private unnamed_addr constant <{ i8*, [16 x i8] }> <{ i8* getelementptr inbounds (<{ [41 x i8] }>, <{ [41 x i8] }>* @alloc924, i32 0, i32 0, i32 0), [16 x i8] c")\00\00\00\00\00\00\00\84\01\00\00\08\00\00\00" }>, align 8
@alloc769 = private unnamed_addr constant <{ i8*, [16 x i8] }> <{ i8* getelementptr inbounds (<{ [41 x i8] }>, <{ [41 x i8] }>* @alloc924, i32 0, i32 0, i32 0), [16 x i8] c")\00\00\00\00\00\00\00\87\01\00\00\08\00\00\00" }>, align 8
@alloc771 = private unnamed_addr constant <{ i8*, [16 x i8] }> <{ i8* getelementptr inbounds (<{ [41 x i8] }>, <{ [41 x i8] }>* @alloc924, i32 0, i32 0, i32 0), [16 x i8] c")\00\00\00\00\00\00\00\8A\01\00\00\08\00\00\00" }>, align 8
@alloc773 = private unnamed_addr constant <{ i8*, [16 x i8] }> <{ i8* getelementptr inbounds (<{ [41 x i8] }>, <{ [41 x i8] }>* @alloc924, i32 0, i32 0, i32 0), [16 x i8] c")\00\00\00\00\00\00\00\8D\01\00\00\08\00\00\00" }>, align 8
@alloc197 = private unnamed_addr constant <{ [7 x i8] }> <{ [7 x i8] c"ERROR!\0A" }>, align 1
@alloc198 = private unnamed_addr constant <{ i8*, [8 x i8] }> <{ i8* getelementptr inbounds (<{ [7 x i8] }>, <{ [7 x i8] }>* @alloc197, i32 0, i32 0, i32 0), [8 x i8] c"\07\00\00\00\00\00\00\00" }>, align 8
@alloc849 = private unnamed_addr constant <{ [4 x i8] }> <{ [4 x i8] c"test" }>, align 1
@alloc776 = private unnamed_addr constant <{ i8*, [16 x i8] }> <{ i8* getelementptr inbounds (<{ [41 x i8] }>, <{ [41 x i8] }>* @alloc924, i32 0, i32 0, i32 0), [16 x i8] c")\00\00\00\00\00\00\00X\02\00\00\17\00\00\00" }>, align 8
@alloc452 = private unnamed_addr constant <{ [13 x i8] }> <{ [13 x i8] c"ERROR!PHILEN\0A" }>, align 1
@alloc453 = private unnamed_addr constant <{ i8*, [8 x i8] }> <{ i8* getelementptr inbounds (<{ [13 x i8] }>, <{ [13 x i8] }>* @alloc452, i32 0, i32 0, i32 0), [8 x i8] c"\0D\00\00\00\00\00\00\00" }>, align 8
@alloc778 = private unnamed_addr constant <{ i8*, [16 x i8] }> <{ i8* getelementptr inbounds (<{ [41 x i8] }>, <{ [41 x i8] }>* @alloc924, i32 0, i32 0, i32 0), [16 x i8] c")\00\00\00\00\00\00\00\\\02\00\007\00\00\00" }>, align 8
@alloc780 = private unnamed_addr constant <{ i8*, [16 x i8] }> <{ i8* getelementptr inbounds (<{ [41 x i8] }>, <{ [41 x i8] }>* @alloc924, i32 0, i32 0, i32 0), [16 x i8] c")\00\00\00\00\00\00\00]\02\00\007\00\00\00" }>, align 8
@alloc929 = private unnamed_addr constant <{ [3 x i8] }> <{ [3 x i8] c"let" }>, align 1
@alloc917 = private unnamed_addr constant <{ [3 x i8] }> <{ [3 x i8] c"mut" }>, align 1
@alloc788 = private unnamed_addr constant <{ [4 x i8] }> <{ [4 x i8] c"core" }>, align 1
@alloc789 = private unnamed_addr constant <{ [3 x i8] }> <{ [3 x i8] c"cmp" }>, align 1
@alloc790 = private unnamed_addr constant <{ [3 x i8] }> <{ [3 x i8] c"max" }>, align 1
@alloc787 = private unnamed_addr constant <{ i8*, [16 x i8] }> <{ i8* getelementptr inbounds (<{ [41 x i8] }>, <{ [41 x i8] }>* @alloc924, i32 0, i32 0, i32 0), [16 x i8] c")\00\00\00\00\00\00\00d\02\00\003\00\00\00" }>, align 8
@alloc792 = private unnamed_addr constant <{ i8*, [16 x i8] }> <{ i8* getelementptr inbounds (<{ [41 x i8] }>, <{ [41 x i8] }>* @alloc924, i32 0, i32 0, i32 0), [16 x i8] c")\00\00\00\00\00\00\00j\02\00\00\11\00\00\00" }>, align 8
@alloc795 = private unnamed_addr constant <{ i8*, [16 x i8] }> <{ i8* getelementptr inbounds (<{ [41 x i8] }>, <{ [41 x i8] }>* @alloc924, i32 0, i32 0, i32 0), [16 x i8] c")\00\00\00\00\00\00\00\1E\02\00\00\17\00\00\00" }>, align 8
@alloc797 = private unnamed_addr constant <{ i8*, [16 x i8] }> <{ i8* getelementptr inbounds (<{ [41 x i8] }>, <{ [41 x i8] }>* @alloc924, i32 0, i32 0, i32 0), [16 x i8] c")\00\00\00\00\00\00\00\1F\02\00\00\19\00\00\00" }>, align 8
@alloc935 = private unnamed_addr constant <{ [5 x i8] }> <{ [5 x i8] c"const" }>, align 1
@alloc855 = private unnamed_addr constant <{ [2 x i8] }> <{ [2 x i8] c"u8" }>, align 1
@alloc801 = private unnamed_addr constant <{ i8*, [16 x i8] }> <{ i8* getelementptr inbounds (<{ [41 x i8] }>, <{ [41 x i8] }>* @alloc924, i32 0, i32 0, i32 0), [16 x i8] c")\00\00\00\00\00\00\00&\02\00\00+\00\00\00" }>, align 8
@alloc803 = private unnamed_addr constant <{ i8*, [16 x i8] }> <{ i8* getelementptr inbounds (<{ [41 x i8] }>, <{ [41 x i8] }>* @alloc924, i32 0, i32 0, i32 0), [16 x i8] c")\00\00\00\00\00\00\00*\02\00\00!\00\00\00" }>, align 8
@str.a = internal constant [33 x i8] c"attempt to subtract with overflow"
@alloc866 = private unnamed_addr constant <{ [4 x i8] }> <{ [4 x i8] c"Self" }>, align 1
@alloc937 = private unnamed_addr constant <{ [2 x i8] }> <{ [2 x i8] c"as" }>, align 1
@alloc870 = private unnamed_addr constant <{ [3 x i8] }> <{ [3 x i8] c"add" }>, align 1
@alloc820 = private unnamed_addr constant <{ [3 x i8] }> <{ [3 x i8] c"u64" }>, align 1
@alloc823 = private unnamed_addr constant <{ [3 x i8] }> <{ [3 x i8] c"u32" }>, align 1
@alloc878 = private unnamed_addr constant <{ [6 x i8] }> <{ [6 x i8] c"unsafe" }>, align 1
@alloc880 = private unnamed_addr constant <{ [3 x i8] }> <{ [3 x i8] c"i64" }>, align 1
@alloc830 = private unnamed_addr constant <{ i8*, [16 x i8] }> <{ i8* getelementptr inbounds (<{ [41 x i8] }>, <{ [41 x i8] }>* @alloc924, i32 0, i32 0, i32 0), [16 x i8] c")\00\00\00\00\00\00\00\D2\01\00\00\17\00\00\00" }>, align 8
@alloc326 = private unnamed_addr constant <{ [14 x i8] }> <{ [14 x i8] c"BINARY ERROR!\0A" }>, align 1
@alloc327 = private unnamed_addr constant <{ i8*, [8 x i8] }> <{ i8* getelementptr inbounds (<{ [14 x i8] }>, <{ [14 x i8] }>* @alloc326, i32 0, i32 0, i32 0), [8 x i8] c"\0E\00\00\00\00\00\00\00" }>, align 8
@alloc922 = private unnamed_addr constant <{ [2 x i8] }> <{ [2 x i8] c"hh" }>, align 1
@alloc938 = private unnamed_addr constant <{ [5 x i8] }> <{ [5 x i8] c"usize" }>, align 1
@alloc846 = private unnamed_addr constant <{ [17 x i8] }> <{ [17 x i8] c"next_power_of_two" }>, align 1
@alloc851 = private unnamed_addr constant <{ i8*, [16 x i8] }> <{ i8* getelementptr inbounds (<{ [41 x i8] }>, <{ [41 x i8] }>* @alloc924, i32 0, i32 0, i32 0), [16 x i8] c")\00\00\00\00\00\00\00\A0\01\00\00\17\00\00\00" }>, align 8
@alloc853 = private unnamed_addr constant <{ i8*, [16 x i8] }> <{ i8* getelementptr inbounds (<{ [41 x i8] }>, <{ [41 x i8] }>* @alloc924, i32 0, i32 0, i32 0), [16 x i8] c")\00\00\00\00\00\00\00\A1\01\00\00\19\00\00\00" }>, align 8
@alloc857 = private unnamed_addr constant <{ i8*, [16 x i8] }> <{ i8* getelementptr inbounds (<{ [41 x i8] }>, <{ [41 x i8] }>* @alloc924, i32 0, i32 0, i32 0), [16 x i8] c")\00\00\00\00\00\00\00\A7\01\00\00+\00\00\00" }>, align 8
@alloc859 = private unnamed_addr constant <{ i8*, [16 x i8] }> <{ i8* getelementptr inbounds (<{ [41 x i8] }>, <{ [41 x i8] }>* @alloc924, i32 0, i32 0, i32 0), [16 x i8] c")\00\00\00\00\00\00\00\AB\01\00\00!\00\00\00" }>, align 8
@alloc936 = private unnamed_addr constant <{ [3 x i8] }> <{ [3 x i8] c"i32" }>, align 1
@alloc881 = private unnamed_addr constant <{ [34 x i8] }> <{ [34 x i8] c"/home/cj/OOM/cost_analysis/result0" }>, align 1
@alloc883 = private unnamed_addr constant <{ i8*, [16 x i8] }> <{ i8* getelementptr inbounds (<{ [41 x i8] }>, <{ [41 x i8] }>* @alloc924, i32 0, i32 0, i32 0), [16 x i8] c")\00\00\00\00\00\00\00w\02\00\00\19\00\00\00" }>, align 8
@alloc148 = private unnamed_addr constant <{ [12 x i8] }> <{ [12 x i8] c"OOM_Function" }>, align 1
@alloc149 = private unnamed_addr constant <{ i8*, [8 x i8] }> <{ i8* getelementptr inbounds (<{ [12 x i8] }>, <{ [12 x i8] }>* @alloc148, i32 0, i32 0, i32 0), [8 x i8] c"\0C\00\00\00\00\00\00\00" }>, align 8
@alloc885 = private unnamed_addr constant <{ i8*, [16 x i8] }> <{ i8* getelementptr inbounds (<{ [41 x i8] }>, <{ [41 x i8] }>* @alloc924, i32 0, i32 0, i32 0), [16 x i8] c")\00\00\00\00\00\00\00\82\02\00\00,\00\00\00" }>, align 8
@alloc887 = private unnamed_addr constant <{ i8*, [16 x i8] }> <{ i8* getelementptr inbounds (<{ [41 x i8] }>, <{ [41 x i8] }>* @alloc924, i32 0, i32 0, i32 0), [16 x i8] c")\00\00\00\00\00\00\00\83\02\00\00!\00\00\00" }>, align 8
@alloc889 = private unnamed_addr constant <{ i8*, [16 x i8] }> <{ i8* getelementptr inbounds (<{ [41 x i8] }>, <{ [41 x i8] }>* @alloc924, i32 0, i32 0, i32 0), [16 x i8] c")\00\00\00\00\00\00\00\84\02\00\00\1D\00\00\00" }>, align 8
@alloc890 = private unnamed_addr constant <{ [2 x i8] }> <{ [2 x i8] c"::" }>, align 1
@alloc892 = private unnamed_addr constant <{ i8*, [16 x i8] }> <{ i8* getelementptr inbounds (<{ [41 x i8] }>, <{ [41 x i8] }>* @alloc924, i32 0, i32 0, i32 0), [16 x i8] c")\00\00\00\00\00\00\00\86\02\00\00\1D\00\00\00" }>, align 8
@alloc167 = private unnamed_addr constant <{ [1 x i8] }> <{ [1 x i8] c"\0A" }>, align 1
@alloc166 = private unnamed_addr constant <{ i8*, [8 x i8], i8*, [8 x i8] }> <{ i8* getelementptr inbounds (<{ [0 x i8] }>, <{ [0 x i8] }>* @alloc72, i32 0, i32 0, i32 0), [8 x i8] zeroinitializer, i8* getelementptr inbounds (<{ [1 x i8] }>, <{ [1 x i8] }>* @alloc167, i32 0, i32 0, i32 0), [8 x i8] c"\01\00\00\00\00\00\00\00" }>, align 8
@alloc894 = private unnamed_addr constant <{ i8*, [16 x i8] }> <{ i8* getelementptr inbounds (<{ [41 x i8] }>, <{ [41 x i8] }>* @alloc924, i32 0, i32 0, i32 0), [16 x i8] c")\00\00\00\00\00\00\00\8C\02\00\00\1F\00\00\00" }>, align 8
@alloc896 = private unnamed_addr constant <{ i8*, [16 x i8] }> <{ i8* getelementptr inbounds (<{ [41 x i8] }>, <{ [41 x i8] }>* @alloc924, i32 0, i32 0, i32 0), [16 x i8] c")\00\00\00\00\00\00\00\8D\02\00\00\15\00\00\00" }>, align 8
@alloc898 = private unnamed_addr constant <{ i8*, [16 x i8] }> <{ i8* getelementptr inbounds (<{ [41 x i8] }>, <{ [41 x i8] }>* @alloc924, i32 0, i32 0, i32 0), [16 x i8] c")\00\00\00\00\00\00\00\8E\02\00\00\1E\00\00\00" }>, align 8
@alloc900 = private unnamed_addr constant <{ i8*, [16 x i8] }> <{ i8* getelementptr inbounds (<{ [41 x i8] }>, <{ [41 x i8] }>* @alloc924, i32 0, i32 0, i32 0), [16 x i8] c")\00\00\00\00\00\00\00\8F\02\00\00$\00\00\00" }>, align 8
@alloc904 = private unnamed_addr constant <{ [4 x i8] }> <{ [4 x i8] c"self" }>, align 1
@alloc38 = private unnamed_addr constant <{ [6 x i8] }> <{ [6 x i8] c"begin " }>, align 1
@alloc40 = private unnamed_addr constant <{ [2 x i8] }> <{ [2 x i8] c":\0A" }>, align 1
@alloc39 = private unnamed_addr constant <{ i8*, [8 x i8], i8*, [8 x i8] }> <{ i8* getelementptr inbounds (<{ [6 x i8] }>, <{ [6 x i8] }>* @alloc38, i32 0, i32 0, i32 0), [8 x i8] c"\06\00\00\00\00\00\00\00", i8* getelementptr inbounds (<{ [2 x i8] }>, <{ [2 x i8] }>* @alloc40, i32 0, i32 0, i32 0), [8 x i8] c"\02\00\00\00\00\00\00\00" }>, align 8
@alloc907 = private unnamed_addr constant <{ [17 x i8] }> <{ [17 x i8] c"OOMGuardAllocator" }>, align 1
@alloc906 = private unnamed_addr constant <{ [7 x i8] }> <{ [7 x i8] c"my_wrap" }>, align 1
@alloc908 = private unnamed_addr constant <{ [11 x i8] }> <{ [11 x i8] c"my_wrap_end" }>, align 1
@alloc63 = private unnamed_addr constant <{ [15 x i8] }> <{ [15 x i8] c"default return\0A" }>, align 1
@alloc64 = private unnamed_addr constant <{ i8*, [8 x i8] }> <{ i8* getelementptr inbounds (<{ [15 x i8] }>, <{ [15 x i8] }>* @alloc63, i32 0, i32 0, i32 0), [8 x i8] c"\0F\00\00\00\00\00\00\00" }>, align 8
@alloc910 = private unnamed_addr constant <{ i8*, [16 x i8] }> <{ i8* getelementptr inbounds (<{ [41 x i8] }>, <{ [41 x i8] }>* @alloc924, i32 0, i32 0, i32 0), [16 x i8] c")\00\00\00\00\00\00\00\E2\02\00\00\22\00\00\00" }>, align 8
@alloc911 = private unnamed_addr constant <{ [40 x i8] }> <{ [40 x i8] c"internal error: entered unreachable code" }>, align 1
@alloc913 = private unnamed_addr constant <{ i8*, [16 x i8] }> <{ i8* getelementptr inbounds (<{ [41 x i8] }>, <{ [41 x i8] }>* @alloc924, i32 0, i32 0, i32 0), [16 x i8] c")\00\00\00\00\00\00\00\EB\02\00\00\1D\00\00\00" }>, align 8
@alloc914 = private unnamed_addr constant <{ [4 x i8] }> <{ [4 x i8] c"From" }>, align 1
@alloc915 = private unnamed_addr constant <{ [10 x i8] }> <{ [10 x i8] c"AllocError" }>, align 1
@alloc69 = private unnamed_addr constant <{ [64 x i8] }> <{ [64 x i8] c"Warning: The return type of oom_safe function must be Result<>.\0A" }>, align 1
@alloc70 = private unnamed_addr constant <{ i8*, [8 x i8] }> <{ i8* getelementptr inbounds (<{ [64 x i8] }>, <{ [64 x i8] }>* @alloc69, i32 0, i32 0, i32 0), [8 x i8] c"@\00\00\00\00\00\00\00" }>, align 8
@alloc933 = private unnamed_addr constant <{ [3 x i8] }> <{ [3 x i8] c"arr" }>, align 1
@alloc923 = private unnamed_addr constant <{ [1 x i8] }> <{ [1 x i8] c"0" }>, align 1
@alloc925 = private unnamed_addr constant <{ i8*, [16 x i8] }> <{ i8* getelementptr inbounds (<{ [41 x i8] }>, <{ [41 x i8] }>* @alloc924, i32 0, i32 0, i32 0), [16 x i8] c")\00\00\00\00\00\00\00\05\03\00\00\19\00\00\00" }>, align 8
@alloc930 = private unnamed_addr constant <{ [21 x i8] }> <{ [21 x i8] c"allocator_reservation" }>, align 1
@alloc931 = private unnamed_addr constant <{ [9 x i8] }> <{ [9 x i8] c"ALLOCATOR" }>, align 1
@alloc932 = private unnamed_addr constant <{ [11 x i8] }> <{ [11 x i8] c"reservation" }>, align 1
@alloc6 = private unnamed_addr constant <{ [8 x i8] }> <{ [8 x i8] c"oom_safe" }>, align 1
@alloc13 = private unnamed_addr constant <{ [8 x i8], i8*, [8 x i8], i8*, i8*, i8*, [16 x i8] }> <{ [8 x i8] c"\01\00\00\00\00\00\00\00", i8* getelementptr inbounds (<{ [8 x i8] }>, <{ [8 x i8] }>* @alloc6, i32 0, i32 0, i32 0), [8 x i8] c"\08\00\00\00\00\00\00\00", i8* bitcast (%"proc_macro::bridge::client::HandleCounters"* ()* @_ZN10proc_macro6bridge6client14HandleCounters3get17h1c1c215da7d18173E to i8*), i8* bitcast (void (%"proc_macro::bridge::buffer::Buffer<u8>"*, %"proc_macro::bridge::Bridge"*, i32 (i32, i32)*)* @"_ZN10proc_macro6bridge6client111Client$LT$fn$LP$proc_macro..TokenStream$C$proc_macro..TokenStream$RP$$u20$.$GT$$u20$proc_macro..TokenStream$GT$7expand23run17hbb3dd7f9effa39f8E" to i8*), i8* bitcast (i32 (i32, i32)* @_ZN8OOMmacro8oom_safe17h60e48bbdc4c4f9f7E to i8*), [16 x i8] undef }>, align 8
@__rustc_proc_macro_decls_3c7a157ae1355f44__ = constant <{ i8*, [8 x i8] }> <{ i8* getelementptr inbounds (<{ [8 x i8], i8*, [8 x i8], i8*, i8*, i8*, [16 x i8] }>, <{ [8 x i8], i8*, [8 x i8], i8*, i8*, i8*, [16 x i8] }>* @alloc13, i32 0, i32 0, i32 0), [8 x i8] c"\01\00\00\00\00\00\00\00" }>, align 8

; <alloc::string::String as core::ops::index::Index<core::ops::range::RangeFull>>::index
; Function Attrs: inlinehint nonlazybind uwtable
define internal { [0 x i8]*, i64 } @"_ZN100_$LT$alloc..string..String$u20$as$u20$core..ops..index..Index$LT$core..ops..range..RangeFull$GT$$GT$5index17hf92410a92d0335ceE"(%"alloc::string::String"* align 8 dereferenceable(24) %self, %"core::panic::location::Location"* align 8 dereferenceable(24) %0) unnamed_addr #0 {
start:
  %_6 = bitcast %"alloc::string::String"* %self to %"alloc::vec::Vec<u8>"*
; call <alloc::vec::Vec<T,A> as core::ops::deref::Deref>::deref
  %1 = call { [0 x i8]*, i64 } @"_ZN72_$LT$alloc..vec..Vec$LT$T$C$A$GT$$u20$as$u20$core..ops..deref..Deref$GT$5deref17hadec8598de4b5ca6E"(%"alloc::vec::Vec<u8>"* align 8 dereferenceable(24) %_6)
  %_4.0 = extractvalue { [0 x i8]*, i64 } %1, 0
  %_4.1 = extractvalue { [0 x i8]*, i64 } %1, 1
  br label %bb1

bb1:                                              ; preds = %start
; call core::str::converts::from_utf8_unchecked
  %2 = call { [0 x i8]*, i64 } @_ZN4core3str8converts19from_utf8_unchecked17h6832043e0f9d96e5E([0 x i8]* nonnull align 1 %_4.0, i64 %_4.1)
  %3 = extractvalue { [0 x i8]*, i64 } %2, 0
  %4 = extractvalue { [0 x i8]*, i64 } %2, 1
  br label %bb2

bb2:                                              ; preds = %bb1
  %5 = insertvalue { [0 x i8]*, i64 } undef, [0 x i8]* %3, 0
  %6 = insertvalue { [0 x i8]*, i64 } %5, i64 %4, 1
  ret { [0 x i8]*, i64 } %6
}

; <proc_macro::bridge::client::TokenStream as proc_macro::bridge::rpc::Encode<S>>::encode
; Function Attrs: nonlazybind uwtable
define internal void @"_ZN100_$LT$proc_macro..bridge..client..TokenStream$u20$as$u20$proc_macro..bridge..rpc..Encode$LT$S$GT$$GT$6encode17hba280883112af302E"(i32 %0, %"proc_macro::bridge::buffer::Buffer<u8>"* align 8 dereferenceable(40) %w, {}* nonnull align 1 %s) unnamed_addr #1 {
start:
  %_6 = alloca %"proc_macro::bridge::client::TokenStream", align 4
  %1 = alloca i32, align 4
  %self = alloca %"proc_macro::bridge::client::TokenStream", align 4
  store i32 %0, i32* %1, align 4
  %2 = bitcast %"proc_macro::bridge::client::TokenStream"* %self to i8*
  %3 = bitcast i32* %1 to i8*
  call void @llvm.memcpy.p0i8.p0i8.i64(i8* align 4 %2, i8* align 4 %3, i64 4, i1 false)
  %4 = bitcast %"proc_macro::bridge::client::TokenStream"* %self to i32*
  %handle = load i32, i32* %4, align 4, !range !2
  %5 = bitcast %"proc_macro::bridge::client::TokenStream"* %_6 to i8*
  %6 = bitcast %"proc_macro::bridge::client::TokenStream"* %self to i8*
  call void @llvm.memcpy.p0i8.p0i8.i64(i8* align 4 %5, i8* align 4 %6, i64 4, i1 false)
  %7 = bitcast %"proc_macro::bridge::client::TokenStream"* %_6 to i32*
  %8 = load i32, i32* %7, align 4
; call core::mem::forget
  call void @_ZN4core3mem6forget17h70f5373d812b4a31E(i32 %8)
  br label %bb1

bb1:                                              ; preds = %start
; call <core::num::nonzero::NonZeroU32 as proc_macro::bridge::rpc::Encode<S>>::encode
  call void @"_ZN91_$LT$core..num..nonzero..NonZeroU32$u20$as$u20$proc_macro..bridge..rpc..Encode$LT$S$GT$$GT$6encode17h7550e2e25be58cc3E"(i32 %handle, %"proc_macro::bridge::buffer::Buffer<u8>"* align 8 dereferenceable(40) %w, {}* nonnull align 1 %s)
  br label %bb2

bb2:                                              ; preds = %bb1
  ret void
}

; <syn::punctuated::PrivateIter<T,P> as core::iter::traits::iterator::Iterator>::next
; Function Attrs: nonlazybind uwtable
define internal align 8 dereferenceable_or_null(360) i64* @"_ZN100_$LT$syn..punctuated..PrivateIter$LT$T$C$P$GT$$u20$as$u20$core..iter..traits..iterator..Iterator$GT$4next17hb59df1966425ea4fE"(%"syn::punctuated::PrivateIter<syn::path::GenericArgument, syn::token::Comma>"* align 8 dereferenceable(24) %0) unnamed_addr #1 {
start:
  %_6 = alloca i64*, align 8
  %self = alloca %"syn::punctuated::PrivateIter<syn::path::GenericArgument, syn::token::Comma>"*, align 8
  store %"syn::punctuated::PrivateIter<syn::path::GenericArgument, syn::token::Comma>"* %0, %"syn::punctuated::PrivateIter<syn::path::GenericArgument, syn::token::Comma>"** %self, align 8
  %1 = load %"syn::punctuated::PrivateIter<syn::path::GenericArgument, syn::token::Comma>"*, %"syn::punctuated::PrivateIter<syn::path::GenericArgument, syn::token::Comma>"** %self, align 8, !nonnull !3
  %_4 = bitcast %"syn::punctuated::PrivateIter<syn::path::GenericArgument, syn::token::Comma>"* %1 to { i64*, i64* }*
; call <core::slice::iter::Iter<T> as core::iter::traits::iterator::Iterator>::next
  %_3 = call align 8 dereferenceable_or_null(368) i64* @"_ZN91_$LT$core..slice..iter..Iter$LT$T$GT$$u20$as$u20$core..iter..traits..iterator..Iterator$GT$4next17hbc1624ef8a0b70e8E"({ i64*, i64* }* align 8 dereferenceable(16) %_4)
  br label %bb1

bb1:                                              ; preds = %start
; call core::option::Option<T>::map
  %_2 = call align 8 dereferenceable_or_null(360) i64* @"_ZN4core6option15Option$LT$T$GT$3map17h22c25668260e5dd5E"(i64* align 8 dereferenceable_or_null(368) %_3)
  br label %bb2

bb2:                                              ; preds = %bb1
  %2 = bitcast i64** %_6 to %"syn::punctuated::PrivateIter<syn::path::GenericArgument, syn::token::Comma>"***
  store %"syn::punctuated::PrivateIter<syn::path::GenericArgument, syn::token::Comma>"** %self, %"syn::punctuated::PrivateIter<syn::path::GenericArgument, syn::token::Comma>"*** %2, align 8
  %3 = load i64*, i64** %_6, align 8, !nonnull !3
; call core::option::Option<T>::or_else
  %4 = call align 8 dereferenceable_or_null(360) i64* @"_ZN4core6option15Option$LT$T$GT$7or_else17h153edb73649c3cfcE"(i64* align 8 dereferenceable_or_null(360) %_2, i64* align 8 dereferenceable(8) %3)
  br label %bb3

bb3:                                              ; preds = %bb2
  ret i64* %4
}

; <syn::punctuated::PrivateIter<T,P> as core::iter::traits::iterator::Iterator>::next::{{closure}}
; Function Attrs: inlinehint nonlazybind uwtable
define internal align 8 dereferenceable(360) %"syn::path::GenericArgument"* @"_ZN100_$LT$syn..punctuated..PrivateIter$LT$T$C$P$GT$$u20$as$u20$core..iter..traits..iterator..Iterator$GT$4next28_$u7b$$u7b$closure$u7d$$u7d$17hec41a679f570a655E"({ %"syn::path::GenericArgument", %"syn::token::Comma", [1 x i32] }* align 8 dereferenceable(368) %pair) unnamed_addr #0 {
start:
  %0 = bitcast { %"syn::path::GenericArgument", %"syn::token::Comma", [1 x i32] }* %pair to %"syn::path::GenericArgument"*
  ret %"syn::path::GenericArgument"* %0
}

; <syn::punctuated::PrivateIter<T,P> as core::iter::traits::iterator::Iterator>::next::{{closure}}
; Function Attrs: inlinehint nonlazybind uwtable
define internal align 8 dereferenceable_or_null(360) i64* @"_ZN100_$LT$syn..punctuated..PrivateIter$LT$T$C$P$GT$$u20$as$u20$core..iter..traits..iterator..Iterator$GT$4next28_$u7b$$u7b$closure$u7d$$u7d$17hf8396bc844b2a245E"(i64* align 8 dereferenceable(8) %_1) unnamed_addr #0 {
start:
  %0 = bitcast i64* %_1 to %"syn::punctuated::PrivateIter<syn::path::GenericArgument, syn::token::Comma>"**
  %1 = bitcast i64* %_1 to %"syn::punctuated::PrivateIter<syn::path::GenericArgument, syn::token::Comma>"**
  %2 = load %"syn::punctuated::PrivateIter<syn::path::GenericArgument, syn::token::Comma>"*, %"syn::punctuated::PrivateIter<syn::path::GenericArgument, syn::token::Comma>"** %1, align 8, !nonnull !3
  %_2 = getelementptr inbounds %"syn::punctuated::PrivateIter<syn::path::GenericArgument, syn::token::Comma>", %"syn::punctuated::PrivateIter<syn::path::GenericArgument, syn::token::Comma>"* %2, i32 0, i32 1
; call <core::option::IntoIter<A> as core::iter::traits::iterator::Iterator>::next
  %3 = call align 8 dereferenceable_or_null(360) i64* @"_ZN90_$LT$core..option..IntoIter$LT$A$GT$$u20$as$u20$core..iter..traits..iterator..Iterator$GT$4next17h41c8bbade6266545E"(i64** align 8 dereferenceable(8) %_2)
  br label %bb1

bb1:                                              ; preds = %start
  ret i64* %3
}

; <core::iter::adapters::map::Map<I,F> as core::iter::traits::iterator::Iterator>::fold
; Function Attrs: nonlazybind uwtable
define internal void @"_ZN102_$LT$core..iter..adapters..map..Map$LT$I$C$F$GT$$u20$as$u20$core..iter..traits..iterator..Iterator$GT$4fold17ha1f1c81ae669a6beE"(i32* nonnull %self.0, i32* %self.1, i64* align 8 dereferenceable(24) %g) unnamed_addr #1 personality i32 (i32, i32, i64, %"unwind::libunwind::_Unwind_Exception"*, %"unwind::libunwind::_Unwind_Context"*)* @rust_eh_personality {
start:
  %0 = alloca { i8*, i32 }, align 8
  %_10 = alloca i8, align 1
  %_9 = alloca i8, align 1
  store i8 0, i8* %_10, align 1
  store i8 0, i8* %_9, align 1
  store i8 1, i8* %_10, align 1
  store i8 1, i8* %_9, align 1
; invoke core::iter::adapters::map::map_fold
  %_6 = invoke align 8 dereferenceable(24) i64* @_ZN4core4iter8adapters3map8map_fold17h49e3ce055ca581e1E(i64* align 8 dereferenceable(24) %g)
          to label %bb1 unwind label %cleanup

bb1:                                              ; preds = %start
  store i8 0, i8* %_10, align 1
  store i8 0, i8* %_9, align 1
; invoke core::iter::traits::iterator::Iterator::fold
  invoke void @_ZN4core4iter6traits8iterator8Iterator4fold17hd3311f8cbf7d0be4E(i32* nonnull %self.0, i32* %self.1, i64* align 8 dereferenceable(24) %_6)
          to label %bb2 unwind label %cleanup

bb6:                                              ; preds = %cleanup
  %1 = load i8, i8* %_9, align 1, !range !4
  %2 = trunc i8 %1 to i1
  br i1 %2, label %bb5, label %bb3

cleanup:                                          ; preds = %bb1, %start
  %3 = landingpad { i8*, i32 }
          cleanup
  %4 = extractvalue { i8*, i32 } %3, 0
  %5 = extractvalue { i8*, i32 } %3, 1
  %6 = getelementptr inbounds { i8*, i32 }, { i8*, i32 }* %0, i32 0, i32 0
  store i8* %4, i8** %6, align 8
  %7 = getelementptr inbounds { i8*, i32 }, { i8*, i32 }* %0, i32 0, i32 1
  store i32 %5, i32* %7, align 8
  br label %bb6

bb2:                                              ; preds = %bb1
  store i8 0, i8* %_9, align 1
  store i8 0, i8* %_10, align 1
  ret void

bb3:                                              ; preds = %bb5, %bb6
  %8 = load i8, i8* %_10, align 1, !range !4
  %9 = trunc i8 %8 to i1
  br i1 %9, label %bb7, label %bb4

bb5:                                              ; preds = %bb6
  br label %bb3

bb4:                                              ; preds = %bb7, %bb3
  %10 = bitcast { i8*, i32 }* %0 to i8**
  %11 = load i8*, i8** %10, align 8
  %12 = getelementptr inbounds { i8*, i32 }, { i8*, i32 }* %0, i32 0, i32 1
  %13 = load i32, i32* %12, align 8
  %14 = insertvalue { i8*, i32 } undef, i8* %11, 0
  %15 = insertvalue { i8*, i32 } %14, i32 %13, 1
  resume { i8*, i32 } %15

bb7:                                              ; preds = %bb3
  br label %bb4
}

; <alloc::vec::into_iter::IntoIter<T,A> as core::iter::traits::iterator::Iterator>::next
; Function Attrs: inlinehint nonlazybind uwtable
define internal { i8*, i64 } @"_ZN103_$LT$alloc..vec..into_iter..IntoIter$LT$T$C$A$GT$$u20$as$u20$core..iter..traits..iterator..Iterator$GT$4next17hbe49df47a97ac247E"(%"alloc::vec::into_iter::IntoIter<&str>"* align 8 dereferenceable(32) %self) unnamed_addr #0 {
start:
  %0 = alloca { [0 x i8]*, i64 }*, align 8
  %1 = alloca i8*, align 8
  %2 = alloca { i8*, i64 }, align 8
  %3 = getelementptr inbounds %"alloc::vec::into_iter::IntoIter<&str>", %"alloc::vec::into_iter::IntoIter<&str>"* %self, i32 0, i32 4
  %_4 = load { [0 x i8]*, i64 }*, { [0 x i8]*, i64 }** %3, align 8
  %4 = getelementptr inbounds %"alloc::vec::into_iter::IntoIter<&str>", %"alloc::vec::into_iter::IntoIter<&str>"* %self, i32 0, i32 5
  %_5 = load { [0 x i8]*, i64 }*, { [0 x i8]*, i64 }** %4, align 8
  %_2 = icmp eq { [0 x i8]*, i64 }* %_4, %_5
  br i1 %_2, label %bb1, label %bb2

bb2:                                              ; preds = %start
  br label %bb3

bb1:                                              ; preds = %start
  %5 = bitcast { i8*, i64 }* %2 to {}**
  store {}* null, {}** %5, align 8
  br label %bb11

bb11:                                             ; preds = %bb10, %bb1
  %6 = getelementptr inbounds { i8*, i64 }, { i8*, i64 }* %2, i32 0, i32 0
  %7 = load i8*, i8** %6, align 8
  %8 = getelementptr inbounds { i8*, i64 }, { i8*, i64 }* %2, i32 0, i32 1
  %9 = load i64, i64* %8, align 8
  %10 = insertvalue { i8*, i64 } undef, i8* %7, 0
  %11 = insertvalue { i8*, i64 } %10, i64 %9, 1
  ret { i8*, i64 } %11

bb3:                                              ; preds = %bb2
  %12 = icmp eq i64 16, 0
  br i1 %12, label %bb4, label %bb7

bb4:                                              ; preds = %bb3
  %13 = getelementptr inbounds %"alloc::vec::into_iter::IntoIter<&str>", %"alloc::vec::into_iter::IntoIter<&str>"* %self, i32 0, i32 4
  %_11 = load { [0 x i8]*, i64 }*, { [0 x i8]*, i64 }** %13, align 8
  %_10 = bitcast { [0 x i8]*, i64 }* %_11 to i8*
  %14 = getelementptr i8, i8* %_10, i64 1
  store i8* %14, i8** %1, align 8
  %_9 = load i8*, i8** %1, align 8
  br label %bb5

bb7:                                              ; preds = %bb3
  %15 = getelementptr inbounds %"alloc::vec::into_iter::IntoIter<&str>", %"alloc::vec::into_iter::IntoIter<&str>"* %self, i32 0, i32 4
  %old = load { [0 x i8]*, i64 }*, { [0 x i8]*, i64 }** %15, align 8
  %16 = getelementptr inbounds %"alloc::vec::into_iter::IntoIter<&str>", %"alloc::vec::into_iter::IntoIter<&str>"* %self, i32 0, i32 4
  %_15 = load { [0 x i8]*, i64 }*, { [0 x i8]*, i64 }** %16, align 8
  %17 = getelementptr inbounds { [0 x i8]*, i64 }, { [0 x i8]*, i64 }* %_15, i64 1
  store { [0 x i8]*, i64 }* %17, { [0 x i8]*, i64 }** %0, align 8
  %18 = load { [0 x i8]*, i64 }*, { [0 x i8]*, i64 }** %0, align 8
  br label %bb8

bb8:                                              ; preds = %bb7
  %19 = getelementptr inbounds %"alloc::vec::into_iter::IntoIter<&str>", %"alloc::vec::into_iter::IntoIter<&str>"* %self, i32 0, i32 4
  store { [0 x i8]*, i64 }* %18, { [0 x i8]*, i64 }** %19, align 8
; call core::ptr::read
  %20 = call { [0 x i8]*, i64 } @_ZN4core3ptr4read17hb536ce57a29f0d00E({ [0 x i8]*, i64 }* %old)
  %_16.0 = extractvalue { [0 x i8]*, i64 } %20, 0
  %_16.1 = extractvalue { [0 x i8]*, i64 } %20, 1
  br label %bb9

bb9:                                              ; preds = %bb8
  %21 = bitcast { i8*, i64 }* %2 to { [0 x i8]*, i64 }*
  %22 = getelementptr inbounds { [0 x i8]*, i64 }, { [0 x i8]*, i64 }* %21, i32 0, i32 0
  store [0 x i8]* %_16.0, [0 x i8]** %22, align 8
  %23 = getelementptr inbounds { [0 x i8]*, i64 }, { [0 x i8]*, i64 }* %21, i32 0, i32 1
  store i64 %_16.1, i64* %23, align 8
  br label %bb10

bb10:                                             ; preds = %bb6, %bb9
  br label %bb11

bb5:                                              ; preds = %bb4
  %_8 = bitcast i8* %_9 to { [0 x i8]*, i64 }*
  %24 = getelementptr inbounds %"alloc::vec::into_iter::IntoIter<&str>", %"alloc::vec::into_iter::IntoIter<&str>"* %self, i32 0, i32 4
  store { [0 x i8]*, i64 }* %_8, { [0 x i8]*, i64 }** %24, align 8
; call core::panicking::panic
  call void @_ZN4core9panicking5panic17hac91d6d33ac66361E([0 x i8]* nonnull align 1 bitcast ([58 x i8]* @str.5 to [0 x i8]*), i64 58, %"core::panic::location::Location"* align 8 dereferenceable(24) bitcast (<{ i8*, [16 x i8] }>* @alloc502 to %"core::panic::location::Location"*)) #17
; call core::mem::maybe_uninit::MaybeUninit<T>::zeroed
  %25 = call { i8*, i64 } @"_ZN4core3mem12maybe_uninit20MaybeUninit$LT$T$GT$6zeroed17hb894c72aec910fa3E"()
  %_2.0.i = extractvalue { i8*, i64 } %25, 0
  %_2.1.i = extractvalue { i8*, i64 } %25, 1
  %26 = bitcast i8* %_2.0.i to [0 x i8]*
  %27 = insertvalue { [0 x i8]*, i64 } undef, [0 x i8]* %26, 0
  %28 = insertvalue { [0 x i8]*, i64 } %27, i64 %_2.1.i, 1
  %29 = insertvalue { [0 x i8]*, i64 } undef, [0 x i8]* %26, 0
  %30 = insertvalue { [0 x i8]*, i64 } %29, i64 %_2.1.i, 1
  %_12.0 = extractvalue { [0 x i8]*, i64 } %30, 0
  %_12.1 = extractvalue { [0 x i8]*, i64 } %30, 1
  br label %bb6

bb6:                                              ; preds = %bb5
  %31 = bitcast { i8*, i64 }* %2 to { [0 x i8]*, i64 }*
  %32 = getelementptr inbounds { [0 x i8]*, i64 }, { [0 x i8]*, i64 }* %31, i32 0, i32 0
  store [0 x i8]* %_12.0, [0 x i8]** %32, align 8
  %33 = getelementptr inbounds { [0 x i8]*, i64 }, { [0 x i8]*, i64 }* %31, i32 0, i32 1
  store i64 %_12.1, i64* %33, align 8
  br label %bb10
}

; <alloc::vec::into_iter::IntoIter<T,A> as core::iter::traits::iterator::Iterator>::size_hint
; Function Attrs: inlinehint nonlazybind uwtable
define internal void @"_ZN103_$LT$alloc..vec..into_iter..IntoIter$LT$T$C$A$GT$$u20$as$u20$core..iter..traits..iterator..Iterator$GT$9size_hint17h181f09b744dd41fcE"({ i64, { i64, i64 } }* noalias nocapture sret({ i64, { i64, i64 } }) dereferenceable(24) %0, %"alloc::vec::into_iter::IntoIter<&str>"* align 8 dereferenceable(32) %self) unnamed_addr #0 {
start:
  %_12 = alloca { i64, i64 }, align 8
  %exact = alloca i64, align 8
  br label %bb1

bb1:                                              ; preds = %start
  %1 = icmp eq i64 16, 0
  br i1 %1, label %bb2, label %bb4

bb2:                                              ; preds = %bb1
  %2 = getelementptr inbounds %"alloc::vec::into_iter::IntoIter<&str>", %"alloc::vec::into_iter::IntoIter<&str>"* %self, i32 0, i32 5
  %_5 = load { [0 x i8]*, i64 }*, { [0 x i8]*, i64 }** %2, align 8
  %_4 = ptrtoint { [0 x i8]*, i64 }* %_5 to i64
  %3 = getelementptr inbounds %"alloc::vec::into_iter::IntoIter<&str>", %"alloc::vec::into_iter::IntoIter<&str>"* %self, i32 0, i32 4
  %_7 = load { [0 x i8]*, i64 }*, { [0 x i8]*, i64 }** %3, align 8
  %_6 = ptrtoint { [0 x i8]*, i64 }* %_7 to i64
  %4 = sub i64 %_4, %_6
  store i64 %4, i64* %exact, align 8
  br label %bb3

bb4:                                              ; preds = %bb1
  %5 = getelementptr inbounds %"alloc::vec::into_iter::IntoIter<&str>", %"alloc::vec::into_iter::IntoIter<&str>"* %self, i32 0, i32 5
  %_9 = load { [0 x i8]*, i64 }*, { [0 x i8]*, i64 }** %5, align 8
  %6 = getelementptr inbounds %"alloc::vec::into_iter::IntoIter<&str>", %"alloc::vec::into_iter::IntoIter<&str>"* %self, i32 0, i32 4
  %_10 = load { [0 x i8]*, i64 }*, { [0 x i8]*, i64 }** %6, align 8
; call core::ptr::const_ptr::<impl *const T>::offset_from
  %_8 = call i64 @"_ZN4core3ptr9const_ptr33_$LT$impl$u20$$BP$const$u20$T$GT$11offset_from17h2075325b28173e2cE"({ [0 x i8]*, i64 }* %_9, { [0 x i8]*, i64 }* %_10)
  br label %bb5

bb5:                                              ; preds = %bb4
  store i64 %_8, i64* %exact, align 8
  br label %bb6

bb6:                                              ; preds = %bb3, %bb5
  %_11 = load i64, i64* %exact, align 8
  %_13 = load i64, i64* %exact, align 8
  %7 = bitcast { i64, i64 }* %_12 to %"core::option::Option<usize>::Some"*
  %8 = getelementptr inbounds %"core::option::Option<usize>::Some", %"core::option::Option<usize>::Some"* %7, i32 0, i32 1
  store i64 %_13, i64* %8, align 8
  %9 = bitcast { i64, i64 }* %_12 to i64*
  store i64 1, i64* %9, align 8
  %10 = bitcast { i64, { i64, i64 } }* %0 to i64*
  store i64 %_11, i64* %10, align 8
  %11 = getelementptr inbounds { i64, { i64, i64 } }, { i64, { i64, i64 } }* %0, i32 0, i32 1
  %12 = getelementptr inbounds { i64, i64 }, { i64, i64 }* %_12, i32 0, i32 0
  %13 = load i64, i64* %12, align 8, !range !5
  %14 = getelementptr inbounds { i64, i64 }, { i64, i64 }* %_12, i32 0, i32 1
  %15 = load i64, i64* %14, align 8
  %16 = getelementptr inbounds { i64, i64 }, { i64, i64 }* %11, i32 0, i32 0
  store i64 %13, i64* %16, align 8
  %17 = getelementptr inbounds { i64, i64 }, { i64, i64 }* %11, i32 0, i32 1
  store i64 %15, i64* %17, align 8
  ret void

bb3:                                              ; preds = %bb2
  br label %bb6
}

; <proc_macro::bridge::client::TokenStream as proc_macro::bridge::rpc::DecodeMut<S>>::decode
; Function Attrs: nonlazybind uwtable
define internal i32 @"_ZN103_$LT$proc_macro..bridge..client..TokenStream$u20$as$u20$proc_macro..bridge..rpc..DecodeMut$LT$S$GT$$GT$6decode17hf2cb0ffa105a614eE"({ [0 x i8]*, i64 }* align 8 dereferenceable(16) %r, {}* nonnull align 1 %s) unnamed_addr #1 {
start:
  %0 = alloca %"proc_macro::bridge::client::TokenStream", align 4
; call <core::num::nonzero::NonZeroU32 as proc_macro::bridge::rpc::DecodeMut<S>>::decode
  %_3 = call i32 @"_ZN94_$LT$core..num..nonzero..NonZeroU32$u20$as$u20$proc_macro..bridge..rpc..DecodeMut$LT$S$GT$$GT$6decode17h603e2bfddb5333f8E"({ [0 x i8]*, i64 }* align 8 dereferenceable(16) %r, {}* nonnull align 1 %s), !range !2
  br label %bb1

bb1:                                              ; preds = %start
  %1 = bitcast %"proc_macro::bridge::client::TokenStream"* %0 to i32*
  store i32 %_3, i32* %1, align 4
  %2 = bitcast %"proc_macro::bridge::client::TokenStream"* %0 to i32*
  %3 = load i32, i32* %2, align 4
  ret i32 %3
}

; <alloc::boxed::Box<I,A> as core::iter::traits::double_ended::DoubleEndedIterator>::next_back
; Function Attrs: nonlazybind uwtable
define internal align 8 dereferenceable_or_null(360) i64* @"_ZN104_$LT$alloc..boxed..Box$LT$I$C$A$GT$$u20$as$u20$core..iter..traits..double_ended..DoubleEndedIterator$GT$9next_back17hb5ecea6c9547a3d4E"({ {}*, [3 x i64]* }* align 8 dereferenceable(16) %self) unnamed_addr #1 {
start:
  %0 = getelementptr inbounds { {}*, [3 x i64]* }, { {}*, [3 x i64]* }* %self, i32 0, i32 0
  %_2.0 = load {}*, {}** %0, align 8, !nonnull !3
  %1 = getelementptr inbounds { {}*, [3 x i64]* }, { {}*, [3 x i64]* }* %self, i32 0, i32 1
  %_2.1 = load [3 x i64]*, [3 x i64]** %1, align 8, !nonnull !3
  %2 = bitcast [3 x i64]* %_2.1 to i64* ({}*)**
  %3 = getelementptr inbounds i64* ({}*)*, i64* ({}*)** %2, i64 7
  %4 = load i64* ({}*)*, i64* ({}*)** %3, align 8, !invariant.load !3, !nonnull !3
  %5 = call align 8 dereferenceable_or_null(360) i64* %4({}* align 1 %_2.0)
  br label %bb1

bb1:                                              ; preds = %start
  ret i64* %5
}

; <core::iter::adapters::cloned::Cloned<I> as core::iter::traits::iterator::Iterator>::fold
; Function Attrs: nonlazybind uwtable
define internal void @"_ZN104_$LT$core..iter..adapters..cloned..Cloned$LT$I$GT$$u20$as$u20$core..iter..traits..iterator..Iterator$GT$4fold17h4753ab76c3b9eee1E"(i32* nonnull %self.0, i32* %self.1, i64* align 8 dereferenceable(24) %f) unnamed_addr #1 personality i32 (i32, i32, i64, %"unwind::libunwind::_Unwind_Exception"*, %"unwind::libunwind::_Unwind_Context"*)* @rust_eh_personality {
start:
  %0 = alloca { i8*, i32 }, align 8
  %_9 = alloca i8, align 1
  %_8 = alloca i8, align 1
  store i8 0, i8* %_9, align 1
  store i8 0, i8* %_8, align 1
  store i8 1, i8* %_9, align 1
  store i8 1, i8* %_8, align 1
; invoke core::iter::traits::iterator::Iterator::map
  %1 = invoke { i32*, i32* } @_ZN4core4iter6traits8iterator8Iterator3map17h11967344bcf75b49E(i32* nonnull %self.0, i32* %self.1)
          to label %bb1 unwind label %cleanup

bb1:                                              ; preds = %start
  %_4.0 = extractvalue { i32*, i32* } %1, 0
  %_4.1 = extractvalue { i32*, i32* } %1, 1
  store i8 0, i8* %_9, align 1
  store i8 0, i8* %_8, align 1
; invoke <core::iter::adapters::map::Map<I,F> as core::iter::traits::iterator::Iterator>::fold
  invoke void @"_ZN102_$LT$core..iter..adapters..map..Map$LT$I$C$F$GT$$u20$as$u20$core..iter..traits..iterator..Iterator$GT$4fold17ha1f1c81ae669a6beE"(i32* nonnull %_4.0, i32* %_4.1, i64* align 8 dereferenceable(24) %f)
          to label %bb2 unwind label %cleanup

bb6:                                              ; preds = %cleanup
  %2 = load i8, i8* %_8, align 1, !range !4
  %3 = trunc i8 %2 to i1
  br i1 %3, label %bb5, label %bb3

cleanup:                                          ; preds = %bb1, %start
  %4 = landingpad { i8*, i32 }
          cleanup
  %5 = extractvalue { i8*, i32 } %4, 0
  %6 = extractvalue { i8*, i32 } %4, 1
  %7 = getelementptr inbounds { i8*, i32 }, { i8*, i32 }* %0, i32 0, i32 0
  store i8* %5, i8** %7, align 8
  %8 = getelementptr inbounds { i8*, i32 }, { i8*, i32 }* %0, i32 0, i32 1
  store i32 %6, i32* %8, align 8
  br label %bb6

bb2:                                              ; preds = %bb1
  ret void

bb3:                                              ; preds = %bb5, %bb6
  %9 = load i8, i8* %_9, align 1, !range !4
  %10 = trunc i8 %9 to i1
  br i1 %10, label %bb7, label %bb4

bb5:                                              ; preds = %bb6
  br label %bb3

bb4:                                              ; preds = %bb7, %bb3
  %11 = bitcast { i8*, i32 }* %0 to i8**
  %12 = load i8*, i8** %11, align 8
  %13 = getelementptr inbounds { i8*, i32 }, { i8*, i32 }* %0, i32 0, i32 1
  %14 = load i32, i32* %13, align 8
  %15 = insertvalue { i8*, i32 } undef, i8* %12, 0
  %16 = insertvalue { i8*, i32 } %15, i32 %14, 1
  resume { i8*, i32 } %16

bb7:                                              ; preds = %bb3
  br label %bb4
}

; <core::iter::adapters::cloned::Cloned<I> as core::iter::traits::iterator::Iterator>::size_hint
; Function Attrs: nonlazybind uwtable
define internal void @"_ZN104_$LT$core..iter..adapters..cloned..Cloned$LT$I$GT$$u20$as$u20$core..iter..traits..iterator..Iterator$GT$9size_hint17h5fa2547177c9e9b3E"({ i64, { i64, i64 } }* noalias nocapture sret({ i64, { i64, i64 } }) dereferenceable(24) %0, { i32*, i32* }* align 8 dereferenceable(16) %self) unnamed_addr #1 {
start:
; call <core::slice::iter::Iter<T> as core::iter::traits::iterator::Iterator>::size_hint
  call void @"_ZN91_$LT$core..slice..iter..Iter$LT$T$GT$$u20$as$u20$core..iter..traits..iterator..Iterator$GT$9size_hint17h4c77231177bf2d4bE"({ i64, { i64, i64 } }* noalias nocapture sret({ i64, { i64, i64 } }) dereferenceable(24) %0, { i32*, i32* }* align 8 dereferenceable(16) %self)
  br label %bb1

bb1:                                              ; preds = %start
  ret void
}

; <syn::punctuated::Iter<T> as core::iter::traits::double_ended::DoubleEndedIterator>::next_back
; Function Attrs: nonlazybind uwtable
define internal align 8 dereferenceable_or_null(360) i64* @"_ZN104_$LT$syn..punctuated..Iter$LT$T$GT$$u20$as$u20$core..iter..traits..double_ended..DoubleEndedIterator$GT$9next_back17h4c0c6d704681e1beE"({ i8*, i64* }* align 8 dereferenceable(16) %self) unnamed_addr #1 {
start:
  %_2 = bitcast { i8*, i64* }* %self to { {}*, [3 x i64]* }*
; call <alloc::boxed::Box<I,A> as core::iter::traits::double_ended::DoubleEndedIterator>::next_back
  %0 = call align 8 dereferenceable_or_null(360) i64* @"_ZN104_$LT$alloc..boxed..Box$LT$I$C$A$GT$$u20$as$u20$core..iter..traits..double_ended..DoubleEndedIterator$GT$9next_back17hb5ecea6c9547a3d4E"({ {}*, [3 x i64]* }* align 8 dereferenceable(16) %_2)
  br label %bb1

bb1:                                              ; preds = %start
  ret i64* %0
}

; <core::slice::iter::Iter<T> as core::iter::traits::double_ended::DoubleEndedIterator>::next_back
; Function Attrs: inlinehint nonlazybind uwtable
define internal align 8 dereferenceable_or_null(368) i64* @"_ZN106_$LT$core..slice..iter..Iter$LT$T$GT$$u20$as$u20$core..iter..traits..double_ended..DoubleEndedIterator$GT$9next_back17h7043b2c4c458a1a3E"({ i64*, i64* }* align 8 dereferenceable(16) %self) unnamed_addr #0 {
start:
  %0 = alloca { %"syn::path::GenericArgument", %"syn::token::Comma", [1 x i32] }*, align 8
  %1 = alloca { %"syn::path::GenericArgument", %"syn::token::Comma", [1 x i32] }*, align 8
  %2 = alloca i64*, align 8
  %3 = bitcast { i64*, i64* }* %self to i64**
  %_6 = load i64*, i64** %3, align 8, !nonnull !3
; call core::ptr::non_null::NonNull<T>::as_ptr
  %_5 = call { %"syn::path::GenericArgument", %"syn::token::Comma", [1 x i32] }* @"_ZN4core3ptr8non_null16NonNull$LT$T$GT$6as_ptr17had983af623f966e0E"(i64* nonnull %_6)
  br label %bb1

bb1:                                              ; preds = %start
; call core::ptr::mut_ptr::<impl *mut T>::is_null
  %_4 = call zeroext i1 @"_ZN4core3ptr7mut_ptr31_$LT$impl$u20$$BP$mut$u20$T$GT$7is_null17h8526771b47086149E"({ %"syn::path::GenericArgument", %"syn::token::Comma", [1 x i32] }* %_5)
  br label %bb2

bb2:                                              ; preds = %bb1
  %_3 = xor i1 %_4, true
  call void @llvm.assume(i1 %_3)
  br label %bb3

bb3:                                              ; preds = %bb2
  br label %bb4

bb4:                                              ; preds = %bb3
  %4 = icmp eq i64 368, 0
  br i1 %4, label %bb8, label %bb5

bb8:                                              ; preds = %bb4
  br label %bb9

bb5:                                              ; preds = %bb4
  %5 = getelementptr inbounds { i64*, i64* }, { i64*, i64* }* %self, i32 0, i32 1
  %6 = bitcast i64** %5 to { %"syn::path::GenericArgument", %"syn::token::Comma", [1 x i32] }**
  %_11 = load { %"syn::path::GenericArgument", %"syn::token::Comma", [1 x i32] }*, { %"syn::path::GenericArgument", %"syn::token::Comma", [1 x i32] }** %6, align 8
; call core::ptr::const_ptr::<impl *const T>::is_null
  %_10 = call zeroext i1 @"_ZN4core3ptr9const_ptr33_$LT$impl$u20$$BP$const$u20$T$GT$7is_null17he132fd0a34a51a22E"({ %"syn::path::GenericArgument", %"syn::token::Comma", [1 x i32] }* %_11)
  br label %bb6

bb6:                                              ; preds = %bb5
  %_9 = xor i1 %_10, true
  call void @llvm.assume(i1 %_9)
  br label %bb7

bb7:                                              ; preds = %bb6
  br label %bb9

bb9:                                              ; preds = %bb8, %bb7
  %7 = bitcast { i64*, i64* }* %self to i64**
  %_15 = load i64*, i64** %7, align 8, !nonnull !3
; call core::ptr::non_null::NonNull<T>::as_ptr
  %_14 = call { %"syn::path::GenericArgument", %"syn::token::Comma", [1 x i32] }* @"_ZN4core3ptr8non_null16NonNull$LT$T$GT$6as_ptr17had983af623f966e0E"(i64* nonnull %_15)
  br label %bb10

bb10:                                             ; preds = %bb9
  %8 = getelementptr inbounds { i64*, i64* }, { i64*, i64* }* %self, i32 0, i32 1
  %9 = bitcast i64** %8 to { %"syn::path::GenericArgument", %"syn::token::Comma", [1 x i32] }**
  %_16 = load { %"syn::path::GenericArgument", %"syn::token::Comma", [1 x i32] }*, { %"syn::path::GenericArgument", %"syn::token::Comma", [1 x i32] }** %9, align 8
  %_12 = icmp eq { %"syn::path::GenericArgument", %"syn::token::Comma", [1 x i32] }* %_14, %_16
  br i1 %_12, label %bb11, label %bb12

bb12:                                             ; preds = %bb10
  %10 = getelementptr inbounds { i64*, i64* }, { i64*, i64* }* %self, i32 0, i32 1
  %11 = bitcast i64** %10 to { %"syn::path::GenericArgument", %"syn::token::Comma", [1 x i32] }**
  %_12.i = load { %"syn::path::GenericArgument", %"syn::token::Comma", [1 x i32] }*, { %"syn::path::GenericArgument", %"syn::token::Comma", [1 x i32] }** %11, align 8
  %12 = getelementptr inbounds { %"syn::path::GenericArgument", %"syn::token::Comma", [1 x i32] }, { %"syn::path::GenericArgument", %"syn::token::Comma", [1 x i32] }* %_12.i, i64 -1
  store { %"syn::path::GenericArgument", %"syn::token::Comma", [1 x i32] }* %12, { %"syn::path::GenericArgument", %"syn::token::Comma", [1 x i32] }** %0, align 8
  %13 = load { %"syn::path::GenericArgument", %"syn::token::Comma", [1 x i32] }*, { %"syn::path::GenericArgument", %"syn::token::Comma", [1 x i32] }** %0, align 8
  %14 = getelementptr inbounds { i64*, i64* }, { i64*, i64* }* %self, i32 0, i32 1
  %15 = bitcast i64** %14 to { %"syn::path::GenericArgument", %"syn::token::Comma", [1 x i32] }**
  store { %"syn::path::GenericArgument", %"syn::token::Comma", [1 x i32] }* %13, { %"syn::path::GenericArgument", %"syn::token::Comma", [1 x i32] }** %15, align 8
  %16 = getelementptr inbounds { i64*, i64* }, { i64*, i64* }* %self, i32 0, i32 1
  %17 = bitcast i64** %16 to { %"syn::path::GenericArgument", %"syn::token::Comma", [1 x i32] }**
  %18 = load { %"syn::path::GenericArgument", %"syn::token::Comma", [1 x i32] }*, { %"syn::path::GenericArgument", %"syn::token::Comma", [1 x i32] }** %17, align 8
  store { %"syn::path::GenericArgument", %"syn::token::Comma", [1 x i32] }* %18, { %"syn::path::GenericArgument", %"syn::token::Comma", [1 x i32] }** %1, align 8
  %19 = load { %"syn::path::GenericArgument", %"syn::token::Comma", [1 x i32] }*, { %"syn::path::GenericArgument", %"syn::token::Comma", [1 x i32] }** %1, align 8
  br label %bb13

bb11:                                             ; preds = %bb10
  %20 = bitcast i64** %2 to {}**
  store {}* null, {}** %20, align 8
  br label %bb14

bb14:                                             ; preds = %bb13, %bb11
  %21 = load i64*, i64** %2, align 8
  ret i64* %21

bb13:                                             ; preds = %bb12
  %22 = bitcast i64** %2 to { %"syn::path::GenericArgument", %"syn::token::Comma", [1 x i32] }**
  store { %"syn::path::GenericArgument", %"syn::token::Comma", [1 x i32] }* %19, { %"syn::path::GenericArgument", %"syn::token::Comma", [1 x i32] }** %22, align 8
  br label %bb14
}

; <alloc::string::String as core::ops::index::Index<core::ops::range::Range<usize>>>::index
; Function Attrs: inlinehint nonlazybind uwtable
define internal { [0 x i8]*, i64 } @"_ZN109_$LT$alloc..string..String$u20$as$u20$core..ops..index..Index$LT$core..ops..range..Range$LT$usize$GT$$GT$$GT$5index17h31e46b9abf739a88E"(%"alloc::string::String"* align 8 dereferenceable(24) %self, i64 %index.0, i64 %index.1, %"core::panic::location::Location"* align 8 dereferenceable(24) %0) unnamed_addr #0 {
start:
; call <alloc::string::String as core::ops::index::Index<core::ops::range::RangeFull>>::index
  %1 = call { [0 x i8]*, i64 } @"_ZN100_$LT$alloc..string..String$u20$as$u20$core..ops..index..Index$LT$core..ops..range..RangeFull$GT$$GT$5index17hf92410a92d0335ceE"(%"alloc::string::String"* align 8 dereferenceable(24) %self, %"core::panic::location::Location"* align 8 dereferenceable(24) %0)
  %_5.0 = extractvalue { [0 x i8]*, i64 } %1, 0
  %_5.1 = extractvalue { [0 x i8]*, i64 } %1, 1
  br label %bb1

bb1:                                              ; preds = %start
; call core::str::traits::<impl core::ops::index::Index<I> for str>::index
  %2 = call { [0 x i8]*, i64 } @"_ZN4core3str6traits66_$LT$impl$u20$core..ops..index..Index$LT$I$GT$$u20$for$u20$str$GT$5index17hbc164f4155ccfd5dE"([0 x i8]* nonnull align 1 %_5.0, i64 %_5.1, i64 %index.0, i64 %index.1, %"core::panic::location::Location"* align 8 dereferenceable(24) %0)
  %_3.0 = extractvalue { [0 x i8]*, i64 } %2, 0
  %_3.1 = extractvalue { [0 x i8]*, i64 } %2, 1
  br label %bb2

bb2:                                              ; preds = %bb1
  %3 = insertvalue { [0 x i8]*, i64 } undef, [0 x i8]* %_3.0, 0
  %4 = insertvalue { [0 x i8]*, i64 } %3, i64 %_3.1, 1
  ret { [0 x i8]*, i64 } %4
}

; proc_macro::bridge::scoped_cell::ScopedCell<T>::new
; Function Attrs: nonlazybind uwtable
define internal void @"_ZN10proc_macro6bridge11scoped_cell19ScopedCell$LT$T$GT$3new17h11d39cd91c317deaE"(%"proc_macro::bridge::scoped_cell::ScopedCell<proc_macro::bridge::client::BridgeStateL>"* noalias nocapture sret(%"proc_macro::bridge::scoped_cell::ScopedCell<proc_macro::bridge::client::BridgeStateL>") dereferenceable(64) %0, %"proc_macro::bridge::client::BridgeState"* noalias nocapture dereferenceable(64) %value) unnamed_addr #1 {
start:
  %_3 = alloca %"proc_macro::bridge::client::BridgeState", align 8
  %_2 = alloca %"core::cell::Cell<proc_macro::bridge::client::BridgeState>", align 8
  %1 = bitcast %"proc_macro::bridge::client::BridgeState"* %_3 to i8*
  %2 = bitcast %"proc_macro::bridge::client::BridgeState"* %value to i8*
  call void @llvm.memcpy.p0i8.p0i8.i64(i8* align 8 %1, i8* align 8 %2, i64 64, i1 false)
; call core::cell::Cell<T>::new
  call void @"_ZN4core4cell13Cell$LT$T$GT$3new17h143acaf55a51cc88E"(%"core::cell::Cell<proc_macro::bridge::client::BridgeState>"* noalias nocapture sret(%"core::cell::Cell<proc_macro::bridge::client::BridgeState>") dereferenceable(64) %_2, %"proc_macro::bridge::client::BridgeState"* noalias nocapture dereferenceable(64) %_3)
  br label %bb1

bb1:                                              ; preds = %start
  %3 = bitcast %"proc_macro::bridge::scoped_cell::ScopedCell<proc_macro::bridge::client::BridgeStateL>"* %0 to %"core::cell::Cell<proc_macro::bridge::client::BridgeState>"*
  %4 = bitcast %"core::cell::Cell<proc_macro::bridge::client::BridgeState>"* %3 to i8*
  %5 = bitcast %"core::cell::Cell<proc_macro::bridge::client::BridgeState>"* %_2 to i8*
  call void @llvm.memcpy.p0i8.p0i8.i64(i8* align 8 %4, i8* align 8 %5, i64 64, i1 false)
  ret void
}

; proc_macro::bridge::scoped_cell::ScopedCell<T>::set
; Function Attrs: nonlazybind uwtable
define internal void @"_ZN10proc_macro6bridge11scoped_cell19ScopedCell$LT$T$GT$3set17h75210c4125691dd6E"(%"proc_macro::bridge::scoped_cell::ScopedCell<proc_macro::bridge::client::BridgeStateL>"* align 8 dereferenceable(64) %self, %"proc_macro::bridge::client::BridgeState"* noalias nocapture dereferenceable(64) %value, i64* align 8 dereferenceable(40) %f.0, i64* nonnull %f.1) unnamed_addr #1 {
start:
  %_6 = alloca { i64*, i64* }, align 8
  %_5 = alloca %"proc_macro::bridge::client::BridgeState", align 8
  %0 = bitcast %"proc_macro::bridge::client::BridgeState"* %_5 to i8*
  %1 = bitcast %"proc_macro::bridge::client::BridgeState"* %value to i8*
  call void @llvm.memcpy.p0i8.p0i8.i64(i8* align 8 %0, i8* align 8 %1, i64 64, i1 false)
  %2 = getelementptr inbounds { i64*, i64* }, { i64*, i64* }* %_6, i32 0, i32 0
  store i64* %f.0, i64** %2, align 8
  %3 = getelementptr inbounds { i64*, i64* }, { i64*, i64* }* %_6, i32 0, i32 1
  store i64* %f.1, i64** %3, align 8
  %4 = getelementptr inbounds { i64*, i64* }, { i64*, i64* }* %_6, i32 0, i32 0
  %5 = load i64*, i64** %4, align 8, !nonnull !3
  %6 = getelementptr inbounds { i64*, i64* }, { i64*, i64* }* %_6, i32 0, i32 1
  %7 = load i64*, i64** %6, align 8, !nonnull !3
; call proc_macro::bridge::scoped_cell::ScopedCell<T>::replace
  call void @"_ZN10proc_macro6bridge11scoped_cell19ScopedCell$LT$T$GT$7replace17hccdc3cefec548304E"(%"proc_macro::bridge::scoped_cell::ScopedCell<proc_macro::bridge::client::BridgeStateL>"* align 8 dereferenceable(64) %self, %"proc_macro::bridge::client::BridgeState"* noalias nocapture dereferenceable(64) %_5, i64* align 8 dereferenceable(40) %5, i64* nonnull %7)
  br label %bb1

bb1:                                              ; preds = %start
  ret void
}

; proc_macro::bridge::scoped_cell::ScopedCell<T>::set::{{closure}}
; Function Attrs: inlinehint nonlazybind uwtable
define internal void @"_ZN10proc_macro6bridge11scoped_cell19ScopedCell$LT$T$GT$3set28_$u7b$$u7b$closure$u7d$$u7d$17h6f7446d9ded57584E"(i64* align 8 dereferenceable(40) %_1.0, i64* nonnull %_1.1, i64* align 8 dereferenceable(64) %_2) unnamed_addr #0 {
start:
; call proc_macro::bridge::client::run_client::{{closure}}::{{closure}}
  call void @"_ZN10proc_macro6bridge6client10run_client28_$u7b$$u7b$closure$u7d$$u7d$28_$u7b$$u7b$closure$u7d$$u7d$17h7f5ce0dbbaf79954E"(i64* align 8 dereferenceable(40) %_1.0, i64* nonnull %_1.1)
  br label %bb1

bb1:                                              ; preds = %start
  ret void
}

; proc_macro::bridge::scoped_cell::ScopedCell<T>::replace
; Function Attrs: nonlazybind uwtable
define internal void @"_ZN10proc_macro6bridge11scoped_cell19ScopedCell$LT$T$GT$7replace17had875ff7ee53f170E"(%"proc_macro::bridge::buffer::Buffer<u8>"* noalias nocapture sret(%"proc_macro::bridge::buffer::Buffer<u8>") dereferenceable(40) %0, %"proc_macro::bridge::scoped_cell::ScopedCell<proc_macro::bridge::client::BridgeStateL>"* align 8 dereferenceable(64) %self, %"proc_macro::bridge::client::BridgeState"* noalias nocapture dereferenceable(64) %replacement) unnamed_addr #1 personality i32 (i32, i32, i64, %"unwind::libunwind::_Unwind_Exception"*, %"unwind::libunwind::_Unwind_Context"*)* @rust_eh_personality {
start:
  %1 = alloca { i8*, i32 }, align 8
  %_24 = alloca i8, align 1
  %_23 = alloca i8, align 1
  %_22 = alloca i8, align 1
  %_17 = alloca i64*, align 8
  %_16 = alloca i64*, align 8
  %_14 = alloca %"proc_macro::bridge::client::BridgeState", align 8
  %erased = alloca %"proc_macro::bridge::client::BridgeState", align 8
  %_9 = alloca %"proc_macro::bridge::client::BridgeState", align 8
  %_7 = alloca %"proc_macro::bridge::client::BridgeState", align 8
  %_6 = alloca %"core::option::Option<proc_macro::bridge::client::BridgeState>", align 8
  %put_back_on_drop = alloca %"proc_macro::bridge::scoped_cell::ScopedCell<T>::replace::PutBackOnDrop<proc_macro::bridge::client::BridgeStateL>", align 8
  store i8 0, i8* %_23, align 1
  store i8 0, i8* %_24, align 1
  store i8 0, i8* %_22, align 1
  store i8 1, i8* %_24, align 1
  store i8 1, i8* %_23, align 1
  %_8 = bitcast %"proc_macro::bridge::scoped_cell::ScopedCell<proc_macro::bridge::client::BridgeStateL>"* %self to %"core::cell::Cell<proc_macro::bridge::client::BridgeState>"*
; invoke core::mem::transmute_copy
  invoke void @_ZN4core3mem14transmute_copy17hcb7b03024be7ff4aE(%"proc_macro::bridge::client::BridgeState"* noalias nocapture sret(%"proc_macro::bridge::client::BridgeState") dereferenceable(64) %erased, %"proc_macro::bridge::client::BridgeState"* align 8 dereferenceable(64) %replacement)
          to label %bb1 unwind label %cleanup

bb1:                                              ; preds = %start
  store i8 0, i8* %_24, align 1
  %2 = bitcast %"proc_macro::bridge::client::BridgeState"* %_14 to i8*
  %3 = bitcast %"proc_macro::bridge::client::BridgeState"* %replacement to i8*
  call void @llvm.memcpy.p0i8.p0i8.i64(i8* align 8 %2, i8* align 8 %3, i64 64, i1 false)
; invoke core::mem::forget
  invoke void @_ZN4core3mem6forget17h42bfdcca4e6257e9E(%"proc_macro::bridge::client::BridgeState"* noalias nocapture dereferenceable(64) %_14)
          to label %bb2 unwind label %cleanup1

bb15:                                             ; preds = %bb8, %bb9, %cleanup
  %4 = load i8, i8* %_23, align 1, !range !4
  %5 = trunc i8 %4 to i1
  br i1 %5, label %bb14, label %bb10

cleanup:                                          ; preds = %bb6, %bb2, %start
  %6 = landingpad { i8*, i32 }
          cleanup
  %7 = extractvalue { i8*, i32 } %6, 0
  %8 = extractvalue { i8*, i32 } %6, 1
  %9 = getelementptr inbounds { i8*, i32 }, { i8*, i32 }* %1, i32 0, i32 0
  store i8* %7, i8** %9, align 8
  %10 = getelementptr inbounds { i8*, i32 }, { i8*, i32 }* %1, i32 0, i32 1
  store i32 %8, i32* %10, align 8
  br label %bb15

bb2:                                              ; preds = %bb1
  %11 = bitcast %"proc_macro::bridge::client::BridgeState"* %_9 to i8*
  %12 = bitcast %"proc_macro::bridge::client::BridgeState"* %erased to i8*
  call void @llvm.memcpy.p0i8.p0i8.i64(i8* align 8 %11, i8* align 8 %12, i64 64, i1 false)
; invoke core::cell::Cell<T>::replace
  invoke void @"_ZN4core4cell13Cell$LT$T$GT$7replace17h175cdc159d6f1037E"(%"proc_macro::bridge::client::BridgeState"* noalias nocapture sret(%"proc_macro::bridge::client::BridgeState") dereferenceable(64) %_7, %"core::cell::Cell<proc_macro::bridge::client::BridgeState>"* align 8 dereferenceable(64) %_8, %"proc_macro::bridge::client::BridgeState"* noalias nocapture dereferenceable(64) %_9)
          to label %bb3 unwind label %cleanup

bb9:                                              ; preds = %cleanup1
; call core::ptr::drop_in_place<proc_macro::bridge::client::BridgeState>
  call void @"_ZN4core3ptr60drop_in_place$LT$proc_macro..bridge..client..BridgeState$GT$17h1a413a87d795267fE"(%"proc_macro::bridge::client::BridgeState"* %erased) #18
  br label %bb15

cleanup1:                                         ; preds = %bb1
  %13 = landingpad { i8*, i32 }
          cleanup
  %14 = extractvalue { i8*, i32 } %13, 0
  %15 = extractvalue { i8*, i32 } %13, 1
  %16 = getelementptr inbounds { i8*, i32 }, { i8*, i32 }* %1, i32 0, i32 0
  store i8* %14, i8** %16, align 8
  %17 = getelementptr inbounds { i8*, i32 }, { i8*, i32 }* %1, i32 0, i32 1
  store i32 %15, i32* %17, align 8
  br label %bb9

bb3:                                              ; preds = %bb2
  %18 = bitcast %"core::option::Option<proc_macro::bridge::client::BridgeState>"* %_6 to %"core::option::Option<proc_macro::bridge::client::BridgeState>::Some"*
  %19 = bitcast %"core::option::Option<proc_macro::bridge::client::BridgeState>::Some"* %18 to %"proc_macro::bridge::client::BridgeState"*
  %20 = bitcast %"proc_macro::bridge::client::BridgeState"* %19 to i8*
  %21 = bitcast %"proc_macro::bridge::client::BridgeState"* %_7 to i8*
  call void @llvm.memcpy.p0i8.p0i8.i64(i8* align 8 %20, i8* align 8 %21, i64 64, i1 false)
  %22 = bitcast %"proc_macro::bridge::scoped_cell::ScopedCell<T>::replace::PutBackOnDrop<proc_macro::bridge::client::BridgeStateL>"* %put_back_on_drop to %"proc_macro::bridge::scoped_cell::ScopedCell<proc_macro::bridge::client::BridgeStateL>"**
  store %"proc_macro::bridge::scoped_cell::ScopedCell<proc_macro::bridge::client::BridgeStateL>"* %self, %"proc_macro::bridge::scoped_cell::ScopedCell<proc_macro::bridge::client::BridgeStateL>"** %22, align 8
  %23 = getelementptr inbounds %"proc_macro::bridge::scoped_cell::ScopedCell<T>::replace::PutBackOnDrop<proc_macro::bridge::client::BridgeStateL>", %"proc_macro::bridge::scoped_cell::ScopedCell<T>::replace::PutBackOnDrop<proc_macro::bridge::client::BridgeStateL>"* %put_back_on_drop, i32 0, i32 1
  %24 = bitcast %"core::option::Option<proc_macro::bridge::client::BridgeState>"* %23 to i8*
  %25 = bitcast %"core::option::Option<proc_macro::bridge::client::BridgeState>"* %_6 to i8*
  call void @llvm.memcpy.p0i8.p0i8.i64(i8* align 8 %24, i8* align 8 %25, i64 64, i1 false)
  store i8 0, i8* %_23, align 1
  store i8 1, i8* %_22, align 1
  %_21 = getelementptr inbounds %"proc_macro::bridge::scoped_cell::ScopedCell<T>::replace::PutBackOnDrop<proc_macro::bridge::client::BridgeStateL>", %"proc_macro::bridge::scoped_cell::ScopedCell<T>::replace::PutBackOnDrop<proc_macro::bridge::client::BridgeStateL>"* %put_back_on_drop, i32 0, i32 1
; invoke core::option::Option<T>::as_mut
  %_20 = invoke align 8 dereferenceable_or_null(64) i64* @"_ZN4core6option15Option$LT$T$GT$6as_mut17hd6835279e54f6908E"(%"core::option::Option<proc_macro::bridge::client::BridgeState>"* align 8 dereferenceable(64) %_21)
          to label %bb4 unwind label %cleanup2

bb4:                                              ; preds = %bb3
; invoke core::option::Option<T>::unwrap
  %_19 = invoke align 8 dereferenceable(64) %"proc_macro::bridge::client::BridgeState"* @"_ZN4core6option15Option$LT$T$GT$6unwrap17h22a828699c879efeE"(i64* align 8 dereferenceable_or_null(64) %_20, %"core::panic::location::Location"* align 8 dereferenceable(24) bitcast (<{ i8*, [16 x i8] }>* @alloc504 to %"core::panic::location::Location"*))
          to label %bb5 unwind label %cleanup2

bb13:                                             ; preds = %cleanup2
  %26 = load i8, i8* %_22, align 1, !range !4
  %27 = trunc i8 %26 to i1
  br i1 %27, label %bb12, label %bb8

cleanup2:                                         ; preds = %bb5, %bb4, %bb3
  %28 = landingpad { i8*, i32 }
          cleanup
  %29 = extractvalue { i8*, i32 } %28, 0
  %30 = extractvalue { i8*, i32 } %28, 1
  %31 = getelementptr inbounds { i8*, i32 }, { i8*, i32 }* %1, i32 0, i32 0
  store i8* %29, i8** %31, align 8
  %32 = getelementptr inbounds { i8*, i32 }, { i8*, i32 }* %1, i32 0, i32 1
  store i32 %30, i32* %32, align 8
  br label %bb13

bb5:                                              ; preds = %bb4
  %33 = bitcast i64** %_17 to %"proc_macro::bridge::client::BridgeState"**
  store %"proc_macro::bridge::client::BridgeState"* %_19, %"proc_macro::bridge::client::BridgeState"** %33, align 8
  %34 = load i64*, i64** %_17, align 8, !nonnull !3
  store i64* %34, i64** %_16, align 8
  store i8 0, i8* %_22, align 1
  %35 = load i64*, i64** %_16, align 8, !nonnull !3
; invoke proc_macro::bridge::client::BridgeState::with::{{closure}}::{{closure}}
  invoke void @"_ZN10proc_macro6bridge6client11BridgeState4with28_$u7b$$u7b$closure$u7d$$u7d$28_$u7b$$u7b$closure$u7d$$u7d$17hfd2b2e741668cd1aE"(%"proc_macro::bridge::buffer::Buffer<u8>"* noalias nocapture sret(%"proc_macro::bridge::buffer::Buffer<u8>") dereferenceable(40) %0, i64* align 8 dereferenceable(64) %35)
          to label %bb6 unwind label %cleanup2

bb6:                                              ; preds = %bb5
  store i8 0, i8* %_22, align 1
; invoke core::ptr::drop_in_place<proc_macro::bridge::scoped_cell::ScopedCell<T>::replace::PutBackOnDrop<proc_macro::bridge::client::BridgeStateL>>
  invoke void @"_ZN4core3ptr145drop_in_place$LT$proc_macro..bridge..scoped_cell..ScopedCell$LT$T$GT$..replace..PutBackOnDrop$LT$proc_macro..bridge..client..BridgeStateL$GT$$GT$17hfd083529fe484d5bE"(%"proc_macro::bridge::scoped_cell::ScopedCell<T>::replace::PutBackOnDrop<proc_macro::bridge::client::BridgeStateL>"* %put_back_on_drop)
          to label %bb7 unwind label %cleanup

bb8:                                              ; preds = %bb12, %bb13
; call core::ptr::drop_in_place<proc_macro::bridge::scoped_cell::ScopedCell<T>::replace::PutBackOnDrop<proc_macro::bridge::client::BridgeStateL>>
  call void @"_ZN4core3ptr145drop_in_place$LT$proc_macro..bridge..scoped_cell..ScopedCell$LT$T$GT$..replace..PutBackOnDrop$LT$proc_macro..bridge..client..BridgeStateL$GT$$GT$17hfd083529fe484d5bE"(%"proc_macro::bridge::scoped_cell::ScopedCell<T>::replace::PutBackOnDrop<proc_macro::bridge::client::BridgeStateL>"* %put_back_on_drop) #18
  br label %bb15

bb12:                                             ; preds = %bb13
  br label %bb8

bb7:                                              ; preds = %bb6
  ret void

bb10:                                             ; preds = %bb14, %bb15
  %36 = load i8, i8* %_24, align 1, !range !4
  %37 = trunc i8 %36 to i1
  br i1 %37, label %bb16, label %bb11

bb14:                                             ; preds = %bb15
  br label %bb10

bb11:                                             ; preds = %bb16, %bb10
  %38 = bitcast { i8*, i32 }* %1 to i8**
  %39 = load i8*, i8** %38, align 8
  %40 = getelementptr inbounds { i8*, i32 }, { i8*, i32 }* %1, i32 0, i32 1
  %41 = load i32, i32* %40, align 8
  %42 = insertvalue { i8*, i32 } undef, i8* %39, 0
  %43 = insertvalue { i8*, i32 } %42, i32 %41, 1
  resume { i8*, i32 } %43

bb16:                                             ; preds = %bb10
; call core::ptr::drop_in_place<proc_macro::bridge::client::BridgeState>
  call void @"_ZN4core3ptr60drop_in_place$LT$proc_macro..bridge..client..BridgeState$GT$17h1a413a87d795267fE"(%"proc_macro::bridge::client::BridgeState"* %replacement) #18
  br label %bb11
}

; proc_macro::bridge::scoped_cell::ScopedCell<T>::replace
; Function Attrs: nonlazybind uwtable
define internal void @"_ZN10proc_macro6bridge11scoped_cell19ScopedCell$LT$T$GT$7replace17hccdc3cefec548304E"(%"proc_macro::bridge::scoped_cell::ScopedCell<proc_macro::bridge::client::BridgeStateL>"* align 8 dereferenceable(64) %self, %"proc_macro::bridge::client::BridgeState"* noalias nocapture dereferenceable(64) %replacement, i64* align 8 dereferenceable(40) %f.0, i64* nonnull %f.1) unnamed_addr #1 personality i32 (i32, i32, i64, %"unwind::libunwind::_Unwind_Exception"*, %"unwind::libunwind::_Unwind_Context"*)* @rust_eh_personality {
start:
  %0 = alloca { i8*, i32 }, align 8
  %_24 = alloca i8, align 1
  %_23 = alloca i8, align 1
  %_22 = alloca i8, align 1
  %_17 = alloca i64*, align 8
  %_16 = alloca i64*, align 8
  %_14 = alloca %"proc_macro::bridge::client::BridgeState", align 8
  %erased = alloca %"proc_macro::bridge::client::BridgeState", align 8
  %_9 = alloca %"proc_macro::bridge::client::BridgeState", align 8
  %_7 = alloca %"proc_macro::bridge::client::BridgeState", align 8
  %_6 = alloca %"core::option::Option<proc_macro::bridge::client::BridgeState>", align 8
  %put_back_on_drop = alloca %"proc_macro::bridge::scoped_cell::ScopedCell<T>::replace::PutBackOnDrop<proc_macro::bridge::client::BridgeStateL>", align 8
  store i8 0, i8* %_23, align 1
  store i8 0, i8* %_24, align 1
  store i8 0, i8* %_22, align 1
  store i8 1, i8* %_24, align 1
  store i8 1, i8* %_23, align 1
  %_8 = bitcast %"proc_macro::bridge::scoped_cell::ScopedCell<proc_macro::bridge::client::BridgeStateL>"* %self to %"core::cell::Cell<proc_macro::bridge::client::BridgeState>"*
; invoke core::mem::transmute_copy
  invoke void @_ZN4core3mem14transmute_copy17hcb7b03024be7ff4aE(%"proc_macro::bridge::client::BridgeState"* noalias nocapture sret(%"proc_macro::bridge::client::BridgeState") dereferenceable(64) %erased, %"proc_macro::bridge::client::BridgeState"* align 8 dereferenceable(64) %replacement)
          to label %bb1 unwind label %cleanup

bb1:                                              ; preds = %start
  store i8 0, i8* %_24, align 1
  %1 = bitcast %"proc_macro::bridge::client::BridgeState"* %_14 to i8*
  %2 = bitcast %"proc_macro::bridge::client::BridgeState"* %replacement to i8*
  call void @llvm.memcpy.p0i8.p0i8.i64(i8* align 8 %1, i8* align 8 %2, i64 64, i1 false)
; invoke core::mem::forget
  invoke void @_ZN4core3mem6forget17h42bfdcca4e6257e9E(%"proc_macro::bridge::client::BridgeState"* noalias nocapture dereferenceable(64) %_14)
          to label %bb2 unwind label %cleanup1

bb15:                                             ; preds = %bb8, %bb9, %cleanup
  %3 = load i8, i8* %_23, align 1, !range !4
  %4 = trunc i8 %3 to i1
  br i1 %4, label %bb14, label %bb10

cleanup:                                          ; preds = %bb6, %bb2, %start
  %5 = landingpad { i8*, i32 }
          cleanup
  %6 = extractvalue { i8*, i32 } %5, 0
  %7 = extractvalue { i8*, i32 } %5, 1
  %8 = getelementptr inbounds { i8*, i32 }, { i8*, i32 }* %0, i32 0, i32 0
  store i8* %6, i8** %8, align 8
  %9 = getelementptr inbounds { i8*, i32 }, { i8*, i32 }* %0, i32 0, i32 1
  store i32 %7, i32* %9, align 8
  br label %bb15

bb2:                                              ; preds = %bb1
  %10 = bitcast %"proc_macro::bridge::client::BridgeState"* %_9 to i8*
  %11 = bitcast %"proc_macro::bridge::client::BridgeState"* %erased to i8*
  call void @llvm.memcpy.p0i8.p0i8.i64(i8* align 8 %10, i8* align 8 %11, i64 64, i1 false)
; invoke core::cell::Cell<T>::replace
  invoke void @"_ZN4core4cell13Cell$LT$T$GT$7replace17h175cdc159d6f1037E"(%"proc_macro::bridge::client::BridgeState"* noalias nocapture sret(%"proc_macro::bridge::client::BridgeState") dereferenceable(64) %_7, %"core::cell::Cell<proc_macro::bridge::client::BridgeState>"* align 8 dereferenceable(64) %_8, %"proc_macro::bridge::client::BridgeState"* noalias nocapture dereferenceable(64) %_9)
          to label %bb3 unwind label %cleanup

bb9:                                              ; preds = %cleanup1
; call core::ptr::drop_in_place<proc_macro::bridge::client::BridgeState>
  call void @"_ZN4core3ptr60drop_in_place$LT$proc_macro..bridge..client..BridgeState$GT$17h1a413a87d795267fE"(%"proc_macro::bridge::client::BridgeState"* %erased) #18
  br label %bb15

cleanup1:                                         ; preds = %bb1
  %12 = landingpad { i8*, i32 }
          cleanup
  %13 = extractvalue { i8*, i32 } %12, 0
  %14 = extractvalue { i8*, i32 } %12, 1
  %15 = getelementptr inbounds { i8*, i32 }, { i8*, i32 }* %0, i32 0, i32 0
  store i8* %13, i8** %15, align 8
  %16 = getelementptr inbounds { i8*, i32 }, { i8*, i32 }* %0, i32 0, i32 1
  store i32 %14, i32* %16, align 8
  br label %bb9

bb3:                                              ; preds = %bb2
  %17 = bitcast %"core::option::Option<proc_macro::bridge::client::BridgeState>"* %_6 to %"core::option::Option<proc_macro::bridge::client::BridgeState>::Some"*
  %18 = bitcast %"core::option::Option<proc_macro::bridge::client::BridgeState>::Some"* %17 to %"proc_macro::bridge::client::BridgeState"*
  %19 = bitcast %"proc_macro::bridge::client::BridgeState"* %18 to i8*
  %20 = bitcast %"proc_macro::bridge::client::BridgeState"* %_7 to i8*
  call void @llvm.memcpy.p0i8.p0i8.i64(i8* align 8 %19, i8* align 8 %20, i64 64, i1 false)
  %21 = bitcast %"proc_macro::bridge::scoped_cell::ScopedCell<T>::replace::PutBackOnDrop<proc_macro::bridge::client::BridgeStateL>"* %put_back_on_drop to %"proc_macro::bridge::scoped_cell::ScopedCell<proc_macro::bridge::client::BridgeStateL>"**
  store %"proc_macro::bridge::scoped_cell::ScopedCell<proc_macro::bridge::client::BridgeStateL>"* %self, %"proc_macro::bridge::scoped_cell::ScopedCell<proc_macro::bridge::client::BridgeStateL>"** %21, align 8
  %22 = getelementptr inbounds %"proc_macro::bridge::scoped_cell::ScopedCell<T>::replace::PutBackOnDrop<proc_macro::bridge::client::BridgeStateL>", %"proc_macro::bridge::scoped_cell::ScopedCell<T>::replace::PutBackOnDrop<proc_macro::bridge::client::BridgeStateL>"* %put_back_on_drop, i32 0, i32 1
  %23 = bitcast %"core::option::Option<proc_macro::bridge::client::BridgeState>"* %22 to i8*
  %24 = bitcast %"core::option::Option<proc_macro::bridge::client::BridgeState>"* %_6 to i8*
  call void @llvm.memcpy.p0i8.p0i8.i64(i8* align 8 %23, i8* align 8 %24, i64 64, i1 false)
  store i8 0, i8* %_23, align 1
  store i8 1, i8* %_22, align 1
  %_21 = getelementptr inbounds %"proc_macro::bridge::scoped_cell::ScopedCell<T>::replace::PutBackOnDrop<proc_macro::bridge::client::BridgeStateL>", %"proc_macro::bridge::scoped_cell::ScopedCell<T>::replace::PutBackOnDrop<proc_macro::bridge::client::BridgeStateL>"* %put_back_on_drop, i32 0, i32 1
; invoke core::option::Option<T>::as_mut
  %_20 = invoke align 8 dereferenceable_or_null(64) i64* @"_ZN4core6option15Option$LT$T$GT$6as_mut17hd6835279e54f6908E"(%"core::option::Option<proc_macro::bridge::client::BridgeState>"* align 8 dereferenceable(64) %_21)
          to label %bb4 unwind label %cleanup2

bb4:                                              ; preds = %bb3
; invoke core::option::Option<T>::unwrap
  %_19 = invoke align 8 dereferenceable(64) %"proc_macro::bridge::client::BridgeState"* @"_ZN4core6option15Option$LT$T$GT$6unwrap17h22a828699c879efeE"(i64* align 8 dereferenceable_or_null(64) %_20, %"core::panic::location::Location"* align 8 dereferenceable(24) bitcast (<{ i8*, [16 x i8] }>* @alloc504 to %"core::panic::location::Location"*))
          to label %bb5 unwind label %cleanup2

bb13:                                             ; preds = %cleanup2
  %25 = load i8, i8* %_22, align 1, !range !4
  %26 = trunc i8 %25 to i1
  br i1 %26, label %bb12, label %bb8

cleanup2:                                         ; preds = %bb5, %bb4, %bb3
  %27 = landingpad { i8*, i32 }
          cleanup
  %28 = extractvalue { i8*, i32 } %27, 0
  %29 = extractvalue { i8*, i32 } %27, 1
  %30 = getelementptr inbounds { i8*, i32 }, { i8*, i32 }* %0, i32 0, i32 0
  store i8* %28, i8** %30, align 8
  %31 = getelementptr inbounds { i8*, i32 }, { i8*, i32 }* %0, i32 0, i32 1
  store i32 %29, i32* %31, align 8
  br label %bb13

bb5:                                              ; preds = %bb4
  %32 = bitcast i64** %_17 to %"proc_macro::bridge::client::BridgeState"**
  store %"proc_macro::bridge::client::BridgeState"* %_19, %"proc_macro::bridge::client::BridgeState"** %32, align 8
  %33 = load i64*, i64** %_17, align 8, !nonnull !3
  store i64* %33, i64** %_16, align 8
  store i8 0, i8* %_22, align 1
  %34 = load i64*, i64** %_16, align 8, !nonnull !3
; invoke proc_macro::bridge::scoped_cell::ScopedCell<T>::set::{{closure}}
  invoke void @"_ZN10proc_macro6bridge11scoped_cell19ScopedCell$LT$T$GT$3set28_$u7b$$u7b$closure$u7d$$u7d$17h6f7446d9ded57584E"(i64* align 8 dereferenceable(40) %f.0, i64* nonnull %f.1, i64* align 8 dereferenceable(64) %34)
          to label %bb6 unwind label %cleanup2

bb6:                                              ; preds = %bb5
  store i8 0, i8* %_22, align 1
; invoke core::ptr::drop_in_place<proc_macro::bridge::scoped_cell::ScopedCell<T>::replace::PutBackOnDrop<proc_macro::bridge::client::BridgeStateL>>
  invoke void @"_ZN4core3ptr145drop_in_place$LT$proc_macro..bridge..scoped_cell..ScopedCell$LT$T$GT$..replace..PutBackOnDrop$LT$proc_macro..bridge..client..BridgeStateL$GT$$GT$17hfd083529fe484d5bE"(%"proc_macro::bridge::scoped_cell::ScopedCell<T>::replace::PutBackOnDrop<proc_macro::bridge::client::BridgeStateL>"* %put_back_on_drop)
          to label %bb7 unwind label %cleanup

bb8:                                              ; preds = %bb12, %bb13
; call core::ptr::drop_in_place<proc_macro::bridge::scoped_cell::ScopedCell<T>::replace::PutBackOnDrop<proc_macro::bridge::client::BridgeStateL>>
  call void @"_ZN4core3ptr145drop_in_place$LT$proc_macro..bridge..scoped_cell..ScopedCell$LT$T$GT$..replace..PutBackOnDrop$LT$proc_macro..bridge..client..BridgeStateL$GT$$GT$17hfd083529fe484d5bE"(%"proc_macro::bridge::scoped_cell::ScopedCell<T>::replace::PutBackOnDrop<proc_macro::bridge::client::BridgeStateL>"* %put_back_on_drop) #18
  br label %bb15

bb12:                                             ; preds = %bb13
  br label %bb8

bb7:                                              ; preds = %bb6
  ret void

bb10:                                             ; preds = %bb14, %bb15
  %35 = load i8, i8* %_24, align 1, !range !4
  %36 = trunc i8 %35 to i1
  br i1 %36, label %bb16, label %bb11

bb14:                                             ; preds = %bb15
  br label %bb10

bb11:                                             ; preds = %bb16, %bb10
  %37 = bitcast { i8*, i32 }* %0 to i8**
  %38 = load i8*, i8** %37, align 8
  %39 = getelementptr inbounds { i8*, i32 }, { i8*, i32 }* %0, i32 0, i32 1
  %40 = load i32, i32* %39, align 8
  %41 = insertvalue { i8*, i32 } undef, i8* %38, 0
  %42 = insertvalue { i8*, i32 } %41, i32 %40, 1
  resume { i8*, i32 } %42

bb16:                                             ; preds = %bb10
; call core::ptr::drop_in_place<proc_macro::bridge::client::BridgeState>
  call void @"_ZN4core3ptr60drop_in_place$LT$proc_macro..bridge..client..BridgeState$GT$17h1a413a87d795267fE"(%"proc_macro::bridge::client::BridgeState"* %replacement) #18
  br label %bb11
}

; proc_macro::bridge::scoped_cell::ScopedCell<T>::replace
; Function Attrs: nonlazybind uwtable
define internal void @"_ZN10proc_macro6bridge11scoped_cell19ScopedCell$LT$T$GT$7replace17hd130b39e91ec035cE"(%"proc_macro::bridge::scoped_cell::ScopedCell<proc_macro::bridge::client::BridgeStateL>"* align 8 dereferenceable(64) %self, %"proc_macro::bridge::client::BridgeState"* noalias nocapture dereferenceable(64) %replacement, i64* align 8 dereferenceable(40) %f) unnamed_addr #1 personality i32 (i32, i32, i64, %"unwind::libunwind::_Unwind_Exception"*, %"unwind::libunwind::_Unwind_Context"*)* @rust_eh_personality {
start:
  %0 = alloca { i8*, i32 }, align 8
  %_24 = alloca i8, align 1
  %_23 = alloca i8, align 1
  %_22 = alloca i8, align 1
  %_17 = alloca i64*, align 8
  %_16 = alloca i64*, align 8
  %_14 = alloca %"proc_macro::bridge::client::BridgeState", align 8
  %erased = alloca %"proc_macro::bridge::client::BridgeState", align 8
  %_9 = alloca %"proc_macro::bridge::client::BridgeState", align 8
  %_7 = alloca %"proc_macro::bridge::client::BridgeState", align 8
  %_6 = alloca %"core::option::Option<proc_macro::bridge::client::BridgeState>", align 8
  %put_back_on_drop = alloca %"proc_macro::bridge::scoped_cell::ScopedCell<T>::replace::PutBackOnDrop<proc_macro::bridge::client::BridgeStateL>", align 8
  store i8 0, i8* %_23, align 1
  store i8 0, i8* %_24, align 1
  store i8 0, i8* %_22, align 1
  store i8 1, i8* %_24, align 1
  store i8 1, i8* %_23, align 1
  %_8 = bitcast %"proc_macro::bridge::scoped_cell::ScopedCell<proc_macro::bridge::client::BridgeStateL>"* %self to %"core::cell::Cell<proc_macro::bridge::client::BridgeState>"*
; invoke core::mem::transmute_copy
  invoke void @_ZN4core3mem14transmute_copy17hcb7b03024be7ff4aE(%"proc_macro::bridge::client::BridgeState"* noalias nocapture sret(%"proc_macro::bridge::client::BridgeState") dereferenceable(64) %erased, %"proc_macro::bridge::client::BridgeState"* align 8 dereferenceable(64) %replacement)
          to label %bb1 unwind label %cleanup

bb1:                                              ; preds = %start
  store i8 0, i8* %_24, align 1
  %1 = bitcast %"proc_macro::bridge::client::BridgeState"* %_14 to i8*
  %2 = bitcast %"proc_macro::bridge::client::BridgeState"* %replacement to i8*
  call void @llvm.memcpy.p0i8.p0i8.i64(i8* align 8 %1, i8* align 8 %2, i64 64, i1 false)
; invoke core::mem::forget
  invoke void @_ZN4core3mem6forget17h42bfdcca4e6257e9E(%"proc_macro::bridge::client::BridgeState"* noalias nocapture dereferenceable(64) %_14)
          to label %bb2 unwind label %cleanup1

bb15:                                             ; preds = %bb8, %bb9, %cleanup
  %3 = load i8, i8* %_23, align 1, !range !4
  %4 = trunc i8 %3 to i1
  br i1 %4, label %bb14, label %bb10

cleanup:                                          ; preds = %bb6, %bb2, %start
  %5 = landingpad { i8*, i32 }
          cleanup
  %6 = extractvalue { i8*, i32 } %5, 0
  %7 = extractvalue { i8*, i32 } %5, 1
  %8 = getelementptr inbounds { i8*, i32 }, { i8*, i32 }* %0, i32 0, i32 0
  store i8* %6, i8** %8, align 8
  %9 = getelementptr inbounds { i8*, i32 }, { i8*, i32 }* %0, i32 0, i32 1
  store i32 %7, i32* %9, align 8
  br label %bb15

bb2:                                              ; preds = %bb1
  %10 = bitcast %"proc_macro::bridge::client::BridgeState"* %_9 to i8*
  %11 = bitcast %"proc_macro::bridge::client::BridgeState"* %erased to i8*
  call void @llvm.memcpy.p0i8.p0i8.i64(i8* align 8 %10, i8* align 8 %11, i64 64, i1 false)
; invoke core::cell::Cell<T>::replace
  invoke void @"_ZN4core4cell13Cell$LT$T$GT$7replace17h175cdc159d6f1037E"(%"proc_macro::bridge::client::BridgeState"* noalias nocapture sret(%"proc_macro::bridge::client::BridgeState") dereferenceable(64) %_7, %"core::cell::Cell<proc_macro::bridge::client::BridgeState>"* align 8 dereferenceable(64) %_8, %"proc_macro::bridge::client::BridgeState"* noalias nocapture dereferenceable(64) %_9)
          to label %bb3 unwind label %cleanup

bb9:                                              ; preds = %cleanup1
; call core::ptr::drop_in_place<proc_macro::bridge::client::BridgeState>
  call void @"_ZN4core3ptr60drop_in_place$LT$proc_macro..bridge..client..BridgeState$GT$17h1a413a87d795267fE"(%"proc_macro::bridge::client::BridgeState"* %erased) #18
  br label %bb15

cleanup1:                                         ; preds = %bb1
  %12 = landingpad { i8*, i32 }
          cleanup
  %13 = extractvalue { i8*, i32 } %12, 0
  %14 = extractvalue { i8*, i32 } %12, 1
  %15 = getelementptr inbounds { i8*, i32 }, { i8*, i32 }* %0, i32 0, i32 0
  store i8* %13, i8** %15, align 8
  %16 = getelementptr inbounds { i8*, i32 }, { i8*, i32 }* %0, i32 0, i32 1
  store i32 %14, i32* %16, align 8
  br label %bb9

bb3:                                              ; preds = %bb2
  %17 = bitcast %"core::option::Option<proc_macro::bridge::client::BridgeState>"* %_6 to %"core::option::Option<proc_macro::bridge::client::BridgeState>::Some"*
  %18 = bitcast %"core::option::Option<proc_macro::bridge::client::BridgeState>::Some"* %17 to %"proc_macro::bridge::client::BridgeState"*
  %19 = bitcast %"proc_macro::bridge::client::BridgeState"* %18 to i8*
  %20 = bitcast %"proc_macro::bridge::client::BridgeState"* %_7 to i8*
  call void @llvm.memcpy.p0i8.p0i8.i64(i8* align 8 %19, i8* align 8 %20, i64 64, i1 false)
  %21 = bitcast %"proc_macro::bridge::scoped_cell::ScopedCell<T>::replace::PutBackOnDrop<proc_macro::bridge::client::BridgeStateL>"* %put_back_on_drop to %"proc_macro::bridge::scoped_cell::ScopedCell<proc_macro::bridge::client::BridgeStateL>"**
  store %"proc_macro::bridge::scoped_cell::ScopedCell<proc_macro::bridge::client::BridgeStateL>"* %self, %"proc_macro::bridge::scoped_cell::ScopedCell<proc_macro::bridge::client::BridgeStateL>"** %21, align 8
  %22 = getelementptr inbounds %"proc_macro::bridge::scoped_cell::ScopedCell<T>::replace::PutBackOnDrop<proc_macro::bridge::client::BridgeStateL>", %"proc_macro::bridge::scoped_cell::ScopedCell<T>::replace::PutBackOnDrop<proc_macro::bridge::client::BridgeStateL>"* %put_back_on_drop, i32 0, i32 1
  %23 = bitcast %"core::option::Option<proc_macro::bridge::client::BridgeState>"* %22 to i8*
  %24 = bitcast %"core::option::Option<proc_macro::bridge::client::BridgeState>"* %_6 to i8*
  call void @llvm.memcpy.p0i8.p0i8.i64(i8* align 8 %23, i8* align 8 %24, i64 64, i1 false)
  store i8 0, i8* %_23, align 1
  store i8 1, i8* %_22, align 1
  %_21 = getelementptr inbounds %"proc_macro::bridge::scoped_cell::ScopedCell<T>::replace::PutBackOnDrop<proc_macro::bridge::client::BridgeStateL>", %"proc_macro::bridge::scoped_cell::ScopedCell<T>::replace::PutBackOnDrop<proc_macro::bridge::client::BridgeStateL>"* %put_back_on_drop, i32 0, i32 1
; invoke core::option::Option<T>::as_mut
  %_20 = invoke align 8 dereferenceable_or_null(64) i64* @"_ZN4core6option15Option$LT$T$GT$6as_mut17hd6835279e54f6908E"(%"core::option::Option<proc_macro::bridge::client::BridgeState>"* align 8 dereferenceable(64) %_21)
          to label %bb4 unwind label %cleanup2

bb4:                                              ; preds = %bb3
; invoke core::option::Option<T>::unwrap
  %_19 = invoke align 8 dereferenceable(64) %"proc_macro::bridge::client::BridgeState"* @"_ZN4core6option15Option$LT$T$GT$6unwrap17h22a828699c879efeE"(i64* align 8 dereferenceable_or_null(64) %_20, %"core::panic::location::Location"* align 8 dereferenceable(24) bitcast (<{ i8*, [16 x i8] }>* @alloc504 to %"core::panic::location::Location"*))
          to label %bb5 unwind label %cleanup2

bb13:                                             ; preds = %cleanup2
  %25 = load i8, i8* %_22, align 1, !range !4
  %26 = trunc i8 %25 to i1
  br i1 %26, label %bb12, label %bb8

cleanup2:                                         ; preds = %bb5, %bb4, %bb3
  %27 = landingpad { i8*, i32 }
          cleanup
  %28 = extractvalue { i8*, i32 } %27, 0
  %29 = extractvalue { i8*, i32 } %27, 1
  %30 = getelementptr inbounds { i8*, i32 }, { i8*, i32 }* %0, i32 0, i32 0
  store i8* %28, i8** %30, align 8
  %31 = getelementptr inbounds { i8*, i32 }, { i8*, i32 }* %0, i32 0, i32 1
  store i32 %29, i32* %31, align 8
  br label %bb13

bb5:                                              ; preds = %bb4
  %32 = bitcast i64** %_17 to %"proc_macro::bridge::client::BridgeState"**
  store %"proc_macro::bridge::client::BridgeState"* %_19, %"proc_macro::bridge::client::BridgeState"** %32, align 8
  %33 = load i64*, i64** %_17, align 8, !nonnull !3
  store i64* %33, i64** %_16, align 8
  store i8 0, i8* %_22, align 1
  %34 = load i64*, i64** %_16, align 8, !nonnull !3
; invoke proc_macro::bridge::client::BridgeState::with::{{closure}}::{{closure}}
  invoke void @"_ZN10proc_macro6bridge6client11BridgeState4with28_$u7b$$u7b$closure$u7d$$u7d$28_$u7b$$u7b$closure$u7d$$u7d$17h1933b34cf4714cf3E"(i64* align 8 dereferenceable(40) %f, i64* align 8 dereferenceable(64) %34)
          to label %bb6 unwind label %cleanup2

bb6:                                              ; preds = %bb5
  store i8 0, i8* %_22, align 1
; invoke core::ptr::drop_in_place<proc_macro::bridge::scoped_cell::ScopedCell<T>::replace::PutBackOnDrop<proc_macro::bridge::client::BridgeStateL>>
  invoke void @"_ZN4core3ptr145drop_in_place$LT$proc_macro..bridge..scoped_cell..ScopedCell$LT$T$GT$..replace..PutBackOnDrop$LT$proc_macro..bridge..client..BridgeStateL$GT$$GT$17hfd083529fe484d5bE"(%"proc_macro::bridge::scoped_cell::ScopedCell<T>::replace::PutBackOnDrop<proc_macro::bridge::client::BridgeStateL>"* %put_back_on_drop)
          to label %bb7 unwind label %cleanup

bb8:                                              ; preds = %bb12, %bb13
; call core::ptr::drop_in_place<proc_macro::bridge::scoped_cell::ScopedCell<T>::replace::PutBackOnDrop<proc_macro::bridge::client::BridgeStateL>>
  call void @"_ZN4core3ptr145drop_in_place$LT$proc_macro..bridge..scoped_cell..ScopedCell$LT$T$GT$..replace..PutBackOnDrop$LT$proc_macro..bridge..client..BridgeStateL$GT$$GT$17hfd083529fe484d5bE"(%"proc_macro::bridge::scoped_cell::ScopedCell<T>::replace::PutBackOnDrop<proc_macro::bridge::client::BridgeStateL>"* %put_back_on_drop) #18
  br label %bb15

bb12:                                             ; preds = %bb13
  br label %bb8

bb7:                                              ; preds = %bb6
  ret void

bb10:                                             ; preds = %bb14, %bb15
  %35 = load i8, i8* %_24, align 1, !range !4
  %36 = trunc i8 %35 to i1
  br i1 %36, label %bb16, label %bb11

bb14:                                             ; preds = %bb15
  br label %bb10

bb11:                                             ; preds = %bb16, %bb10
  %37 = bitcast { i8*, i32 }* %0 to i8**
  %38 = load i8*, i8** %37, align 8
  %39 = getelementptr inbounds { i8*, i32 }, { i8*, i32 }* %0, i32 0, i32 1
  %40 = load i32, i32* %39, align 8
  %41 = insertvalue { i8*, i32 } undef, i8* %38, 0
  %42 = insertvalue { i8*, i32 } %41, i32 %40, 1
  resume { i8*, i32 } %42

bb16:                                             ; preds = %bb10
; call core::ptr::drop_in_place<proc_macro::bridge::client::BridgeState>
  call void @"_ZN4core3ptr60drop_in_place$LT$proc_macro..bridge..client..BridgeState$GT$17h1a413a87d795267fE"(%"proc_macro::bridge::client::BridgeState"* %replacement) #18
  br label %bb11
}

; proc_macro::bridge::scoped_cell::ScopedCell<T>::replace
; Function Attrs: nonlazybind uwtable
define internal zeroext i1 @"_ZN10proc_macro6bridge11scoped_cell19ScopedCell$LT$T$GT$7replace17hd32109566cc3e1a9E"(%"proc_macro::bridge::scoped_cell::ScopedCell<proc_macro::bridge::client::BridgeStateL>"* align 8 dereferenceable(64) %self, %"proc_macro::bridge::client::BridgeState"* noalias nocapture dereferenceable(64) %replacement, i8* align 1 dereferenceable(1) %f) unnamed_addr #1 personality i32 (i32, i32, i64, %"unwind::libunwind::_Unwind_Exception"*, %"unwind::libunwind::_Unwind_Context"*)* @rust_eh_personality {
start:
  %0 = alloca { i8*, i32 }, align 8
  %_24 = alloca i8, align 1
  %_23 = alloca i8, align 1
  %_22 = alloca i8, align 1
  %_17 = alloca i64*, align 8
  %_16 = alloca i64*, align 8
  %_14 = alloca %"proc_macro::bridge::client::BridgeState", align 8
  %erased = alloca %"proc_macro::bridge::client::BridgeState", align 8
  %_9 = alloca %"proc_macro::bridge::client::BridgeState", align 8
  %_7 = alloca %"proc_macro::bridge::client::BridgeState", align 8
  %_6 = alloca %"core::option::Option<proc_macro::bridge::client::BridgeState>", align 8
  %put_back_on_drop = alloca %"proc_macro::bridge::scoped_cell::ScopedCell<T>::replace::PutBackOnDrop<proc_macro::bridge::client::BridgeStateL>", align 8
  store i8 0, i8* %_23, align 1
  store i8 0, i8* %_24, align 1
  store i8 0, i8* %_22, align 1
  store i8 1, i8* %_24, align 1
  store i8 1, i8* %_23, align 1
  %_8 = bitcast %"proc_macro::bridge::scoped_cell::ScopedCell<proc_macro::bridge::client::BridgeStateL>"* %self to %"core::cell::Cell<proc_macro::bridge::client::BridgeState>"*
; invoke core::mem::transmute_copy
  invoke void @_ZN4core3mem14transmute_copy17hcb7b03024be7ff4aE(%"proc_macro::bridge::client::BridgeState"* noalias nocapture sret(%"proc_macro::bridge::client::BridgeState") dereferenceable(64) %erased, %"proc_macro::bridge::client::BridgeState"* align 8 dereferenceable(64) %replacement)
          to label %bb1 unwind label %cleanup

bb1:                                              ; preds = %start
  store i8 0, i8* %_24, align 1
  %1 = bitcast %"proc_macro::bridge::client::BridgeState"* %_14 to i8*
  %2 = bitcast %"proc_macro::bridge::client::BridgeState"* %replacement to i8*
  call void @llvm.memcpy.p0i8.p0i8.i64(i8* align 8 %1, i8* align 8 %2, i64 64, i1 false)
; invoke core::mem::forget
  invoke void @_ZN4core3mem6forget17h42bfdcca4e6257e9E(%"proc_macro::bridge::client::BridgeState"* noalias nocapture dereferenceable(64) %_14)
          to label %bb2 unwind label %cleanup1

bb15:                                             ; preds = %bb8, %bb9, %cleanup
  %3 = load i8, i8* %_23, align 1, !range !4
  %4 = trunc i8 %3 to i1
  br i1 %4, label %bb14, label %bb10

cleanup:                                          ; preds = %bb6, %bb2, %start
  %5 = landingpad { i8*, i32 }
          cleanup
  %6 = extractvalue { i8*, i32 } %5, 0
  %7 = extractvalue { i8*, i32 } %5, 1
  %8 = getelementptr inbounds { i8*, i32 }, { i8*, i32 }* %0, i32 0, i32 0
  store i8* %6, i8** %8, align 8
  %9 = getelementptr inbounds { i8*, i32 }, { i8*, i32 }* %0, i32 0, i32 1
  store i32 %7, i32* %9, align 8
  br label %bb15

bb2:                                              ; preds = %bb1
  %10 = bitcast %"proc_macro::bridge::client::BridgeState"* %_9 to i8*
  %11 = bitcast %"proc_macro::bridge::client::BridgeState"* %erased to i8*
  call void @llvm.memcpy.p0i8.p0i8.i64(i8* align 8 %10, i8* align 8 %11, i64 64, i1 false)
; invoke core::cell::Cell<T>::replace
  invoke void @"_ZN4core4cell13Cell$LT$T$GT$7replace17h175cdc159d6f1037E"(%"proc_macro::bridge::client::BridgeState"* noalias nocapture sret(%"proc_macro::bridge::client::BridgeState") dereferenceable(64) %_7, %"core::cell::Cell<proc_macro::bridge::client::BridgeState>"* align 8 dereferenceable(64) %_8, %"proc_macro::bridge::client::BridgeState"* noalias nocapture dereferenceable(64) %_9)
          to label %bb3 unwind label %cleanup

bb9:                                              ; preds = %cleanup1
; call core::ptr::drop_in_place<proc_macro::bridge::client::BridgeState>
  call void @"_ZN4core3ptr60drop_in_place$LT$proc_macro..bridge..client..BridgeState$GT$17h1a413a87d795267fE"(%"proc_macro::bridge::client::BridgeState"* %erased) #18
  br label %bb15

cleanup1:                                         ; preds = %bb1
  %12 = landingpad { i8*, i32 }
          cleanup
  %13 = extractvalue { i8*, i32 } %12, 0
  %14 = extractvalue { i8*, i32 } %12, 1
  %15 = getelementptr inbounds { i8*, i32 }, { i8*, i32 }* %0, i32 0, i32 0
  store i8* %13, i8** %15, align 8
  %16 = getelementptr inbounds { i8*, i32 }, { i8*, i32 }* %0, i32 0, i32 1
  store i32 %14, i32* %16, align 8
  br label %bb9

bb3:                                              ; preds = %bb2
  %17 = bitcast %"core::option::Option<proc_macro::bridge::client::BridgeState>"* %_6 to %"core::option::Option<proc_macro::bridge::client::BridgeState>::Some"*
  %18 = bitcast %"core::option::Option<proc_macro::bridge::client::BridgeState>::Some"* %17 to %"proc_macro::bridge::client::BridgeState"*
  %19 = bitcast %"proc_macro::bridge::client::BridgeState"* %18 to i8*
  %20 = bitcast %"proc_macro::bridge::client::BridgeState"* %_7 to i8*
  call void @llvm.memcpy.p0i8.p0i8.i64(i8* align 8 %19, i8* align 8 %20, i64 64, i1 false)
  %21 = bitcast %"proc_macro::bridge::scoped_cell::ScopedCell<T>::replace::PutBackOnDrop<proc_macro::bridge::client::BridgeStateL>"* %put_back_on_drop to %"proc_macro::bridge::scoped_cell::ScopedCell<proc_macro::bridge::client::BridgeStateL>"**
  store %"proc_macro::bridge::scoped_cell::ScopedCell<proc_macro::bridge::client::BridgeStateL>"* %self, %"proc_macro::bridge::scoped_cell::ScopedCell<proc_macro::bridge::client::BridgeStateL>"** %21, align 8
  %22 = getelementptr inbounds %"proc_macro::bridge::scoped_cell::ScopedCell<T>::replace::PutBackOnDrop<proc_macro::bridge::client::BridgeStateL>", %"proc_macro::bridge::scoped_cell::ScopedCell<T>::replace::PutBackOnDrop<proc_macro::bridge::client::BridgeStateL>"* %put_back_on_drop, i32 0, i32 1
  %23 = bitcast %"core::option::Option<proc_macro::bridge::client::BridgeState>"* %22 to i8*
  %24 = bitcast %"core::option::Option<proc_macro::bridge::client::BridgeState>"* %_6 to i8*
  call void @llvm.memcpy.p0i8.p0i8.i64(i8* align 8 %23, i8* align 8 %24, i64 64, i1 false)
  store i8 0, i8* %_23, align 1
  store i8 1, i8* %_22, align 1
  %_21 = getelementptr inbounds %"proc_macro::bridge::scoped_cell::ScopedCell<T>::replace::PutBackOnDrop<proc_macro::bridge::client::BridgeStateL>", %"proc_macro::bridge::scoped_cell::ScopedCell<T>::replace::PutBackOnDrop<proc_macro::bridge::client::BridgeStateL>"* %put_back_on_drop, i32 0, i32 1
; invoke core::option::Option<T>::as_mut
  %_20 = invoke align 8 dereferenceable_or_null(64) i64* @"_ZN4core6option15Option$LT$T$GT$6as_mut17hd6835279e54f6908E"(%"core::option::Option<proc_macro::bridge::client::BridgeState>"* align 8 dereferenceable(64) %_21)
          to label %bb4 unwind label %cleanup2

bb4:                                              ; preds = %bb3
; invoke core::option::Option<T>::unwrap
  %_19 = invoke align 8 dereferenceable(64) %"proc_macro::bridge::client::BridgeState"* @"_ZN4core6option15Option$LT$T$GT$6unwrap17h22a828699c879efeE"(i64* align 8 dereferenceable_or_null(64) %_20, %"core::panic::location::Location"* align 8 dereferenceable(24) bitcast (<{ i8*, [16 x i8] }>* @alloc504 to %"core::panic::location::Location"*))
          to label %bb5 unwind label %cleanup2

bb13:                                             ; preds = %cleanup2
  %25 = load i8, i8* %_22, align 1, !range !4
  %26 = trunc i8 %25 to i1
  br i1 %26, label %bb12, label %bb8

cleanup2:                                         ; preds = %bb5, %bb4, %bb3
  %27 = landingpad { i8*, i32 }
          cleanup
  %28 = extractvalue { i8*, i32 } %27, 0
  %29 = extractvalue { i8*, i32 } %27, 1
  %30 = getelementptr inbounds { i8*, i32 }, { i8*, i32 }* %0, i32 0, i32 0
  store i8* %28, i8** %30, align 8
  %31 = getelementptr inbounds { i8*, i32 }, { i8*, i32 }* %0, i32 0, i32 1
  store i32 %29, i32* %31, align 8
  br label %bb13

bb5:                                              ; preds = %bb4
  %32 = bitcast i64** %_17 to %"proc_macro::bridge::client::BridgeState"**
  store %"proc_macro::bridge::client::BridgeState"* %_19, %"proc_macro::bridge::client::BridgeState"** %32, align 8
  %33 = load i64*, i64** %_17, align 8, !nonnull !3
  store i64* %33, i64** %_16, align 8
  store i8 0, i8* %_22, align 1
  %34 = load i64*, i64** %_16, align 8, !nonnull !3
; invoke proc_macro::bridge::client::BridgeState::with::{{closure}}::{{closure}}
  %35 = invoke zeroext i1 @"_ZN10proc_macro6bridge6client11BridgeState4with28_$u7b$$u7b$closure$u7d$$u7d$28_$u7b$$u7b$closure$u7d$$u7d$17h4384ac65bd2790fbE"(i8* align 1 dereferenceable(1) %f, i64* align 8 dereferenceable(64) %34)
          to label %bb6 unwind label %cleanup2

bb6:                                              ; preds = %bb5
  store i8 0, i8* %_22, align 1
; invoke core::ptr::drop_in_place<proc_macro::bridge::scoped_cell::ScopedCell<T>::replace::PutBackOnDrop<proc_macro::bridge::client::BridgeStateL>>
  invoke void @"_ZN4core3ptr145drop_in_place$LT$proc_macro..bridge..scoped_cell..ScopedCell$LT$T$GT$..replace..PutBackOnDrop$LT$proc_macro..bridge..client..BridgeStateL$GT$$GT$17hfd083529fe484d5bE"(%"proc_macro::bridge::scoped_cell::ScopedCell<T>::replace::PutBackOnDrop<proc_macro::bridge::client::BridgeStateL>"* %put_back_on_drop)
          to label %bb7 unwind label %cleanup

bb8:                                              ; preds = %bb12, %bb13
; call core::ptr::drop_in_place<proc_macro::bridge::scoped_cell::ScopedCell<T>::replace::PutBackOnDrop<proc_macro::bridge::client::BridgeStateL>>
  call void @"_ZN4core3ptr145drop_in_place$LT$proc_macro..bridge..scoped_cell..ScopedCell$LT$T$GT$..replace..PutBackOnDrop$LT$proc_macro..bridge..client..BridgeStateL$GT$$GT$17hfd083529fe484d5bE"(%"proc_macro::bridge::scoped_cell::ScopedCell<T>::replace::PutBackOnDrop<proc_macro::bridge::client::BridgeStateL>"* %put_back_on_drop) #18
  br label %bb15

bb12:                                             ; preds = %bb13
  br label %bb8

bb7:                                              ; preds = %bb6
  ret i1 %35

bb10:                                             ; preds = %bb14, %bb15
  %36 = load i8, i8* %_24, align 1, !range !4
  %37 = trunc i8 %36 to i1
  br i1 %37, label %bb16, label %bb11

bb14:                                             ; preds = %bb15
  br label %bb10

bb11:                                             ; preds = %bb16, %bb10
  %38 = bitcast { i8*, i32 }* %0 to i8**
  %39 = load i8*, i8** %38, align 8
  %40 = getelementptr inbounds { i8*, i32 }, { i8*, i32 }* %0, i32 0, i32 1
  %41 = load i32, i32* %40, align 8
  %42 = insertvalue { i8*, i32 } undef, i8* %39, 0
  %43 = insertvalue { i8*, i32 } %42, i32 %41, 1
  resume { i8*, i32 } %43

bb16:                                             ; preds = %bb10
; call core::ptr::drop_in_place<proc_macro::bridge::client::BridgeState>
  call void @"_ZN4core3ptr60drop_in_place$LT$proc_macro..bridge..client..BridgeState$GT$17h1a413a87d795267fE"(%"proc_macro::bridge::client::BridgeState"* %replacement) #18
  br label %bb11
}

; proc_macro::bridge::buffer::Buffer<T>::extend_from_array
; Function Attrs: nonlazybind uwtable
define internal void @"_ZN10proc_macro6bridge6buffer15Buffer$LT$T$GT$17extend_from_array17h47f107abd86ff961E"(%"proc_macro::bridge::buffer::Buffer<u8>"* align 8 dereferenceable(40) %self, [4 x i8]* align 1 dereferenceable(4) %xs) unnamed_addr #1 personality i32 (i32, i32, i64, %"unwind::libunwind::_Unwind_Exception"*, %"unwind::libunwind::_Unwind_Context"*)* @rust_eh_personality {
start:
  %0 = alloca i8*, align 8
  %1 = alloca { i8*, i32 }, align 8
  %_31 = alloca i8, align 1
  %_14 = alloca %"proc_macro::bridge::buffer::Buffer<u8>", align 8
  %_12 = alloca %"proc_macro::bridge::buffer::Buffer<u8>", align 8
  %b = alloca %"proc_macro::bridge::buffer::Buffer<u8>", align 8
  store i8 0, i8* %_31, align 1
  %_5.0 = bitcast [4 x i8]* %xs to [0 x i8]*
  %2 = getelementptr inbounds %"proc_macro::bridge::buffer::Buffer<u8>", %"proc_macro::bridge::buffer::Buffer<u8>"* %self, i32 0, i32 2
  %_8 = load i64, i64* %2, align 8
  %3 = getelementptr inbounds %"proc_macro::bridge::buffer::Buffer<u8>", %"proc_macro::bridge::buffer::Buffer<u8>"* %self, i32 0, i32 1
  %_9 = load i64, i64* %3, align 8
  %_7 = sub i64 %_8, %_9
  %_3 = icmp ugt i64 4, %_7
  br i1 %_3, label %bb1, label %bb5

bb5:                                              ; preds = %bb11, %start
  %_20.0 = bitcast [4 x i8]* %xs to [0 x i8]*
; call core::slice::<impl [T]>::as_ptr
  %_19 = call i8* @"_ZN4core5slice29_$LT$impl$u20$$u5b$T$u5d$$GT$6as_ptr17hf84c2d601562b202E"([0 x i8]* nonnull align 1 %_20.0, i64 4)
  br label %bb6

bb1:                                              ; preds = %start
; call proc_macro::bridge::buffer::Buffer<T>::take
  call void @"_ZN10proc_macro6bridge6buffer15Buffer$LT$T$GT$4take17h7919c1d6103d1d7bE"(%"proc_macro::bridge::buffer::Buffer<u8>"* noalias nocapture sret(%"proc_macro::bridge::buffer::Buffer<u8>") dereferenceable(40) %b, %"proc_macro::bridge::buffer::Buffer<u8>"* align 8 dereferenceable(40) %self)
  br label %bb2

bb2:                                              ; preds = %bb1
  %4 = getelementptr inbounds %"proc_macro::bridge::buffer::Buffer<u8>", %"proc_macro::bridge::buffer::Buffer<u8>"* %b, i32 0, i32 3
  %_13 = load void (%"proc_macro::bridge::buffer::Buffer<u8>"*, %"proc_macro::bridge::buffer::Buffer<u8>"*, i64)*, void (%"proc_macro::bridge::buffer::Buffer<u8>"*, %"proc_macro::bridge::buffer::Buffer<u8>"*, i64)** %4, align 8, !nonnull !3
  store i8 1, i8* %_31, align 1
  %5 = bitcast %"proc_macro::bridge::buffer::Buffer<u8>"* %_14 to i8*
  %6 = bitcast %"proc_macro::bridge::buffer::Buffer<u8>"* %b to i8*
  call void @llvm.memcpy.p0i8.p0i8.i64(i8* align 8 %5, i8* align 8 %6, i64 40, i1 false)
  %_16.0 = bitcast [4 x i8]* %xs to [0 x i8]*
; invoke core::slice::<impl [T]>::len
  %_15 = invoke i64 @"_ZN4core5slice29_$LT$impl$u20$$u5b$T$u5d$$GT$3len17hbc92195a81a43742E"([0 x i8]* nonnull align 1 %_16.0, i64 4)
          to label %bb3 unwind label %cleanup

bb3:                                              ; preds = %bb2
  store i8 0, i8* %_31, align 1
  invoke void %_13(%"proc_macro::bridge::buffer::Buffer<u8>"* noalias nocapture sret(%"proc_macro::bridge::buffer::Buffer<u8>") dereferenceable(40) %_12, %"proc_macro::bridge::buffer::Buffer<u8>"* noalias nocapture byval(%"proc_macro::bridge::buffer::Buffer<u8>") dereferenceable(40) %_14, i64 %_15)
          to label %bb4 unwind label %cleanup

bb13:                                             ; preds = %cleanup
  %7 = load i8, i8* %_31, align 1, !range !4
  %8 = trunc i8 %7 to i1
  br i1 %8, label %bb12, label %bb9

cleanup:                                          ; preds = %bb3, %bb2
  %9 = landingpad { i8*, i32 }
          cleanup
  %10 = extractvalue { i8*, i32 } %9, 0
  %11 = extractvalue { i8*, i32 } %9, 1
  %12 = getelementptr inbounds { i8*, i32 }, { i8*, i32 }* %1, i32 0, i32 0
  store i8* %10, i8** %12, align 8
  %13 = getelementptr inbounds { i8*, i32 }, { i8*, i32 }* %1, i32 0, i32 1
  store i32 %11, i32* %13, align 8
  br label %bb13

bb4:                                              ; preds = %bb3
  store i8 0, i8* %_31, align 1
; invoke core::ptr::drop_in_place<proc_macro::bridge::buffer::Buffer<u8>>
  invoke void @"_ZN4core3ptr65drop_in_place$LT$proc_macro..bridge..buffer..Buffer$LT$u8$GT$$GT$17hc59555330ff6ccd2E"(%"proc_macro::bridge::buffer::Buffer<u8>"* %self)
          to label %bb11 unwind label %cleanup1

bb9:                                              ; preds = %bb10, %bb12, %bb13
  %14 = bitcast { i8*, i32 }* %1 to i8**
  %15 = load i8*, i8** %14, align 8
  %16 = getelementptr inbounds { i8*, i32 }, { i8*, i32 }* %1, i32 0, i32 1
  %17 = load i32, i32* %16, align 8
  %18 = insertvalue { i8*, i32 } undef, i8* %15, 0
  %19 = insertvalue { i8*, i32 } %18, i32 %17, 1
  resume { i8*, i32 } %19

bb12:                                             ; preds = %bb13
; call core::ptr::drop_in_place<proc_macro::bridge::buffer::Buffer<u8>>
  call void @"_ZN4core3ptr65drop_in_place$LT$proc_macro..bridge..buffer..Buffer$LT$u8$GT$$GT$17hc59555330ff6ccd2E"(%"proc_macro::bridge::buffer::Buffer<u8>"* %_14) #18
  br label %bb9

bb11:                                             ; preds = %bb4
  %20 = bitcast %"proc_macro::bridge::buffer::Buffer<u8>"* %self to i8*
  %21 = bitcast %"proc_macro::bridge::buffer::Buffer<u8>"* %_12 to i8*
  call void @llvm.memcpy.p0i8.p0i8.i64(i8* align 8 %20, i8* align 8 %21, i64 40, i1 false)
  br label %bb5

bb10:                                             ; preds = %cleanup1
  %22 = bitcast %"proc_macro::bridge::buffer::Buffer<u8>"* %self to i8*
  %23 = bitcast %"proc_macro::bridge::buffer::Buffer<u8>"* %_12 to i8*
  call void @llvm.memcpy.p0i8.p0i8.i64(i8* align 8 %22, i8* align 8 %23, i64 40, i1 false)
  br label %bb9

cleanup1:                                         ; preds = %bb4
  %24 = landingpad { i8*, i32 }
          cleanup
  %25 = extractvalue { i8*, i32 } %24, 0
  %26 = extractvalue { i8*, i32 } %24, 1
  %27 = getelementptr inbounds { i8*, i32 }, { i8*, i32 }* %1, i32 0, i32 0
  store i8* %25, i8** %27, align 8
  %28 = getelementptr inbounds { i8*, i32 }, { i8*, i32 }* %1, i32 0, i32 1
  store i32 %26, i32* %28, align 8
  br label %bb10

bb6:                                              ; preds = %bb5
  %29 = bitcast %"proc_macro::bridge::buffer::Buffer<u8>"* %self to i8**
  %_23 = load i8*, i8** %29, align 8
  %30 = getelementptr inbounds %"proc_macro::bridge::buffer::Buffer<u8>", %"proc_macro::bridge::buffer::Buffer<u8>"* %self, i32 0, i32 1
  %_24 = load i64, i64* %30, align 8
  %31 = getelementptr inbounds i8, i8* %_23, i64 %_24
  store i8* %31, i8** %0, align 8
  %_3.i = load i8*, i8** %0, align 8
  br label %bb7

bb7:                                              ; preds = %bb6
  %_26.0 = bitcast [4 x i8]* %xs to [0 x i8]*
; call core::ptr::const_ptr::<impl *const T>::copy_to_nonoverlapping
  call void @"_ZN4core3ptr9const_ptr33_$LT$impl$u20$$BP$const$u20$T$GT$22copy_to_nonoverlapping17h76d52783eef2b06eE"(i8* %_19, i8* %_3.i, i64 4)
  br label %bb8

bb8:                                              ; preds = %bb7
  %_29.0 = bitcast [4 x i8]* %xs to [0 x i8]*
  %32 = getelementptr inbounds %"proc_macro::bridge::buffer::Buffer<u8>", %"proc_macro::bridge::buffer::Buffer<u8>"* %self, i32 0, i32 1
  %33 = getelementptr inbounds %"proc_macro::bridge::buffer::Buffer<u8>", %"proc_macro::bridge::buffer::Buffer<u8>"* %self, i32 0, i32 1
  %34 = load i64, i64* %33, align 8
  %35 = add i64 %34, 4
  store i64 %35, i64* %32, align 8
  ret void
}

; proc_macro::bridge::buffer::Buffer<T>::extend_from_array
; Function Attrs: nonlazybind uwtable
define internal void @"_ZN10proc_macro6bridge6buffer15Buffer$LT$T$GT$17extend_from_array17h9db6f51bf3fc776eE"(%"proc_macro::bridge::buffer::Buffer<u8>"* align 8 dereferenceable(40) %self, [8 x i8]* align 1 dereferenceable(8) %xs) unnamed_addr #1 personality i32 (i32, i32, i64, %"unwind::libunwind::_Unwind_Exception"*, %"unwind::libunwind::_Unwind_Context"*)* @rust_eh_personality {
start:
  %0 = alloca i8*, align 8
  %1 = alloca { i8*, i32 }, align 8
  %_31 = alloca i8, align 1
  %_14 = alloca %"proc_macro::bridge::buffer::Buffer<u8>", align 8
  %_12 = alloca %"proc_macro::bridge::buffer::Buffer<u8>", align 8
  %b = alloca %"proc_macro::bridge::buffer::Buffer<u8>", align 8
  store i8 0, i8* %_31, align 1
  %_5.0 = bitcast [8 x i8]* %xs to [0 x i8]*
  %2 = getelementptr inbounds %"proc_macro::bridge::buffer::Buffer<u8>", %"proc_macro::bridge::buffer::Buffer<u8>"* %self, i32 0, i32 2
  %_8 = load i64, i64* %2, align 8
  %3 = getelementptr inbounds %"proc_macro::bridge::buffer::Buffer<u8>", %"proc_macro::bridge::buffer::Buffer<u8>"* %self, i32 0, i32 1
  %_9 = load i64, i64* %3, align 8
  %_7 = sub i64 %_8, %_9
  %_3 = icmp ugt i64 8, %_7
  br i1 %_3, label %bb1, label %bb5

bb5:                                              ; preds = %bb11, %start
  %_20.0 = bitcast [8 x i8]* %xs to [0 x i8]*
; call core::slice::<impl [T]>::as_ptr
  %_19 = call i8* @"_ZN4core5slice29_$LT$impl$u20$$u5b$T$u5d$$GT$6as_ptr17hf84c2d601562b202E"([0 x i8]* nonnull align 1 %_20.0, i64 8)
  br label %bb6

bb1:                                              ; preds = %start
; call proc_macro::bridge::buffer::Buffer<T>::take
  call void @"_ZN10proc_macro6bridge6buffer15Buffer$LT$T$GT$4take17h7919c1d6103d1d7bE"(%"proc_macro::bridge::buffer::Buffer<u8>"* noalias nocapture sret(%"proc_macro::bridge::buffer::Buffer<u8>") dereferenceable(40) %b, %"proc_macro::bridge::buffer::Buffer<u8>"* align 8 dereferenceable(40) %self)
  br label %bb2

bb2:                                              ; preds = %bb1
  %4 = getelementptr inbounds %"proc_macro::bridge::buffer::Buffer<u8>", %"proc_macro::bridge::buffer::Buffer<u8>"* %b, i32 0, i32 3
  %_13 = load void (%"proc_macro::bridge::buffer::Buffer<u8>"*, %"proc_macro::bridge::buffer::Buffer<u8>"*, i64)*, void (%"proc_macro::bridge::buffer::Buffer<u8>"*, %"proc_macro::bridge::buffer::Buffer<u8>"*, i64)** %4, align 8, !nonnull !3
  store i8 1, i8* %_31, align 1
  %5 = bitcast %"proc_macro::bridge::buffer::Buffer<u8>"* %_14 to i8*
  %6 = bitcast %"proc_macro::bridge::buffer::Buffer<u8>"* %b to i8*
  call void @llvm.memcpy.p0i8.p0i8.i64(i8* align 8 %5, i8* align 8 %6, i64 40, i1 false)
  %_16.0 = bitcast [8 x i8]* %xs to [0 x i8]*
; invoke core::slice::<impl [T]>::len
  %_15 = invoke i64 @"_ZN4core5slice29_$LT$impl$u20$$u5b$T$u5d$$GT$3len17hbc92195a81a43742E"([0 x i8]* nonnull align 1 %_16.0, i64 8)
          to label %bb3 unwind label %cleanup

bb3:                                              ; preds = %bb2
  store i8 0, i8* %_31, align 1
  invoke void %_13(%"proc_macro::bridge::buffer::Buffer<u8>"* noalias nocapture sret(%"proc_macro::bridge::buffer::Buffer<u8>") dereferenceable(40) %_12, %"proc_macro::bridge::buffer::Buffer<u8>"* noalias nocapture byval(%"proc_macro::bridge::buffer::Buffer<u8>") dereferenceable(40) %_14, i64 %_15)
          to label %bb4 unwind label %cleanup

bb13:                                             ; preds = %cleanup
  %7 = load i8, i8* %_31, align 1, !range !4
  %8 = trunc i8 %7 to i1
  br i1 %8, label %bb12, label %bb9

cleanup:                                          ; preds = %bb3, %bb2
  %9 = landingpad { i8*, i32 }
          cleanup
  %10 = extractvalue { i8*, i32 } %9, 0
  %11 = extractvalue { i8*, i32 } %9, 1
  %12 = getelementptr inbounds { i8*, i32 }, { i8*, i32 }* %1, i32 0, i32 0
  store i8* %10, i8** %12, align 8
  %13 = getelementptr inbounds { i8*, i32 }, { i8*, i32 }* %1, i32 0, i32 1
  store i32 %11, i32* %13, align 8
  br label %bb13

bb4:                                              ; preds = %bb3
  store i8 0, i8* %_31, align 1
; invoke core::ptr::drop_in_place<proc_macro::bridge::buffer::Buffer<u8>>
  invoke void @"_ZN4core3ptr65drop_in_place$LT$proc_macro..bridge..buffer..Buffer$LT$u8$GT$$GT$17hc59555330ff6ccd2E"(%"proc_macro::bridge::buffer::Buffer<u8>"* %self)
          to label %bb11 unwind label %cleanup1

bb9:                                              ; preds = %bb10, %bb12, %bb13
  %14 = bitcast { i8*, i32 }* %1 to i8**
  %15 = load i8*, i8** %14, align 8
  %16 = getelementptr inbounds { i8*, i32 }, { i8*, i32 }* %1, i32 0, i32 1
  %17 = load i32, i32* %16, align 8
  %18 = insertvalue { i8*, i32 } undef, i8* %15, 0
  %19 = insertvalue { i8*, i32 } %18, i32 %17, 1
  resume { i8*, i32 } %19

bb12:                                             ; preds = %bb13
; call core::ptr::drop_in_place<proc_macro::bridge::buffer::Buffer<u8>>
  call void @"_ZN4core3ptr65drop_in_place$LT$proc_macro..bridge..buffer..Buffer$LT$u8$GT$$GT$17hc59555330ff6ccd2E"(%"proc_macro::bridge::buffer::Buffer<u8>"* %_14) #18
  br label %bb9

bb11:                                             ; preds = %bb4
  %20 = bitcast %"proc_macro::bridge::buffer::Buffer<u8>"* %self to i8*
  %21 = bitcast %"proc_macro::bridge::buffer::Buffer<u8>"* %_12 to i8*
  call void @llvm.memcpy.p0i8.p0i8.i64(i8* align 8 %20, i8* align 8 %21, i64 40, i1 false)
  br label %bb5

bb10:                                             ; preds = %cleanup1
  %22 = bitcast %"proc_macro::bridge::buffer::Buffer<u8>"* %self to i8*
  %23 = bitcast %"proc_macro::bridge::buffer::Buffer<u8>"* %_12 to i8*
  call void @llvm.memcpy.p0i8.p0i8.i64(i8* align 8 %22, i8* align 8 %23, i64 40, i1 false)
  br label %bb9

cleanup1:                                         ; preds = %bb4
  %24 = landingpad { i8*, i32 }
          cleanup
  %25 = extractvalue { i8*, i32 } %24, 0
  %26 = extractvalue { i8*, i32 } %24, 1
  %27 = getelementptr inbounds { i8*, i32 }, { i8*, i32 }* %1, i32 0, i32 0
  store i8* %25, i8** %27, align 8
  %28 = getelementptr inbounds { i8*, i32 }, { i8*, i32 }* %1, i32 0, i32 1
  store i32 %26, i32* %28, align 8
  br label %bb10

bb6:                                              ; preds = %bb5
  %29 = bitcast %"proc_macro::bridge::buffer::Buffer<u8>"* %self to i8**
  %_23 = load i8*, i8** %29, align 8
  %30 = getelementptr inbounds %"proc_macro::bridge::buffer::Buffer<u8>", %"proc_macro::bridge::buffer::Buffer<u8>"* %self, i32 0, i32 1
  %_24 = load i64, i64* %30, align 8
  %31 = getelementptr inbounds i8, i8* %_23, i64 %_24
  store i8* %31, i8** %0, align 8
  %_3.i = load i8*, i8** %0, align 8
  br label %bb7

bb7:                                              ; preds = %bb6
  %_26.0 = bitcast [8 x i8]* %xs to [0 x i8]*
; call core::ptr::const_ptr::<impl *const T>::copy_to_nonoverlapping
  call void @"_ZN4core3ptr9const_ptr33_$LT$impl$u20$$BP$const$u20$T$GT$22copy_to_nonoverlapping17h76d52783eef2b06eE"(i8* %_19, i8* %_3.i, i64 8)
  br label %bb8

bb8:                                              ; preds = %bb7
  %_29.0 = bitcast [8 x i8]* %xs to [0 x i8]*
  %32 = getelementptr inbounds %"proc_macro::bridge::buffer::Buffer<u8>", %"proc_macro::bridge::buffer::Buffer<u8>"* %self, i32 0, i32 1
  %33 = getelementptr inbounds %"proc_macro::bridge::buffer::Buffer<u8>", %"proc_macro::bridge::buffer::Buffer<u8>"* %self, i32 0, i32 1
  %34 = load i64, i64* %33, align 8
  %35 = add i64 %34, 8
  store i64 %35, i64* %32, align 8
  ret void
}

; proc_macro::bridge::buffer::Buffer<T>::push
; Function Attrs: nonlazybind uwtable
define internal void @"_ZN10proc_macro6bridge6buffer15Buffer$LT$T$GT$4push17h19291157a36e5b10E"(%"proc_macro::bridge::buffer::Buffer<u8>"* align 8 dereferenceable(40) %self, i8 %v) unnamed_addr #1 personality i32 (i32, i32, i64, %"unwind::libunwind::_Unwind_Exception"*, %"unwind::libunwind::_Unwind_Context"*)* @rust_eh_personality {
start:
  %0 = alloca i8*, align 8
  %1 = alloca { i8*, i32 }, align 8
  %_10 = alloca %"proc_macro::bridge::buffer::Buffer<u8>", align 8
  %_8 = alloca %"proc_macro::bridge::buffer::Buffer<u8>", align 8
  %b = alloca %"proc_macro::bridge::buffer::Buffer<u8>", align 8
  %2 = getelementptr inbounds %"proc_macro::bridge::buffer::Buffer<u8>", %"proc_macro::bridge::buffer::Buffer<u8>"* %self, i32 0, i32 1
  %_4 = load i64, i64* %2, align 8
  %3 = getelementptr inbounds %"proc_macro::bridge::buffer::Buffer<u8>", %"proc_macro::bridge::buffer::Buffer<u8>"* %self, i32 0, i32 2
  %_5 = load i64, i64* %3, align 8
  %_3 = icmp eq i64 %_4, %_5
  br i1 %_3, label %bb1, label %bb4

bb4:                                              ; preds = %bb7, %start
  %4 = bitcast %"proc_macro::bridge::buffer::Buffer<u8>"* %self to i8**
  %_13 = load i8*, i8** %4, align 8
  %5 = getelementptr inbounds %"proc_macro::bridge::buffer::Buffer<u8>", %"proc_macro::bridge::buffer::Buffer<u8>"* %self, i32 0, i32 1
  %_14 = load i64, i64* %5, align 8
  %6 = getelementptr inbounds i8, i8* %_13, i64 %_14
  store i8* %6, i8** %0, align 8
  %_3.i = load i8*, i8** %0, align 8
  br label %bb5

bb1:                                              ; preds = %start
; call proc_macro::bridge::buffer::Buffer<T>::take
  call void @"_ZN10proc_macro6bridge6buffer15Buffer$LT$T$GT$4take17h7919c1d6103d1d7bE"(%"proc_macro::bridge::buffer::Buffer<u8>"* noalias nocapture sret(%"proc_macro::bridge::buffer::Buffer<u8>") dereferenceable(40) %b, %"proc_macro::bridge::buffer::Buffer<u8>"* align 8 dereferenceable(40) %self)
  br label %bb2

bb2:                                              ; preds = %bb1
  %7 = getelementptr inbounds %"proc_macro::bridge::buffer::Buffer<u8>", %"proc_macro::bridge::buffer::Buffer<u8>"* %b, i32 0, i32 3
  %_9 = load void (%"proc_macro::bridge::buffer::Buffer<u8>"*, %"proc_macro::bridge::buffer::Buffer<u8>"*, i64)*, void (%"proc_macro::bridge::buffer::Buffer<u8>"*, %"proc_macro::bridge::buffer::Buffer<u8>"*, i64)** %7, align 8, !nonnull !3
  %8 = bitcast %"proc_macro::bridge::buffer::Buffer<u8>"* %_10 to i8*
  %9 = bitcast %"proc_macro::bridge::buffer::Buffer<u8>"* %b to i8*
  call void @llvm.memcpy.p0i8.p0i8.i64(i8* align 8 %8, i8* align 8 %9, i64 40, i1 false)
  call void %_9(%"proc_macro::bridge::buffer::Buffer<u8>"* noalias nocapture sret(%"proc_macro::bridge::buffer::Buffer<u8>") dereferenceable(40) %_8, %"proc_macro::bridge::buffer::Buffer<u8>"* noalias nocapture byval(%"proc_macro::bridge::buffer::Buffer<u8>") dereferenceable(40) %_10, i64 1)
  br label %bb3

bb3:                                              ; preds = %bb2
; invoke core::ptr::drop_in_place<proc_macro::bridge::buffer::Buffer<u8>>
  invoke void @"_ZN4core3ptr65drop_in_place$LT$proc_macro..bridge..buffer..Buffer$LT$u8$GT$$GT$17hc59555330ff6ccd2E"(%"proc_macro::bridge::buffer::Buffer<u8>"* %self)
          to label %bb7 unwind label %cleanup

bb7:                                              ; preds = %bb3
  %10 = bitcast %"proc_macro::bridge::buffer::Buffer<u8>"* %self to i8*
  %11 = bitcast %"proc_macro::bridge::buffer::Buffer<u8>"* %_8 to i8*
  call void @llvm.memcpy.p0i8.p0i8.i64(i8* align 8 %10, i8* align 8 %11, i64 40, i1 false)
  br label %bb4

bb6:                                              ; preds = %cleanup
  %12 = bitcast %"proc_macro::bridge::buffer::Buffer<u8>"* %self to i8*
  %13 = bitcast %"proc_macro::bridge::buffer::Buffer<u8>"* %_8 to i8*
  call void @llvm.memcpy.p0i8.p0i8.i64(i8* align 8 %12, i8* align 8 %13, i64 40, i1 false)
  %14 = bitcast { i8*, i32 }* %1 to i8**
  %15 = load i8*, i8** %14, align 8
  %16 = getelementptr inbounds { i8*, i32 }, { i8*, i32 }* %1, i32 0, i32 1
  %17 = load i32, i32* %16, align 8
  %18 = insertvalue { i8*, i32 } undef, i8* %15, 0
  %19 = insertvalue { i8*, i32 } %18, i32 %17, 1
  resume { i8*, i32 } %19

cleanup:                                          ; preds = %bb3
  %20 = landingpad { i8*, i32 }
          cleanup
  %21 = extractvalue { i8*, i32 } %20, 0
  %22 = extractvalue { i8*, i32 } %20, 1
  %23 = getelementptr inbounds { i8*, i32 }, { i8*, i32 }* %1, i32 0, i32 0
  store i8* %21, i8** %23, align 8
  %24 = getelementptr inbounds { i8*, i32 }, { i8*, i32 }* %1, i32 0, i32 1
  store i32 %22, i32* %24, align 8
  br label %bb6

bb5:                                              ; preds = %bb4
  store i8 %v, i8* %_3.i, align 1
  %25 = getelementptr inbounds %"proc_macro::bridge::buffer::Buffer<u8>", %"proc_macro::bridge::buffer::Buffer<u8>"* %self, i32 0, i32 1
  %26 = getelementptr inbounds %"proc_macro::bridge::buffer::Buffer<u8>", %"proc_macro::bridge::buffer::Buffer<u8>"* %self, i32 0, i32 1
  %27 = load i64, i64* %26, align 8
  %28 = add i64 %27, 1
  store i64 %28, i64* %25, align 8
  ret void
}

; proc_macro::bridge::buffer::Buffer<T>::take
; Function Attrs: nonlazybind uwtable
define internal void @"_ZN10proc_macro6bridge6buffer15Buffer$LT$T$GT$4take17h7919c1d6103d1d7bE"(%"proc_macro::bridge::buffer::Buffer<u8>"* noalias nocapture sret(%"proc_macro::bridge::buffer::Buffer<u8>") dereferenceable(40) %0, %"proc_macro::bridge::buffer::Buffer<u8>"* align 8 dereferenceable(40) %self) unnamed_addr #1 {
start:
; call core::mem::take
  call void @_ZN4core3mem4take17h2d3ef8b88e900eb7E(%"proc_macro::bridge::buffer::Buffer<u8>"* noalias nocapture sret(%"proc_macro::bridge::buffer::Buffer<u8>") dereferenceable(40) %0, %"proc_macro::bridge::buffer::Buffer<u8>"* align 8 dereferenceable(40) %self)
  br label %bb1

bb1:                                              ; preds = %start
  ret void
}

; proc_macro::bridge::buffer::Buffer<T>::clear
; Function Attrs: nonlazybind uwtable
define internal void @"_ZN10proc_macro6bridge6buffer15Buffer$LT$T$GT$5clear17hba28b12d2b8f088eE"(%"proc_macro::bridge::buffer::Buffer<u8>"* align 8 dereferenceable(40) %self) unnamed_addr #1 {
start:
  %0 = getelementptr inbounds %"proc_macro::bridge::buffer::Buffer<u8>", %"proc_macro::bridge::buffer::Buffer<u8>"* %self, i32 0, i32 1
  store i64 0, i64* %0, align 8
  ret void
}

; proc_macro::bridge::client::run_client
; Function Attrs: nonlazybind uwtable
define internal void @_ZN10proc_macro6bridge6client10run_client17h128cf803dbf20318E(%"proc_macro::bridge::buffer::Buffer<u8>"* noalias nocapture sret(%"proc_macro::bridge::buffer::Buffer<u8>") dereferenceable(40) %b, %"proc_macro::bridge::Bridge"* noalias nocapture dereferenceable(64) %bridge, i64* nonnull %f) unnamed_addr #1 personality i32 (i32, i32, i64, %"unwind::libunwind::_Unwind_Exception"*, %"unwind::libunwind::_Unwind_Context"*)* @rust_eh_personality {
start:
  %0 = alloca { i8*, i32 }, align 8
  %_13 = alloca i8, align 1
  %_12 = alloca i8, align 1
  %_10 = alloca i64*, align 8
  %_8 = alloca %"[closure@proc_macro::bridge::client::run_client<(proc_macro::bridge::client::TokenStream, proc_macro::bridge::client::TokenStream), proc_macro::bridge::client::TokenStream, [closure@proc_macro::bridge::client::Client<fn(proc_macro::TokenStream, proc_macro::TokenStream) -> proc_macro::TokenStream>::expand2::run<fn(proc_macro::TokenStream, proc_macro::TokenStream) -> proc_macro::TokenStream>::{closure#0}]>::{closure#0}]", align 8
  %_7 = alloca %"core::panic::unwind_safe::AssertUnwindSafe<[closure@proc_macro::bridge::client::run_client<(proc_macro::bridge::client::TokenStream, proc_macro::bridge::client::TokenStream), proc_macro::bridge::client::TokenStream, [closure@proc_macro::bridge::client::Client<fn(proc_macro::TokenStream, proc_macro::TokenStream) -> proc_macro::TokenStream>::expand2::run<fn(proc_macro::TokenStream, proc_macro::TokenStream) -> proc_macro::TokenStream>::{closure#0}]>::{closure#0}]>", align 8
  %_5 = alloca %"core::result::Result<(), proc_macro::bridge::rpc::PanicMessage>", align 8
  store i8 0, i8* %_13, align 1
  store i8 0, i8* %_12, align 1
  store i8 1, i8* %_13, align 1
  store i8 1, i8* %_12, align 1
  %_3 = bitcast %"proc_macro::bridge::Bridge"* %bridge to %"proc_macro::bridge::buffer::Buffer<u8>"*
; invoke proc_macro::bridge::buffer::Buffer<T>::take
  invoke void @"_ZN10proc_macro6bridge6buffer15Buffer$LT$T$GT$4take17h7919c1d6103d1d7bE"(%"proc_macro::bridge::buffer::Buffer<u8>"* noalias nocapture sret(%"proc_macro::bridge::buffer::Buffer<u8>") dereferenceable(40) %b, %"proc_macro::bridge::buffer::Buffer<u8>"* align 8 dereferenceable(40) %_3)
          to label %bb1 unwind label %cleanup

bb1:                                              ; preds = %start
  store i8 0, i8* %_13, align 1
  store i8 0, i8* %_12, align 1
  %1 = bitcast %"[closure@proc_macro::bridge::client::run_client<(proc_macro::bridge::client::TokenStream, proc_macro::bridge::client::TokenStream), proc_macro::bridge::client::TokenStream, [closure@proc_macro::bridge::client::Client<fn(proc_macro::TokenStream, proc_macro::TokenStream) -> proc_macro::TokenStream>::expand2::run<fn(proc_macro::TokenStream, proc_macro::TokenStream) -> proc_macro::TokenStream>::{closure#0}]>::{closure#0}]"* %_8 to %"proc_macro::bridge::Bridge"*
  %2 = bitcast %"proc_macro::bridge::Bridge"* %1 to i8*
  %3 = bitcast %"proc_macro::bridge::Bridge"* %bridge to i8*
  call void @llvm.memcpy.p0i8.p0i8.i64(i8* align 8 %2, i8* align 8 %3, i64 64, i1 false)
  %4 = getelementptr inbounds %"[closure@proc_macro::bridge::client::run_client<(proc_macro::bridge::client::TokenStream, proc_macro::bridge::client::TokenStream), proc_macro::bridge::client::TokenStream, [closure@proc_macro::bridge::client::Client<fn(proc_macro::TokenStream, proc_macro::TokenStream) -> proc_macro::TokenStream>::expand2::run<fn(proc_macro::TokenStream, proc_macro::TokenStream) -> proc_macro::TokenStream>::{closure#0}]>::{closure#0}]", %"[closure@proc_macro::bridge::client::run_client<(proc_macro::bridge::client::TokenStream, proc_macro::bridge::client::TokenStream), proc_macro::bridge::client::TokenStream, [closure@proc_macro::bridge::client::Client<fn(proc_macro::TokenStream, proc_macro::TokenStream) -> proc_macro::TokenStream>::expand2::run<fn(proc_macro::TokenStream, proc_macro::TokenStream) -> proc_macro::TokenStream>::{closure#0}]>::{closure#0}]"* %_8, i32 0, i32 1
  store %"proc_macro::bridge::buffer::Buffer<u8>"* %b, %"proc_macro::bridge::buffer::Buffer<u8>"** %4, align 8
  %5 = getelementptr inbounds %"[closure@proc_macro::bridge::client::run_client<(proc_macro::bridge::client::TokenStream, proc_macro::bridge::client::TokenStream), proc_macro::bridge::client::TokenStream, [closure@proc_macro::bridge::client::Client<fn(proc_macro::TokenStream, proc_macro::TokenStream) -> proc_macro::TokenStream>::expand2::run<fn(proc_macro::TokenStream, proc_macro::TokenStream) -> proc_macro::TokenStream>::{closure#0}]>::{closure#0}]", %"[closure@proc_macro::bridge::client::run_client<(proc_macro::bridge::client::TokenStream, proc_macro::bridge::client::TokenStream), proc_macro::bridge::client::TokenStream, [closure@proc_macro::bridge::client::Client<fn(proc_macro::TokenStream, proc_macro::TokenStream) -> proc_macro::TokenStream>::expand2::run<fn(proc_macro::TokenStream, proc_macro::TokenStream) -> proc_macro::TokenStream>::{closure#0}]>::{closure#0}]"* %_8, i32 0, i32 2
  store i64* %f, i64** %5, align 8
  %6 = bitcast %"core::panic::unwind_safe::AssertUnwindSafe<[closure@proc_macro::bridge::client::run_client<(proc_macro::bridge::client::TokenStream, proc_macro::bridge::client::TokenStream), proc_macro::bridge::client::TokenStream, [closure@proc_macro::bridge::client::Client<fn(proc_macro::TokenStream, proc_macro::TokenStream) -> proc_macro::TokenStream>::expand2::run<fn(proc_macro::TokenStream, proc_macro::TokenStream) -> proc_macro::TokenStream>::{closure#0}]>::{closure#0}]>"* %_7 to %"[closure@proc_macro::bridge::client::run_client<(proc_macro::bridge::client::TokenStream, proc_macro::bridge::client::TokenStream), proc_macro::bridge::client::TokenStream, [closure@proc_macro::bridge::client::Client<fn(proc_macro::TokenStream, proc_macro::TokenStream) -> proc_macro::TokenStream>::expand2::run<fn(proc_macro::TokenStream, proc_macro::TokenStream) -> proc_macro::TokenStream>::{closure#0}]>::{closure#0}]"*
  %7 = bitcast %"[closure@proc_macro::bridge::client::run_client<(proc_macro::bridge::client::TokenStream, proc_macro::bridge::client::TokenStream), proc_macro::bridge::client::TokenStream, [closure@proc_macro::bridge::client::Client<fn(proc_macro::TokenStream, proc_macro::TokenStream) -> proc_macro::TokenStream>::expand2::run<fn(proc_macro::TokenStream, proc_macro::TokenStream) -> proc_macro::TokenStream>::{closure#0}]>::{closure#0}]"* %6 to i8*
  %8 = bitcast %"[closure@proc_macro::bridge::client::run_client<(proc_macro::bridge::client::TokenStream, proc_macro::bridge::client::TokenStream), proc_macro::bridge::client::TokenStream, [closure@proc_macro::bridge::client::Client<fn(proc_macro::TokenStream, proc_macro::TokenStream) -> proc_macro::TokenStream>::expand2::run<fn(proc_macro::TokenStream, proc_macro::TokenStream) -> proc_macro::TokenStream>::{closure#0}]>::{closure#0}]"* %_8 to i8*
  call void @llvm.memcpy.p0i8.p0i8.i64(i8* align 8 %7, i8* align 8 %8, i64 80, i1 false)
; invoke std::panic::catch_unwind
  %9 = invoke { i8*, i8* } @_ZN3std5panic12catch_unwind17h2950db60a697ad1dE(%"core::panic::unwind_safe::AssertUnwindSafe<[closure@proc_macro::bridge::client::run_client<(proc_macro::bridge::client::TokenStream, proc_macro::bridge::client::TokenStream), proc_macro::bridge::client::TokenStream, [closure@proc_macro::bridge::client::Client<fn(proc_macro::TokenStream, proc_macro::TokenStream) -> proc_macro::TokenStream>::expand2::run<fn(proc_macro::TokenStream, proc_macro::TokenStream) -> proc_macro::TokenStream>::{closure#0}]>::{closure#0}]>"* noalias nocapture dereferenceable(80) %_7)
          to label %bb2 unwind label %cleanup1

bb9:                                              ; preds = %bb5, %cleanup
  %10 = load i8, i8* %_12, align 1, !range !4
  %11 = trunc i8 %10 to i1
  br i1 %11, label %bb8, label %bb6

cleanup:                                          ; preds = %start
  %12 = landingpad { i8*, i32 }
          cleanup
  %13 = extractvalue { i8*, i32 } %12, 0
  %14 = extractvalue { i8*, i32 } %12, 1
  %15 = getelementptr inbounds { i8*, i32 }, { i8*, i32 }* %0, i32 0, i32 0
  store i8* %13, i8** %15, align 8
  %16 = getelementptr inbounds { i8*, i32 }, { i8*, i32 }* %0, i32 0, i32 1
  store i32 %14, i32* %16, align 8
  br label %bb9

bb2:                                              ; preds = %bb1
  %_6.0 = extractvalue { i8*, i8* } %9, 0
  %_6.1 = extractvalue { i8*, i8* } %9, 1
; invoke core::result::Result<T,E>::map_err
  invoke void @"_ZN4core6result19Result$LT$T$C$E$GT$7map_err17ha851b89f305c187eE"(%"core::result::Result<(), proc_macro::bridge::rpc::PanicMessage>"* noalias nocapture sret(%"core::result::Result<(), proc_macro::bridge::rpc::PanicMessage>") dereferenceable(32) %_5, i8* noalias align 1 %_6.0, i8* %_6.1)
          to label %bb3 unwind label %cleanup1

bb5:                                              ; preds = %cleanup1
; call core::ptr::drop_in_place<proc_macro::bridge::buffer::Buffer<u8>>
  call void @"_ZN4core3ptr65drop_in_place$LT$proc_macro..bridge..buffer..Buffer$LT$u8$GT$$GT$17hc59555330ff6ccd2E"(%"proc_macro::bridge::buffer::Buffer<u8>"* %b) #18
  br label %bb9

cleanup1:                                         ; preds = %bb3, %bb2, %bb1
  %17 = landingpad { i8*, i32 }
          cleanup
  %18 = extractvalue { i8*, i32 } %17, 0
  %19 = extractvalue { i8*, i32 } %17, 1
  %20 = getelementptr inbounds { i8*, i32 }, { i8*, i32 }* %0, i32 0, i32 0
  store i8* %18, i8** %20, align 8
  %21 = getelementptr inbounds { i8*, i32 }, { i8*, i32 }* %0, i32 0, i32 1
  store i32 %19, i32* %21, align 8
  br label %bb5

bb3:                                              ; preds = %bb2
  %22 = bitcast i64** %_10 to %"proc_macro::bridge::buffer::Buffer<u8>"**
  store %"proc_macro::bridge::buffer::Buffer<u8>"* %b, %"proc_macro::bridge::buffer::Buffer<u8>"** %22, align 8
  %23 = load i64*, i64** %_10, align 8, !nonnull !3
; invoke core::result::Result<T,E>::unwrap_or_else
  invoke void @"_ZN4core6result19Result$LT$T$C$E$GT$14unwrap_or_else17hf4fdf8bffd70a4b9E"(%"core::result::Result<(), proc_macro::bridge::rpc::PanicMessage>"* noalias nocapture dereferenceable(32) %_5, i64* align 8 dereferenceable(40) %23)
          to label %bb4 unwind label %cleanup1

bb4:                                              ; preds = %bb3
  ret void

bb6:                                              ; preds = %bb8, %bb9
  %24 = load i8, i8* %_13, align 1, !range !4
  %25 = trunc i8 %24 to i1
  br i1 %25, label %bb10, label %bb7

bb8:                                              ; preds = %bb9
  br label %bb6

bb7:                                              ; preds = %bb10, %bb6
  %26 = bitcast { i8*, i32 }* %0 to i8**
  %27 = load i8*, i8** %26, align 8
  %28 = getelementptr inbounds { i8*, i32 }, { i8*, i32 }* %0, i32 0, i32 1
  %29 = load i32, i32* %28, align 8
  %30 = insertvalue { i8*, i32 } undef, i8* %27, 0
  %31 = insertvalue { i8*, i32 } %30, i32 %29, 1
  resume { i8*, i32 } %31

bb10:                                             ; preds = %bb6
; call core::ptr::drop_in_place<proc_macro::bridge::Bridge>
  call void @"_ZN4core3ptr47drop_in_place$LT$proc_macro..bridge..Bridge$GT$17h502e151ab26cf34aE"(%"proc_macro::bridge::Bridge"* %bridge) #18
  br label %bb7
}

; proc_macro::bridge::client::run_client::{{closure}}
; Function Attrs: inlinehint nonlazybind uwtable
define internal void @"_ZN10proc_macro6bridge6client10run_client28_$u7b$$u7b$closure$u7d$$u7d$17h414866b7717bf493E"(%"[closure@proc_macro::bridge::client::run_client<(proc_macro::bridge::client::TokenStream, proc_macro::bridge::client::TokenStream), proc_macro::bridge::client::TokenStream, [closure@proc_macro::bridge::client::Client<fn(proc_macro::TokenStream, proc_macro::TokenStream) -> proc_macro::TokenStream>::expand2::run<fn(proc_macro::TokenStream, proc_macro::TokenStream) -> proc_macro::TokenStream>::{closure#0}]>::{closure#0}]"* noalias nocapture dereferenceable(80) %_1) unnamed_addr #0 {
start:
  %_3 = alloca { i64*, i64* }, align 8
  %_2 = alloca %"proc_macro::bridge::Bridge", align 8
  %0 = bitcast %"[closure@proc_macro::bridge::client::run_client<(proc_macro::bridge::client::TokenStream, proc_macro::bridge::client::TokenStream), proc_macro::bridge::client::TokenStream, [closure@proc_macro::bridge::client::Client<fn(proc_macro::TokenStream, proc_macro::TokenStream) -> proc_macro::TokenStream>::expand2::run<fn(proc_macro::TokenStream, proc_macro::TokenStream) -> proc_macro::TokenStream>::{closure#0}]>::{closure#0}]"* %_1 to %"proc_macro::bridge::Bridge"*
  %1 = bitcast %"proc_macro::bridge::Bridge"* %_2 to i8*
  %2 = bitcast %"proc_macro::bridge::Bridge"* %0 to i8*
  call void @llvm.memcpy.p0i8.p0i8.i64(i8* align 8 %1, i8* align 8 %2, i64 64, i1 false)
  %3 = getelementptr inbounds %"[closure@proc_macro::bridge::client::run_client<(proc_macro::bridge::client::TokenStream, proc_macro::bridge::client::TokenStream), proc_macro::bridge::client::TokenStream, [closure@proc_macro::bridge::client::Client<fn(proc_macro::TokenStream, proc_macro::TokenStream) -> proc_macro::TokenStream>::expand2::run<fn(proc_macro::TokenStream, proc_macro::TokenStream) -> proc_macro::TokenStream>::{closure#0}]>::{closure#0}]", %"[closure@proc_macro::bridge::client::run_client<(proc_macro::bridge::client::TokenStream, proc_macro::bridge::client::TokenStream), proc_macro::bridge::client::TokenStream, [closure@proc_macro::bridge::client::Client<fn(proc_macro::TokenStream, proc_macro::TokenStream) -> proc_macro::TokenStream>::expand2::run<fn(proc_macro::TokenStream, proc_macro::TokenStream) -> proc_macro::TokenStream>::{closure#0}]>::{closure#0}]"* %_1, i32 0, i32 1
  %_4 = load %"proc_macro::bridge::buffer::Buffer<u8>"*, %"proc_macro::bridge::buffer::Buffer<u8>"** %3, align 8, !nonnull !3
  %4 = bitcast { i64*, i64* }* %_3 to %"proc_macro::bridge::buffer::Buffer<u8>"**
  store %"proc_macro::bridge::buffer::Buffer<u8>"* %_4, %"proc_macro::bridge::buffer::Buffer<u8>"** %4, align 8
  %5 = getelementptr inbounds { i64*, i64* }, { i64*, i64* }* %_3, i32 0, i32 1
  %6 = getelementptr inbounds %"[closure@proc_macro::bridge::client::run_client<(proc_macro::bridge::client::TokenStream, proc_macro::bridge::client::TokenStream), proc_macro::bridge::client::TokenStream, [closure@proc_macro::bridge::client::Client<fn(proc_macro::TokenStream, proc_macro::TokenStream) -> proc_macro::TokenStream>::expand2::run<fn(proc_macro::TokenStream, proc_macro::TokenStream) -> proc_macro::TokenStream>::{closure#0}]>::{closure#0}]", %"[closure@proc_macro::bridge::client::run_client<(proc_macro::bridge::client::TokenStream, proc_macro::bridge::client::TokenStream), proc_macro::bridge::client::TokenStream, [closure@proc_macro::bridge::client::Client<fn(proc_macro::TokenStream, proc_macro::TokenStream) -> proc_macro::TokenStream>::expand2::run<fn(proc_macro::TokenStream, proc_macro::TokenStream) -> proc_macro::TokenStream>::{closure#0}]>::{closure#0}]"* %_1, i32 0, i32 2
  %7 = load i64*, i64** %6, align 8, !nonnull !3
  store i64* %7, i64** %5, align 8
  %8 = getelementptr inbounds { i64*, i64* }, { i64*, i64* }* %_3, i32 0, i32 0
  %9 = load i64*, i64** %8, align 8, !nonnull !3
  %10 = getelementptr inbounds { i64*, i64* }, { i64*, i64* }* %_3, i32 0, i32 1
  %11 = load i64*, i64** %10, align 8, !nonnull !3
; call proc_macro::bridge::client::<impl proc_macro::bridge::Bridge>::enter
  call void @"_ZN10proc_macro6bridge6client44_$LT$impl$u20$proc_macro..bridge..Bridge$GT$5enter17h396d1fc1d893b122E"(%"proc_macro::bridge::Bridge"* noalias nocapture dereferenceable(64) %_2, i64* align 8 dereferenceable(40) %9, i64* nonnull %11)
  br label %bb1

bb1:                                              ; preds = %start
  ret void
}

; proc_macro::bridge::client::run_client::{{closure}}
; Function Attrs: inlinehint nonlazybind uwtable
define internal void @"_ZN10proc_macro6bridge6client10run_client28_$u7b$$u7b$closure$u7d$$u7d$17hf880d347f851d17bE"(i64* align 8 dereferenceable(40) %_1, %"proc_macro::bridge::rpc::PanicMessage"* noalias nocapture dereferenceable(32) %e) unnamed_addr #0 personality i32 (i32, i32, i64, %"unwind::libunwind::_Unwind_Exception"*, %"unwind::libunwind::_Unwind_Context"*)* @rust_eh_personality {
start:
  %0 = alloca { i8*, i32 }, align 8
  %_13 = alloca i8, align 1
  %_12 = alloca {}, align 1
  %_7 = alloca %"proc_macro::bridge::rpc::PanicMessage", align 8
  %_6 = alloca %"core::result::Result<(), proc_macro::bridge::rpc::PanicMessage>", align 8
  store i8 0, i8* %_13, align 1
  store i8 1, i8* %_13, align 1
  %_4 = bitcast i64* %_1 to %"proc_macro::bridge::buffer::Buffer<u8>"*
; invoke proc_macro::bridge::buffer::Buffer<T>::clear
  invoke void @"_ZN10proc_macro6bridge6buffer15Buffer$LT$T$GT$5clear17hba28b12d2b8f088eE"(%"proc_macro::bridge::buffer::Buffer<u8>"* align 8 dereferenceable(40) %_4)
          to label %bb1 unwind label %cleanup

bb1:                                              ; preds = %start
  store i8 0, i8* %_13, align 1
  %1 = bitcast %"proc_macro::bridge::rpc::PanicMessage"* %_7 to i8*
  %2 = bitcast %"proc_macro::bridge::rpc::PanicMessage"* %e to i8*
  call void @llvm.memcpy.p0i8.p0i8.i64(i8* align 8 %1, i8* align 8 %2, i64 32, i1 false)
  %3 = bitcast %"core::result::Result<(), proc_macro::bridge::rpc::PanicMessage>"* %_6 to %"core::result::Result<(), proc_macro::bridge::rpc::PanicMessage>::Err"*
  %4 = bitcast %"core::result::Result<(), proc_macro::bridge::rpc::PanicMessage>::Err"* %3 to %"proc_macro::bridge::rpc::PanicMessage"*
  %5 = bitcast %"proc_macro::bridge::rpc::PanicMessage"* %4 to i8*
  %6 = bitcast %"proc_macro::bridge::rpc::PanicMessage"* %_7 to i8*
  call void @llvm.memcpy.p0i8.p0i8.i64(i8* align 8 %5, i8* align 8 %6, i64 32, i1 false)
  %_9 = bitcast i64* %_1 to %"proc_macro::bridge::buffer::Buffer<u8>"*
; invoke <core::result::Result<T,E> as proc_macro::bridge::rpc::Encode<S>>::encode
  invoke void @"_ZN94_$LT$core..result..Result$LT$T$C$E$GT$$u20$as$u20$proc_macro..bridge..rpc..Encode$LT$S$GT$$GT$6encode17h7c56903b953f6b5cE"(%"core::result::Result<(), proc_macro::bridge::rpc::PanicMessage>"* noalias nocapture dereferenceable(32) %_6, %"proc_macro::bridge::buffer::Buffer<u8>"* align 8 dereferenceable(40) %_9, {}* nonnull align 1 %_12)
          to label %bb2 unwind label %cleanup

bb5:                                              ; preds = %cleanup
  %7 = load i8, i8* %_13, align 1, !range !4
  %8 = trunc i8 %7 to i1
  br i1 %8, label %bb4, label %bb3

cleanup:                                          ; preds = %bb1, %start
  %9 = landingpad { i8*, i32 }
          cleanup
  %10 = extractvalue { i8*, i32 } %9, 0
  %11 = extractvalue { i8*, i32 } %9, 1
  %12 = getelementptr inbounds { i8*, i32 }, { i8*, i32 }* %0, i32 0, i32 0
  store i8* %10, i8** %12, align 8
  %13 = getelementptr inbounds { i8*, i32 }, { i8*, i32 }* %0, i32 0, i32 1
  store i32 %11, i32* %13, align 8
  br label %bb5

bb2:                                              ; preds = %bb1
  ret void

bb3:                                              ; preds = %bb4, %bb5
  %14 = bitcast { i8*, i32 }* %0 to i8**
  %15 = load i8*, i8** %14, align 8
  %16 = getelementptr inbounds { i8*, i32 }, { i8*, i32 }* %0, i32 0, i32 1
  %17 = load i32, i32* %16, align 8
  %18 = insertvalue { i8*, i32 } undef, i8* %15, 0
  %19 = insertvalue { i8*, i32 } %18, i32 %17, 1
  resume { i8*, i32 } %19

bb4:                                              ; preds = %bb5
; call core::ptr::drop_in_place<proc_macro::bridge::rpc::PanicMessage>
  call void @"_ZN4core3ptr58drop_in_place$LT$proc_macro..bridge..rpc..PanicMessage$GT$17h9b26116148712840E"(%"proc_macro::bridge::rpc::PanicMessage"* %e) #18
  br label %bb3
}

; proc_macro::bridge::client::run_client::{{closure}}::{{closure}}
; Function Attrs: inlinehint nonlazybind uwtable
define internal void @"_ZN10proc_macro6bridge6client10run_client28_$u7b$$u7b$closure$u7d$$u7d$28_$u7b$$u7b$closure$u7d$$u7d$17h7f5ce0dbbaf79954E"(i64* align 8 dereferenceable(40) %0, i64* nonnull %1) unnamed_addr #0 personality i32 (i32, i32, i64, %"unwind::libunwind::_Unwind_Exception"*, %"unwind::libunwind::_Unwind_Context"*)* @rust_eh_personality {
start:
  %2 = alloca i32, align 4
  %3 = alloca i64, align 8
  %4 = alloca { i8*, i32 }, align 8
  %_35 = alloca i8, align 1
  %_34 = alloca i8, align 1
  %_33 = alloca i8, align 1
  %_32 = alloca {}, align 1
  %_27 = alloca %"proc_macro::bridge::client::TokenStream", align 4
  %_26 = alloca %"core::result::Result<proc_macro::bridge::client::TokenStream, ()>", align 4
  %_21 = alloca %"proc_macro::bridge::buffer::Buffer<u8>", align 8
  %_20 = alloca { %"proc_macro::bridge::client::TokenStream", %"proc_macro::bridge::client::TokenStream" }, align 4
  %_19 = alloca { { %"proc_macro::bridge::client::TokenStream", %"proc_macro::bridge::client::TokenStream" } }, align 4
  %output = alloca %"proc_macro::bridge::client::TokenStream", align 4
  %_15 = alloca i64*, align 8
  %_13 = alloca {}, align 1
  %input = alloca { %"proc_macro::bridge::client::TokenStream", %"proc_macro::bridge::client::TokenStream" }, align 4
  %_3 = alloca { [0 x i8]*, i64 }, align 8
  %_1 = alloca { i64*, i64* }, align 8
  %5 = getelementptr inbounds { i64*, i64* }, { i64*, i64* }* %_1, i32 0, i32 0
  store i64* %0, i64** %5, align 8
  %6 = getelementptr inbounds { i64*, i64* }, { i64*, i64* }* %_1, i32 0, i32 1
  store i64* %1, i64** %6, align 8
  store i8 0, i8* %_33, align 1
  store i8 0, i8* %_34, align 1
  store i8 0, i8* %_35, align 1
  store i8 1, i8* %_35, align 1
  %7 = bitcast { i64*, i64* }* %_1 to %"proc_macro::bridge::buffer::Buffer<u8>"**
  %_7 = load %"proc_macro::bridge::buffer::Buffer<u8>"*, %"proc_macro::bridge::buffer::Buffer<u8>"** %7, align 8, !nonnull !3
; invoke <proc_macro::bridge::buffer::Buffer<T> as core::ops::deref::Deref>::deref
  %8 = invoke { [0 x i8]*, i64 } @"_ZN87_$LT$proc_macro..bridge..buffer..Buffer$LT$T$GT$$u20$as$u20$core..ops..deref..Deref$GT$5deref17habd33942a627d63aE"(%"proc_macro::bridge::buffer::Buffer<u8>"* align 8 dereferenceable(40) %_7)
          to label %bb1 unwind label %cleanup

bb1:                                              ; preds = %start
  %_6.0 = extractvalue { [0 x i8]*, i64 } %8, 0
  %_6.1 = extractvalue { [0 x i8]*, i64 } %8, 1
; invoke core::slice::index::<impl core::ops::index::Index<I> for [T]>::index
  %9 = invoke { [0 x i8]*, i64 } @"_ZN4core5slice5index74_$LT$impl$u20$core..ops..index..Index$LT$I$GT$$u20$for$u20$$u5b$T$u5d$$GT$5index17h0166bd776bf8616cE"([0 x i8]* nonnull align 1 %_6.0, i64 %_6.1, %"core::panic::location::Location"* align 8 dereferenceable(24) bitcast (<{ i8*, [16 x i8] }>* @alloc506 to %"core::panic::location::Location"*))
          to label %bb2 unwind label %cleanup

bb17:                                             ; preds = %bb14, %bb15, %cleanup
  %10 = load i8, i8* %_35, align 1, !range !4
  %11 = trunc i8 %10 to i1
  br i1 %11, label %bb16, label %bb9

cleanup:                                          ; preds = %bb2, %bb1, %start
  %12 = landingpad { i8*, i32 }
          cleanup
  %13 = extractvalue { i8*, i32 } %12, 0
  %14 = extractvalue { i8*, i32 } %12, 1
  %15 = getelementptr inbounds { i8*, i32 }, { i8*, i32 }* %4, i32 0, i32 0
  store i8* %13, i8** %15, align 8
  %16 = getelementptr inbounds { i8*, i32 }, { i8*, i32 }* %4, i32 0, i32 1
  store i32 %14, i32* %16, align 8
  br label %bb17

bb2:                                              ; preds = %bb1
  %_4.0 = extractvalue { [0 x i8]*, i64 } %9, 0
  %_4.1 = extractvalue { [0 x i8]*, i64 } %9, 1
  %17 = getelementptr inbounds { [0 x i8]*, i64 }, { [0 x i8]*, i64 }* %_3, i32 0, i32 0
  store [0 x i8]* %_4.0, [0 x i8]** %17, align 8
  %18 = getelementptr inbounds { [0 x i8]*, i64 }, { [0 x i8]*, i64 }* %_3, i32 0, i32 1
  store i64 %_4.1, i64* %18, align 8
; invoke <(A,B) as proc_macro::bridge::rpc::DecodeMut<S>>::decode
  %19 = invoke i64 @"_ZN77_$LT$$LP$A$C$B$RP$$u20$as$u20$proc_macro..bridge..rpc..DecodeMut$LT$S$GT$$GT$6decode17ha74d4f3a357b11efE"({ [0 x i8]*, i64 }* align 8 dereferenceable(16) %_3, {}* nonnull align 1 %_13)
          to label %bb3 unwind label %cleanup

bb3:                                              ; preds = %bb2
  store i64 %19, i64* %3, align 8
  %20 = bitcast { %"proc_macro::bridge::client::TokenStream", %"proc_macro::bridge::client::TokenStream" }* %input to i8*
  %21 = bitcast i64* %3 to i8*
  call void @llvm.memcpy.p0i8.p0i8.i64(i8* align 4 %20, i8* align 8 %21, i64 8, i1 false)
  store i8 1, i8* %_34, align 1
  %22 = bitcast { i64*, i64* }* %_1 to %"proc_macro::bridge::buffer::Buffer<u8>"**
  %_16 = load %"proc_macro::bridge::buffer::Buffer<u8>"*, %"proc_macro::bridge::buffer::Buffer<u8>"** %22, align 8, !nonnull !3
  %23 = bitcast i64** %_15 to %"proc_macro::bridge::buffer::Buffer<u8>"**
  store %"proc_macro::bridge::buffer::Buffer<u8>"* %_16, %"proc_macro::bridge::buffer::Buffer<u8>"** %23, align 8
  %24 = load i64*, i64** %_15, align 8, !nonnull !3
; invoke proc_macro::bridge::client::<impl proc_macro::bridge::Bridge>::with
  invoke void @"_ZN10proc_macro6bridge6client44_$LT$impl$u20$proc_macro..bridge..Bridge$GT$4with17h57f0ffe2d13f239fE"(i64* align 8 dereferenceable(40) %24)
          to label %bb4 unwind label %cleanup1

bb4:                                              ; preds = %bb3
  store i8 0, i8* %_35, align 1
  %25 = getelementptr inbounds { i64*, i64* }, { i64*, i64* }* %_1, i32 0, i32 1
  %_18 = load i64*, i64** %25, align 8, !nonnull !3
  store i8 0, i8* %_34, align 1
  %26 = bitcast { %"proc_macro::bridge::client::TokenStream", %"proc_macro::bridge::client::TokenStream" }* %_20 to i8*
  %27 = bitcast { %"proc_macro::bridge::client::TokenStream", %"proc_macro::bridge::client::TokenStream" }* %input to i8*
  call void @llvm.memcpy.p0i8.p0i8.i64(i8* align 4 %26, i8* align 4 %27, i64 8, i1 false)
  %28 = bitcast { { %"proc_macro::bridge::client::TokenStream", %"proc_macro::bridge::client::TokenStream" } }* %_19 to { %"proc_macro::bridge::client::TokenStream", %"proc_macro::bridge::client::TokenStream" }*
  %29 = bitcast { %"proc_macro::bridge::client::TokenStream", %"proc_macro::bridge::client::TokenStream" }* %28 to i8*
  %30 = bitcast { %"proc_macro::bridge::client::TokenStream", %"proc_macro::bridge::client::TokenStream" }* %_20 to i8*
  call void @llvm.memcpy.p0i8.p0i8.i64(i8* align 4 %29, i8* align 4 %30, i64 8, i1 false)
  %31 = bitcast { { %"proc_macro::bridge::client::TokenStream", %"proc_macro::bridge::client::TokenStream" } }* %_19 to { %"proc_macro::bridge::client::TokenStream", %"proc_macro::bridge::client::TokenStream" }*
  %32 = bitcast { %"proc_macro::bridge::client::TokenStream", %"proc_macro::bridge::client::TokenStream" }* %31 to i64*
  %33 = load i64, i64* %32, align 4
; invoke proc_macro::bridge::client::Client<fn(proc_macro::TokenStream,proc_macro::TokenStream) .> proc_macro::TokenStream>::expand2::run::{{closure}}
  %34 = invoke i32 @"_ZN10proc_macro6bridge6client111Client$LT$fn$LP$proc_macro..TokenStream$C$proc_macro..TokenStream$RP$$u20$.$GT$$u20$proc_macro..TokenStream$GT$7expand23run28_$u7b$$u7b$closure$u7d$$u7d$17h3f1142fb0f6f6778E"(i64* nonnull %_18, i64 %33)
          to label %bb5 unwind label %cleanup1

bb15:                                             ; preds = %bb12, %bb13, %cleanup1
  %35 = load i8, i8* %_34, align 1, !range !4
  %36 = trunc i8 %35 to i1
  br i1 %36, label %bb14, label %bb17

cleanup1:                                         ; preds = %bb4, %bb3
  %37 = landingpad { i8*, i32 }
          cleanup
  %38 = extractvalue { i8*, i32 } %37, 0
  %39 = extractvalue { i8*, i32 } %37, 1
  %40 = getelementptr inbounds { i8*, i32 }, { i8*, i32 }* %4, i32 0, i32 0
  store i8* %38, i8** %40, align 8
  %41 = getelementptr inbounds { i8*, i32 }, { i8*, i32 }* %4, i32 0, i32 1
  store i32 %39, i32* %41, align 8
  br label %bb15

bb5:                                              ; preds = %bb4
  store i32 %34, i32* %2, align 4
  %42 = bitcast %"proc_macro::bridge::client::TokenStream"* %output to i8*
  %43 = bitcast i32* %2 to i8*
  call void @llvm.memcpy.p0i8.p0i8.i64(i8* align 4 %42, i8* align 4 %43, i64 4, i1 false)
  store i8 1, i8* %_33, align 1
; invoke proc_macro::bridge::client::<impl proc_macro::bridge::Bridge>::with
  invoke void @"_ZN10proc_macro6bridge6client44_$LT$impl$u20$proc_macro..bridge..Bridge$GT$4with17h36031605734e8a27E"(%"proc_macro::bridge::buffer::Buffer<u8>"* noalias nocapture sret(%"proc_macro::bridge::buffer::Buffer<u8>") dereferenceable(40) %_21)
          to label %bb6 unwind label %cleanup2

bb6:                                              ; preds = %bb5
  %44 = bitcast { i64*, i64* }* %_1 to %"proc_macro::bridge::buffer::Buffer<u8>"**
  %45 = load %"proc_macro::bridge::buffer::Buffer<u8>"*, %"proc_macro::bridge::buffer::Buffer<u8>"** %44, align 8, !nonnull !3
; invoke core::ptr::drop_in_place<proc_macro::bridge::buffer::Buffer<u8>>
  invoke void @"_ZN4core3ptr65drop_in_place$LT$proc_macro..bridge..buffer..Buffer$LT$u8$GT$$GT$17hc59555330ff6ccd2E"(%"proc_macro::bridge::buffer::Buffer<u8>"* %45)
          to label %bb11 unwind label %cleanup3

bb13:                                             ; preds = %bb10, %cleanup2
  %46 = load i8, i8* %_33, align 1, !range !4
  %47 = trunc i8 %46 to i1
  br i1 %47, label %bb12, label %bb15

cleanup2:                                         ; preds = %bb7, %bb11, %bb5
  %48 = landingpad { i8*, i32 }
          cleanup
  %49 = extractvalue { i8*, i32 } %48, 0
  %50 = extractvalue { i8*, i32 } %48, 1
  %51 = getelementptr inbounds { i8*, i32 }, { i8*, i32 }* %4, i32 0, i32 0
  store i8* %49, i8** %51, align 8
  %52 = getelementptr inbounds { i8*, i32 }, { i8*, i32 }* %4, i32 0, i32 1
  store i32 %50, i32* %52, align 8
  br label %bb13

bb11:                                             ; preds = %bb6
  %53 = bitcast { i64*, i64* }* %_1 to %"proc_macro::bridge::buffer::Buffer<u8>"**
  %54 = load %"proc_macro::bridge::buffer::Buffer<u8>"*, %"proc_macro::bridge::buffer::Buffer<u8>"** %53, align 8, !nonnull !3
  %55 = bitcast %"proc_macro::bridge::buffer::Buffer<u8>"* %54 to i8*
  %56 = bitcast %"proc_macro::bridge::buffer::Buffer<u8>"* %_21 to i8*
  call void @llvm.memcpy.p0i8.p0i8.i64(i8* align 8 %55, i8* align 8 %56, i64 40, i1 false)
  %57 = bitcast { i64*, i64* }* %_1 to %"proc_macro::bridge::buffer::Buffer<u8>"**
  %_24 = load %"proc_macro::bridge::buffer::Buffer<u8>"*, %"proc_macro::bridge::buffer::Buffer<u8>"** %57, align 8, !nonnull !3
; invoke proc_macro::bridge::buffer::Buffer<T>::clear
  invoke void @"_ZN10proc_macro6bridge6buffer15Buffer$LT$T$GT$5clear17hba28b12d2b8f088eE"(%"proc_macro::bridge::buffer::Buffer<u8>"* align 8 dereferenceable(40) %_24)
          to label %bb7 unwind label %cleanup2

bb10:                                             ; preds = %cleanup3
  %58 = bitcast { i64*, i64* }* %_1 to %"proc_macro::bridge::buffer::Buffer<u8>"**
  %59 = load %"proc_macro::bridge::buffer::Buffer<u8>"*, %"proc_macro::bridge::buffer::Buffer<u8>"** %58, align 8, !nonnull !3
  %60 = bitcast %"proc_macro::bridge::buffer::Buffer<u8>"* %59 to i8*
  %61 = bitcast %"proc_macro::bridge::buffer::Buffer<u8>"* %_21 to i8*
  call void @llvm.memcpy.p0i8.p0i8.i64(i8* align 8 %60, i8* align 8 %61, i64 40, i1 false)
  br label %bb13

cleanup3:                                         ; preds = %bb6
  %62 = landingpad { i8*, i32 }
          cleanup
  %63 = extractvalue { i8*, i32 } %62, 0
  %64 = extractvalue { i8*, i32 } %62, 1
  %65 = getelementptr inbounds { i8*, i32 }, { i8*, i32 }* %4, i32 0, i32 0
  store i8* %63, i8** %65, align 8
  %66 = getelementptr inbounds { i8*, i32 }, { i8*, i32 }* %4, i32 0, i32 1
  store i32 %64, i32* %66, align 8
  br label %bb10

bb7:                                              ; preds = %bb11
  store i8 0, i8* %_33, align 1
  %67 = bitcast %"proc_macro::bridge::client::TokenStream"* %_27 to i8*
  %68 = bitcast %"proc_macro::bridge::client::TokenStream"* %output to i8*
  call void @llvm.memcpy.p0i8.p0i8.i64(i8* align 4 %67, i8* align 4 %68, i64 4, i1 false)
  %69 = bitcast %"core::result::Result<proc_macro::bridge::client::TokenStream, ()>"* %_26 to %"core::result::Result<proc_macro::bridge::client::TokenStream, ()>::Ok"*
  %70 = bitcast %"core::result::Result<proc_macro::bridge::client::TokenStream, ()>::Ok"* %69 to %"proc_macro::bridge::client::TokenStream"*
  %71 = bitcast %"proc_macro::bridge::client::TokenStream"* %70 to i8*
  %72 = bitcast %"proc_macro::bridge::client::TokenStream"* %_27 to i8*
  call void @llvm.memcpy.p0i8.p0i8.i64(i8* align 4 %71, i8* align 4 %72, i64 4, i1 false)
  %73 = bitcast { i64*, i64* }* %_1 to %"proc_macro::bridge::buffer::Buffer<u8>"**
  %_29 = load %"proc_macro::bridge::buffer::Buffer<u8>"*, %"proc_macro::bridge::buffer::Buffer<u8>"** %73, align 8, !nonnull !3
  %74 = bitcast %"core::result::Result<proc_macro::bridge::client::TokenStream, ()>"* %_26 to i32*
  %75 = load i32, i32* %74, align 4
; invoke <core::result::Result<T,E> as proc_macro::bridge::rpc::Encode<S>>::encode
  invoke void @"_ZN94_$LT$core..result..Result$LT$T$C$E$GT$$u20$as$u20$proc_macro..bridge..rpc..Encode$LT$S$GT$$GT$6encode17h16ce5014f25c9f35E"(i32 %75, %"proc_macro::bridge::buffer::Buffer<u8>"* align 8 dereferenceable(40) %_29, {}* nonnull align 1 %_32)
          to label %bb8 unwind label %cleanup2

bb8:                                              ; preds = %bb7
  store i8 0, i8* %_33, align 1
  store i8 0, i8* %_34, align 1
  ret void

bb12:                                             ; preds = %bb13
; call core::ptr::drop_in_place<proc_macro::bridge::client::TokenStream>
  call void @"_ZN4core3ptr60drop_in_place$LT$proc_macro..bridge..client..TokenStream$GT$17h9253204819f5425bE"(%"proc_macro::bridge::client::TokenStream"* %output) #18
  br label %bb15

bb14:                                             ; preds = %bb15
; call core::ptr::drop_in_place<(proc_macro::bridge::client::TokenStream,proc_macro::bridge::client::TokenStream)>
  call void @"_ZN4core3ptr110drop_in_place$LT$$LP$proc_macro..bridge..client..TokenStream$C$proc_macro..bridge..client..TokenStream$RP$$GT$17h61b2fe120b9314b6E"({ %"proc_macro::bridge::client::TokenStream", %"proc_macro::bridge::client::TokenStream" }* %input) #18
  br label %bb17

bb9:                                              ; preds = %bb16, %bb17
  %76 = bitcast { i8*, i32 }* %4 to i8**
  %77 = load i8*, i8** %76, align 8
  %78 = getelementptr inbounds { i8*, i32 }, { i8*, i32 }* %4, i32 0, i32 1
  %79 = load i32, i32* %78, align 8
  %80 = insertvalue { i8*, i32 } undef, i8* %77, 0
  %81 = insertvalue { i8*, i32 } %80, i32 %79, 1
  resume { i8*, i32 } %81

bb16:                                             ; preds = %bb17
  br label %bb9
}

; proc_macro::bridge::client::run_client::{{closure}}::{{closure}}::{{closure}}
; Function Attrs: inlinehint nonlazybind uwtable
define internal void @"_ZN10proc_macro6bridge6client10run_client28_$u7b$$u7b$closure$u7d$$u7d$28_$u7b$$u7b$closure$u7d$$u7d$28_$u7b$$u7b$closure$u7d$$u7d$17h1135305a8ee1a03bE"(%"proc_macro::bridge::buffer::Buffer<u8>"* noalias nocapture sret(%"proc_macro::bridge::buffer::Buffer<u8>") dereferenceable(40) %0, %"proc_macro::bridge::Bridge"* align 8 dereferenceable(64) %bridge) unnamed_addr #0 {
start:
  %_3 = bitcast %"proc_macro::bridge::Bridge"* %bridge to %"proc_macro::bridge::buffer::Buffer<u8>"*
; call proc_macro::bridge::buffer::Buffer<T>::take
  call void @"_ZN10proc_macro6bridge6buffer15Buffer$LT$T$GT$4take17h7919c1d6103d1d7bE"(%"proc_macro::bridge::buffer::Buffer<u8>"* noalias nocapture sret(%"proc_macro::bridge::buffer::Buffer<u8>") dereferenceable(40) %0, %"proc_macro::bridge::buffer::Buffer<u8>"* align 8 dereferenceable(40) %_3)
  br label %bb1

bb1:                                              ; preds = %start
  ret void
}

; proc_macro::bridge::client::run_client::{{closure}}::{{closure}}::{{closure}}
; Function Attrs: inlinehint nonlazybind uwtable
define internal void @"_ZN10proc_macro6bridge6client10run_client28_$u7b$$u7b$closure$u7d$$u7d$28_$u7b$$u7b$closure$u7d$$u7d$28_$u7b$$u7b$closure$u7d$$u7d$17ha69b637da5388074E"(i64* align 8 dereferenceable(40) %_1, %"proc_macro::bridge::Bridge"* align 8 dereferenceable(64) %bridge) unnamed_addr #0 personality i32 (i32, i32, i64, %"unwind::libunwind::_Unwind_Exception"*, %"unwind::libunwind::_Unwind_Context"*)* @rust_eh_personality {
start:
  %0 = alloca { i8*, i32 }, align 8
  %_3 = alloca %"proc_macro::bridge::buffer::Buffer<u8>", align 8
  %_4 = bitcast i64* %_1 to %"proc_macro::bridge::buffer::Buffer<u8>"*
; call proc_macro::bridge::buffer::Buffer<T>::take
  call void @"_ZN10proc_macro6bridge6buffer15Buffer$LT$T$GT$4take17h7919c1d6103d1d7bE"(%"proc_macro::bridge::buffer::Buffer<u8>"* noalias nocapture sret(%"proc_macro::bridge::buffer::Buffer<u8>") dereferenceable(40) %_3, %"proc_macro::bridge::buffer::Buffer<u8>"* align 8 dereferenceable(40) %_4)
  br label %bb1

bb1:                                              ; preds = %start
  %1 = bitcast %"proc_macro::bridge::Bridge"* %bridge to %"proc_macro::bridge::buffer::Buffer<u8>"*
; invoke core::ptr::drop_in_place<proc_macro::bridge::buffer::Buffer<u8>>
  invoke void @"_ZN4core3ptr65drop_in_place$LT$proc_macro..bridge..buffer..Buffer$LT$u8$GT$$GT$17hc59555330ff6ccd2E"(%"proc_macro::bridge::buffer::Buffer<u8>"* %1)
          to label %bb3 unwind label %cleanup

bb3:                                              ; preds = %bb1
  %2 = bitcast %"proc_macro::bridge::Bridge"* %bridge to %"proc_macro::bridge::buffer::Buffer<u8>"*
  %3 = bitcast %"proc_macro::bridge::buffer::Buffer<u8>"* %2 to i8*
  %4 = bitcast %"proc_macro::bridge::buffer::Buffer<u8>"* %_3 to i8*
  call void @llvm.memcpy.p0i8.p0i8.i64(i8* align 8 %3, i8* align 8 %4, i64 40, i1 false)
  ret void

bb2:                                              ; preds = %cleanup
  %5 = bitcast %"proc_macro::bridge::Bridge"* %bridge to %"proc_macro::bridge::buffer::Buffer<u8>"*
  %6 = bitcast %"proc_macro::bridge::buffer::Buffer<u8>"* %5 to i8*
  %7 = bitcast %"proc_macro::bridge::buffer::Buffer<u8>"* %_3 to i8*
  call void @llvm.memcpy.p0i8.p0i8.i64(i8* align 8 %6, i8* align 8 %7, i64 40, i1 false)
  %8 = bitcast { i8*, i32 }* %0 to i8**
  %9 = load i8*, i8** %8, align 8
  %10 = getelementptr inbounds { i8*, i32 }, { i8*, i32 }* %0, i32 0, i32 1
  %11 = load i32, i32* %10, align 8
  %12 = insertvalue { i8*, i32 } undef, i8* %9, 0
  %13 = insertvalue { i8*, i32 } %12, i32 %11, 1
  resume { i8*, i32 } %13

cleanup:                                          ; preds = %bb1
  %14 = landingpad { i8*, i32 }
          cleanup
  %15 = extractvalue { i8*, i32 } %14, 0
  %16 = extractvalue { i8*, i32 } %14, 1
  %17 = getelementptr inbounds { i8*, i32 }, { i8*, i32 }* %0, i32 0, i32 0
  store i8* %15, i8** %17, align 8
  %18 = getelementptr inbounds { i8*, i32 }, { i8*, i32 }* %0, i32 0, i32 1
  store i32 %16, i32* %18, align 8
  br label %bb2
}

; proc_macro::bridge::client::Client<fn(proc_macro::TokenStream,proc_macro::TokenStream) .> proc_macro::TokenStream>::expand2::run
; Function Attrs: nonlazybind uwtable
define internal void @"_ZN10proc_macro6bridge6client111Client$LT$fn$LP$proc_macro..TokenStream$C$proc_macro..TokenStream$RP$$u20$.$GT$$u20$proc_macro..TokenStream$GT$7expand23run17hbb3dd7f9effa39f8E"(%"proc_macro::bridge::buffer::Buffer<u8>"* noalias nocapture sret(%"proc_macro::bridge::buffer::Buffer<u8>") dereferenceable(40) %0, %"proc_macro::bridge::Bridge"* noalias nocapture byval(%"proc_macro::bridge::Bridge") dereferenceable(64) %bridge, i32 (i32, i32)* nonnull %f) unnamed_addr #1 {
start:
  %_4 = alloca i64*, align 8
  %_3 = alloca %"proc_macro::bridge::Bridge", align 8
  %1 = bitcast %"proc_macro::bridge::Bridge"* %_3 to i8*
  %2 = bitcast %"proc_macro::bridge::Bridge"* %bridge to i8*
  call void @llvm.memcpy.p0i8.p0i8.i64(i8* align 8 %1, i8* align 8 %2, i64 64, i1 false)
  %3 = bitcast i64** %_4 to i32 (i32, i32)**
  store i32 (i32, i32)* %f, i32 (i32, i32)** %3, align 8
  %4 = load i64*, i64** %_4, align 8, !nonnull !3
; call proc_macro::bridge::client::run_client
  call void @_ZN10proc_macro6bridge6client10run_client17h128cf803dbf20318E(%"proc_macro::bridge::buffer::Buffer<u8>"* noalias nocapture sret(%"proc_macro::bridge::buffer::Buffer<u8>") dereferenceable(40) %0, %"proc_macro::bridge::Bridge"* noalias nocapture dereferenceable(64) %_3, i64* nonnull %4)
  br label %bb1

bb1:                                              ; preds = %start
  ret void
}

; proc_macro::bridge::client::Client<fn(proc_macro::TokenStream,proc_macro::TokenStream) .> proc_macro::TokenStream>::expand2::run::{{closure}}
; Function Attrs: inlinehint nonlazybind uwtable
define internal i32 @"_ZN10proc_macro6bridge6client111Client$LT$fn$LP$proc_macro..TokenStream$C$proc_macro..TokenStream$RP$$u20$.$GT$$u20$proc_macro..TokenStream$GT$7expand23run28_$u7b$$u7b$closure$u7d$$u7d$17h3f1142fb0f6f6778E"(i64* nonnull %_1, i64 %0) unnamed_addr #0 {
start:
  %1 = alloca i32, align 4
  %_11 = alloca %"proc_macro::bridge::client::TokenStream", align 4
  %_10 = alloca %"proc_macro::TokenStream", align 4
  %_9 = alloca %"proc_macro::bridge::client::TokenStream", align 4
  %_8 = alloca %"proc_macro::TokenStream", align 4
  %_7 = alloca { %"proc_macro::TokenStream", %"proc_macro::TokenStream" }, align 4
  %_5 = alloca %"proc_macro::TokenStream", align 4
  %input2 = alloca %"proc_macro::bridge::client::TokenStream", align 4
  %input = alloca %"proc_macro::bridge::client::TokenStream", align 4
  %2 = alloca %"proc_macro::bridge::client::TokenStream", align 4
  %3 = alloca i64, align 8
  %_2 = alloca { %"proc_macro::bridge::client::TokenStream", %"proc_macro::bridge::client::TokenStream" }, align 4
  store i64 %0, i64* %3, align 8
  %4 = bitcast { %"proc_macro::bridge::client::TokenStream", %"proc_macro::bridge::client::TokenStream" }* %_2 to i8*
  %5 = bitcast i64* %3 to i8*
  call void @llvm.memcpy.p0i8.p0i8.i64(i8* align 4 %4, i8* align 8 %5, i64 8, i1 false)
  %6 = bitcast { %"proc_macro::bridge::client::TokenStream", %"proc_macro::bridge::client::TokenStream" }* %_2 to %"proc_macro::bridge::client::TokenStream"*
  %7 = bitcast %"proc_macro::bridge::client::TokenStream"* %input to i8*
  %8 = bitcast %"proc_macro::bridge::client::TokenStream"* %6 to i8*
  call void @llvm.memcpy.p0i8.p0i8.i64(i8* align 4 %7, i8* align 4 %8, i64 4, i1 false)
  %9 = getelementptr inbounds { %"proc_macro::bridge::client::TokenStream", %"proc_macro::bridge::client::TokenStream" }, { %"proc_macro::bridge::client::TokenStream", %"proc_macro::bridge::client::TokenStream" }* %_2, i32 0, i32 1
  %10 = bitcast %"proc_macro::bridge::client::TokenStream"* %input2 to i8*
  %11 = bitcast %"proc_macro::bridge::client::TokenStream"* %9 to i8*
  call void @llvm.memcpy.p0i8.p0i8.i64(i8* align 4 %10, i8* align 4 %11, i64 4, i1 false)
  %_6 = bitcast i64* %_1 to i32 (i32, i32)*
  %12 = bitcast %"proc_macro::bridge::client::TokenStream"* %_9 to i8*
  %13 = bitcast %"proc_macro::bridge::client::TokenStream"* %input to i8*
  call void @llvm.memcpy.p0i8.p0i8.i64(i8* align 4 %12, i8* align 4 %13, i64 4, i1 false)
  %14 = bitcast %"proc_macro::TokenStream"* %_8 to %"proc_macro::bridge::client::TokenStream"*
  %15 = bitcast %"proc_macro::bridge::client::TokenStream"* %14 to i8*
  %16 = bitcast %"proc_macro::bridge::client::TokenStream"* %_9 to i8*
  call void @llvm.memcpy.p0i8.p0i8.i64(i8* align 4 %15, i8* align 4 %16, i64 4, i1 false)
  %17 = bitcast %"proc_macro::bridge::client::TokenStream"* %_11 to i8*
  %18 = bitcast %"proc_macro::bridge::client::TokenStream"* %input2 to i8*
  call void @llvm.memcpy.p0i8.p0i8.i64(i8* align 4 %17, i8* align 4 %18, i64 4, i1 false)
  %19 = bitcast %"proc_macro::TokenStream"* %_10 to %"proc_macro::bridge::client::TokenStream"*
  %20 = bitcast %"proc_macro::bridge::client::TokenStream"* %19 to i8*
  %21 = bitcast %"proc_macro::bridge::client::TokenStream"* %_11 to i8*
  call void @llvm.memcpy.p0i8.p0i8.i64(i8* align 4 %20, i8* align 4 %21, i64 4, i1 false)
  %22 = bitcast { %"proc_macro::TokenStream", %"proc_macro::TokenStream" }* %_7 to %"proc_macro::TokenStream"*
  %23 = bitcast %"proc_macro::TokenStream"* %22 to i8*
  %24 = bitcast %"proc_macro::TokenStream"* %_8 to i8*
  call void @llvm.memcpy.p0i8.p0i8.i64(i8* align 4 %23, i8* align 4 %24, i64 4, i1 false)
  %25 = getelementptr inbounds { %"proc_macro::TokenStream", %"proc_macro::TokenStream" }, { %"proc_macro::TokenStream", %"proc_macro::TokenStream" }* %_7, i32 0, i32 1
  %26 = bitcast %"proc_macro::TokenStream"* %25 to i8*
  %27 = bitcast %"proc_macro::TokenStream"* %_10 to i8*
  call void @llvm.memcpy.p0i8.p0i8.i64(i8* align 4 %26, i8* align 4 %27, i64 4, i1 false)
  %28 = bitcast { %"proc_macro::TokenStream", %"proc_macro::TokenStream" }* %_7 to %"proc_macro::TokenStream"*
  %29 = bitcast %"proc_macro::TokenStream"* %28 to i32*
  %30 = load i32, i32* %29, align 4
  %31 = getelementptr inbounds { %"proc_macro::TokenStream", %"proc_macro::TokenStream" }, { %"proc_macro::TokenStream", %"proc_macro::TokenStream" }* %_7, i32 0, i32 1
  %32 = bitcast %"proc_macro::TokenStream"* %31 to i32*
  %33 = load i32, i32* %32, align 4
; call core::ops::function::FnOnce::call_once
  %34 = call i32 @_ZN4core3ops8function6FnOnce9call_once17ha0d7fd250afe790dE(i32 (i32, i32)* nonnull %_6, i32 %30, i32 %33)
  store i32 %34, i32* %1, align 4
  %35 = bitcast %"proc_macro::TokenStream"* %_5 to i8*
  %36 = bitcast i32* %1 to i8*
  call void @llvm.memcpy.p0i8.p0i8.i64(i8* align 4 %35, i8* align 4 %36, i64 4, i1 false)
  br label %bb1

bb1:                                              ; preds = %start
  %37 = bitcast %"proc_macro::TokenStream"* %_5 to %"proc_macro::bridge::client::TokenStream"*
  %38 = bitcast %"proc_macro::bridge::client::TokenStream"* %2 to i8*
  %39 = bitcast %"proc_macro::bridge::client::TokenStream"* %37 to i8*
  call void @llvm.memcpy.p0i8.p0i8.i64(i8* align 4 %38, i8* align 4 %39, i64 4, i1 false)
  %40 = bitcast %"proc_macro::bridge::client::TokenStream"* %2 to i32*
  %41 = load i32, i32* %40, align 4
  ret i32 %41
}

; proc_macro::bridge::client::BridgeState::with
; Function Attrs: nonlazybind uwtable
define internal void @_ZN10proc_macro6bridge6client11BridgeState4with17ha465cc4de5a6193dE(i64* align 8 dereferenceable(40) %f) unnamed_addr #1 {
start:
  %_3 = alloca i64*, align 8
  store i64* %f, i64** %_3, align 8
  %0 = load i64*, i64** %_3, align 8, !nonnull !3
; call std::thread::local::LocalKey<T>::with
  call void @"_ZN3std6thread5local17LocalKey$LT$T$GT$4with17h1fa88674d8b9be34E"(i64** align 8 dereferenceable(8) bitcast (<{ i8*, [0 x i8] }>* @alloc19 to i64**), i64* align 8 dereferenceable(40) %0)
  br label %bb1

bb1:                                              ; preds = %start
  ret void
}

; proc_macro::bridge::client::BridgeState::with
; Function Attrs: nonlazybind uwtable
define internal void @_ZN10proc_macro6bridge6client11BridgeState4with17hc6cb9675caa4fa08E(%"proc_macro::bridge::buffer::Buffer<u8>"* noalias nocapture sret(%"proc_macro::bridge::buffer::Buffer<u8>") dereferenceable(40) %0) unnamed_addr #1 {
start:
  %_3 = alloca %"[closure@proc_macro::bridge::client::BridgeState::with<proc_macro::bridge::buffer::Buffer<u8>, [closure@proc_macro::bridge::client::<impl proc_macro::bridge::Bridge>::with<proc_macro::bridge::buffer::Buffer<u8>, [closure@proc_macro::bridge::client::run_client<(proc_macro::bridge::client::TokenStream, proc_macro::bridge::client::TokenStream), proc_macro::bridge::client::TokenStream, [closure@proc_macro::bridge::client::Client<fn(proc_macro::TokenStream, proc_macro::TokenStream) -> proc_macro::TokenStream>::expand2::run<fn(proc_macro::TokenStream, proc_macro::TokenStream) -> proc_macro::TokenStream>::{closure#0}]>::{closure#0}::{closure#0}::{closure#1}]>::{closure#0}]>::{closure#0}]", align 1
  %1 = bitcast %"[closure@proc_macro::bridge::client::BridgeState::with<proc_macro::bridge::buffer::Buffer<u8>, [closure@proc_macro::bridge::client::<impl proc_macro::bridge::Bridge>::with<proc_macro::bridge::buffer::Buffer<u8>, [closure@proc_macro::bridge::client::run_client<(proc_macro::bridge::client::TokenStream, proc_macro::bridge::client::TokenStream), proc_macro::bridge::client::TokenStream, [closure@proc_macro::bridge::client::Client<fn(proc_macro::TokenStream, proc_macro::TokenStream) -> proc_macro::TokenStream>::expand2::run<fn(proc_macro::TokenStream, proc_macro::TokenStream) -> proc_macro::TokenStream>::{closure#0}]>::{closure#0}::{closure#0}::{closure#1}]>::{closure#0}]>::{closure#0}]"* %_3 to %"[closure@proc_macro::bridge::client::<impl proc_macro::bridge::Bridge>::with<proc_macro::bridge::buffer::Buffer<u8>, [closure@proc_macro::bridge::client::run_client<(proc_macro::bridge::client::TokenStream, proc_macro::bridge::client::TokenStream), proc_macro::bridge::client::TokenStream, [closure@proc_macro::bridge::client::Client<fn(proc_macro::TokenStream, proc_macro::TokenStream) -> proc_macro::TokenStream>::expand2::run<fn(proc_macro::TokenStream, proc_macro::TokenStream) -> proc_macro::TokenStream>::{closure#0}]>::{closure#0}::{closure#0}::{closure#1}]>::{closure#0}]"*
; call std::thread::local::LocalKey<T>::with
  call void @"_ZN3std6thread5local17LocalKey$LT$T$GT$4with17h6affc48491368c8dE"(%"proc_macro::bridge::buffer::Buffer<u8>"* noalias nocapture sret(%"proc_macro::bridge::buffer::Buffer<u8>") dereferenceable(40) %0, i64** align 8 dereferenceable(8) bitcast (<{ i8*, [0 x i8] }>* @alloc19 to i64**))
  br label %bb1

bb1:                                              ; preds = %start
  ret void
}

; proc_macro::bridge::client::BridgeState::with
; Function Attrs: nonlazybind uwtable
define internal zeroext i1 @_ZN10proc_macro6bridge6client11BridgeState4with17hfbd70171a040a836E(i8* align 1 dereferenceable(1) %f) unnamed_addr #1 {
start:
  %_3 = alloca i8*, align 8
  store i8* %f, i8** %_3, align 8
  %0 = load i8*, i8** %_3, align 8, !nonnull !3
; call std::thread::local::LocalKey<T>::with
  %1 = call zeroext i1 @"_ZN3std6thread5local17LocalKey$LT$T$GT$4with17h18098505f3b0f302E"(i64** align 8 dereferenceable(8) bitcast (<{ i8*, [0 x i8] }>* @alloc19 to i64**), i8* align 1 dereferenceable(1) %0)
  br label %bb1

