; ModuleID = 'quote.622a1e13-cgu.0'
source_filename = "quote.622a1e13-cgu.0"
target datalayout = "e-m:e-p270:32:32-p271:32:32-p272:64:64-i64:64-f80:128-n8:16:32:64-S128"
target triple = "x86_64-unknown-linux-gnu"

%"alloc::string::String" = type { %"alloc::vec::Vec<u8>" }
%"alloc::vec::Vec<u8>" = type { { i8*, i64 }, i64 }
%"core::panic::location::Location" = type { { [0 x i8]*, i64 }, i32, i32 }
%"core::option::Option<proc_macro2::fallback::TokenStream>" = type { {}*, [2 x i64] }
%"core::iter::adapters::fuse::Fuse<core::iter::adapters::map::Map<core::iter::adapters::map::Map<core::iter::sources::once::Once<proc_macro2::TokenStream>, [closure@<proc_macro2::TokenStream as core::iter::traits::collect::Extend<proc_macro2::TokenStream>>::extend<core::iter::sources::once::Once<proc_macro2::TokenStream>>::{closure#0}]>, fn(proc_macro2::imp::TokenStream) -> proc_macro2::fallback::TokenStream {proc_macro2::imp::TokenStream::unwrap_stable}>>" = type { %"core::option::Option<core::iter::adapters::map::Map<core::iter::adapters::map::Map<core::iter::sources::once::Once<proc_macro2::TokenStream>, [closure@<proc_macro2::TokenStream as core::iter::traits::collect::Extend<proc_macro2::TokenStream>>::extend<core::iter::sources::once::Once<proc_macro2::TokenStream>>::{closure#0}]>, fn(proc_macro2::imp::TokenStream) -> proc_macro2::fallback::TokenStream {proc_macro2::imp::TokenStream::unwrap_stable}>>" }
%"core::option::Option<core::iter::adapters::map::Map<core::iter::adapters::map::Map<core::iter::sources::once::Once<proc_macro2::TokenStream>, [closure@<proc_macro2::TokenStream as core::iter::traits::collect::Extend<proc_macro2::TokenStream>>::extend<core::iter::sources::once::Once<proc_macro2::TokenStream>>::{closure#0}]>, fn(proc_macro2::imp::TokenStream) -> proc_macro2::fallback::TokenStream {proc_macro2::imp::TokenStream::unwrap_stable}>>" = type { i64, [4 x i64] }
%"core::option::Option<usize>::Some" = type { [1 x i64], i64 }
%"core::option::Option<core::iter::adapters::map::Map<core::iter::adapters::map::Map<core::iter::sources::once::Once<proc_macro2::TokenStream>, [closure@<proc_macro2::TokenStream as core::iter::traits::collect::Extend<proc_macro2::TokenStream>>::extend<core::iter::sources::once::Once<proc_macro2::TokenStream>>::{closure#0}]>, fn(proc_macro2::imp::TokenStream) -> proc_macro2::fallback::TokenStream {proc_macro2::imp::TokenStream::unwrap_stable}>>::Some" = type { %"core::iter::adapters::map::Map<core::iter::adapters::map::Map<core::iter::sources::once::Once<proc_macro2::TokenStream>, [closure@<proc_macro2::TokenStream as core::iter::traits::collect::Extend<proc_macro2::TokenStream>>::extend<core::iter::sources::once::Once<proc_macro2::TokenStream>>::{closure#0}]>, fn(proc_macro2::imp::TokenStream) -> proc_macro2::fallback::TokenStream {proc_macro2::imp::TokenStream::unwrap_stable}>" }
%"core::iter::adapters::map::Map<core::iter::adapters::map::Map<core::iter::sources::once::Once<proc_macro2::TokenStream>, [closure@<proc_macro2::TokenStream as core::iter::traits::collect::Extend<proc_macro2::TokenStream>>::extend<core::iter::sources::once::Once<proc_macro2::TokenStream>>::{closure#0}]>, fn(proc_macro2::imp::TokenStream) -> proc_macro2::fallback::TokenStream {proc_macro2::imp::TokenStream::unwrap_stable}>" = type { {}, %"core::iter::adapters::map::Map<core::iter::sources::once::Once<proc_macro2::TokenStream>, [closure@<proc_macro2::TokenStream as core::iter::traits::collect::Extend<proc_macro2::TokenStream>>::extend<core::iter::sources::once::Once<proc_macro2::TokenStream>>::{closure#0}]>" }
%"core::iter::adapters::map::Map<core::iter::sources::once::Once<proc_macro2::TokenStream>, [closure@<proc_macro2::TokenStream as core::iter::traits::collect::Extend<proc_macro2::TokenStream>>::extend<core::iter::sources::once::Once<proc_macro2::TokenStream>>::{closure#0}]>" = type { %"[closure@<proc_macro2::TokenStream as core::iter::traits::collect::Extend<proc_macro2::TokenStream>>::extend<core::iter::sources::once::Once<proc_macro2::TokenStream>>::{closure#0}]", %"core::iter::sources::once::Once<proc_macro2::TokenStream>" }
%"[closure@<proc_macro2::TokenStream as core::iter::traits::collect::Extend<proc_macro2::TokenStream>>::extend<core::iter::sources::once::Once<proc_macro2::TokenStream>>::{closure#0}]" = type {}
%"core::iter::sources::once::Once<proc_macro2::TokenStream>" = type { %"core::option::IntoIter<proc_macro2::TokenStream>" }
%"core::option::IntoIter<proc_macro2::TokenStream>" = type { %"core::option::Item<proc_macro2::TokenStream>" }
%"core::option::Item<proc_macro2::TokenStream>" = type { %"core::option::Option<proc_macro2::TokenStream>" }
%"core::option::Option<proc_macro2::TokenStream>" = type { i64, [4 x i64] }
%"core::iter::adapters::map::Map<core::iter::adapters::map::Map<proc_macro2::token_stream::IntoIter, [closure@/home/cj/.cargo/registry/src/github.com-1ecc6299db9ec823/quote-1.0.15/src/runtime.rs:197:22: 197:60]>, fn(proc_macro2::TokenTree) -> proc_macro::TokenTree {proc_macro2::imp::into_compiler_token}>" = type { {}, %"core::iter::adapters::map::Map<proc_macro2::token_stream::IntoIter, [closure@/home/cj/.cargo/registry/src/github.com-1ecc6299db9ec823/quote-1.0.15/src/runtime.rs:197:22: 197:60]>" }
%"core::iter::adapters::map::Map<proc_macro2::token_stream::IntoIter, [closure@/home/cj/.cargo/registry/src/github.com-1ecc6299db9ec823/quote-1.0.15/src/runtime.rs:197:22: 197:60]>" = type { %"proc_macro2::token_stream::IntoIter", i32* }
%"proc_macro2::token_stream::IntoIter" = type { %"core::marker::PhantomData<proc_macro2::marker::ProcMacroAutoTraits>", %"proc_macro2::imp::TokenTreeIter" }
%"core::marker::PhantomData<proc_macro2::marker::ProcMacroAutoTraits>" = type {}
%"proc_macro2::imp::TokenTreeIter" = type { i32, [9 x i32] }
%"core::iter::adapters::map::Map<core::iter::adapters::map::Map<core::iter::adapters::map::Map<proc_macro2::token_stream::IntoIter, [closure@/home/cj/.cargo/registry/src/github.com-1ecc6299db9ec823/quote-1.0.15/src/runtime.rs:197:22: 197:60]>, fn(proc_macro2::TokenTree) -> proc_macro::TokenTree {proc_macro2::imp::into_compiler_token}>, fn(proc_macro::TokenTree) -> proc_macro::TokenStream {<proc_macro::TokenStream as core::convert::From<proc_macro::TokenTree>>::from}>" = type { {}, %"core::iter::adapters::map::Map<core::iter::adapters::map::Map<proc_macro2::token_stream::IntoIter, [closure@/home/cj/.cargo/registry/src/github.com-1ecc6299db9ec823/quote-1.0.15/src/runtime.rs:197:22: 197:60]>, fn(proc_macro2::TokenTree) -> proc_macro::TokenTree {proc_macro2::imp::into_compiler_token}>" }
%"core::iter::adapters::map::Map<core::iter::adapters::map::Map<core::iter::sources::once::Once<proc_macro2::TokenStream>, [closure@<proc_macro2::TokenStream as core::iter::traits::collect::Extend<proc_macro2::TokenStream>>::extend<core::iter::sources::once::Once<proc_macro2::TokenStream>>::{closure#0}]>, fn(proc_macro2::imp::TokenStream) -> proc_macro::TokenStream {proc_macro2::imp::TokenStream::unwrap_nightly}>" = type { {}, %"core::iter::adapters::map::Map<core::iter::sources::once::Once<proc_macro2::TokenStream>, [closure@<proc_macro2::TokenStream as core::iter::traits::collect::Extend<proc_macro2::TokenStream>>::extend<core::iter::sources::once::Once<proc_macro2::TokenStream>>::{closure#0}]>" }
%"core::iter::adapters::map::Map<proc_macro2::token_stream::IntoIter, [closure@/home/cj/.cargo/registry/src/github.com-1ecc6299db9ec823/quote-1.0.15/src/runtime.rs:187:37: 187:67]>" = type { %"proc_macro2::token_stream::IntoIter", i32* }
%"core::option::Option<proc_macro2::imp::TokenStream>" = type { i64, [4 x i64] }
%"core::option::Option<proc_macro2::TokenTree>" = type { i32, [11 x i32] }
%"proc_macro2::Span" = type { %"core::marker::PhantomData<proc_macro2::marker::ProcMacroAutoTraits>", %"proc_macro2::imp::Span" }
%"proc_macro2::imp::Span" = type { i32 }
%"core::ops::control_flow::ControlFlow<proc_macro2::Span>" = type { i32, [1 x i32] }
%"core::ops::control_flow::ControlFlow<proc_macro2::Span, core::convert::Infallible>::Break" = type { %"proc_macro2::Span" }
%"core::ops::control_flow::ControlFlow<proc_macro2::Span>::Break" = type { [1 x i32], %"proc_macro2::Span" }
%"core::iter::adapters::chain::Chain<core::iter::sources::once::Once<proc_macro::TokenStream>, core::iter::adapters::map::Map<core::iter::adapters::map::Map<core::iter::sources::once::Once<proc_macro2::TokenStream>, [closure@<proc_macro2::TokenStream as core::iter::traits::collect::Extend<proc_macro2::TokenStream>>::extend<core::iter::sources::once::Once<proc_macro2::TokenStream>>::{closure#0}]>, fn(proc_macro2::imp::TokenStream) -> proc_macro::TokenStream {proc_macro2::imp::TokenStream::unwrap_nightly}>>" = type { %"core::option::Option<core::iter::adapters::map::Map<core::iter::adapters::map::Map<core::iter::sources::once::Once<proc_macro2::TokenStream>, [closure@<proc_macro2::TokenStream as core::iter::traits::collect::Extend<proc_macro2::TokenStream>>::extend<core::iter::sources::once::Once<proc_macro2::TokenStream>>::{closure#0}]>, fn(proc_macro2::imp::TokenStream) -> proc_macro::TokenStream {proc_macro2::imp::TokenStream::unwrap_nightly}>>", %"core::option::Option<core::iter::sources::once::Once<proc_macro::TokenStream>>" }
%"core::option::Option<core::iter::adapters::map::Map<core::iter::adapters::map::Map<core::iter::sources::once::Once<proc_macro2::TokenStream>, [closure@<proc_macro2::TokenStream as core::iter::traits::collect::Extend<proc_macro2::TokenStream>>::extend<core::iter::sources::once::Once<proc_macro2::TokenStream>>::{closure#0}]>, fn(proc_macro2::imp::TokenStream) -> proc_macro::TokenStream {proc_macro2::imp::TokenStream::unwrap_nightly}>>" = type { i64, [4 x i64] }
%"core::option::Option<core::iter::sources::once::Once<proc_macro::TokenStream>>" = type { i32, [1 x i32] }
%"core::iter::sources::once::Once<proc_macro::TokenStream>" = type { %"core::option::IntoIter<proc_macro::TokenStream>" }
%"core::option::IntoIter<proc_macro::TokenStream>" = type { %"core::option::Item<proc_macro::TokenStream>" }
%"core::option::Item<proc_macro::TokenStream>" = type { %"core::option::Option<proc_macro::TokenStream>" }
%"core::option::Option<proc_macro::TokenStream>" = type { i32 }
%"core::option::Option<core::iter::sources::once::Once<proc_macro::TokenStream>>::Some" = type { [1 x i32], %"core::iter::sources::once::Once<proc_macro::TokenStream>" }
%"core::option::Option<core::iter::adapters::map::Map<core::iter::adapters::map::Map<core::iter::sources::once::Once<proc_macro2::TokenStream>, [closure@<proc_macro2::TokenStream as core::iter::traits::collect::Extend<proc_macro2::TokenStream>>::extend<core::iter::sources::once::Once<proc_macro2::TokenStream>>::{closure#0}]>, fn(proc_macro2::imp::TokenStream) -> proc_macro::TokenStream {proc_macro2::imp::TokenStream::unwrap_nightly}>>::Some" = type { %"core::iter::adapters::map::Map<core::iter::adapters::map::Map<core::iter::sources::once::Once<proc_macro2::TokenStream>, [closure@<proc_macro2::TokenStream as core::iter::traits::collect::Extend<proc_macro2::TokenStream>>::extend<core::iter::sources::once::Once<proc_macro2::TokenStream>>::{closure#0}]>, fn(proc_macro2::imp::TokenStream) -> proc_macro::TokenStream {proc_macro2::imp::TokenStream::unwrap_nightly}>" }
%"core::iter::adapters::flatten::Flatten<core::iter::adapters::map::Map<core::iter::adapters::map::Map<core::iter::sources::once::Once<proc_macro2::TokenStream>, [closure@<proc_macro2::TokenStream as core::iter::traits::collect::Extend<proc_macro2::TokenStream>>::extend<core::iter::sources::once::Once<proc_macro2::TokenStream>>::{closure#0}]>, fn(proc_macro2::imp::TokenStream) -> proc_macro2::fallback::TokenStream {proc_macro2::imp::TokenStream::unwrap_stable}>>" = type { %"core::iter::adapters::flatten::FlattenCompat<core::iter::adapters::map::Map<core::iter::adapters::map::Map<core::iter::sources::once::Once<proc_macro2::TokenStream>, [closure@<proc_macro2::TokenStream as core::iter::traits::collect::Extend<proc_macro2::TokenStream>>::extend<core::iter::sources::once::Once<proc_macro2::TokenStream>>::{closure#0}]>, fn(proc_macro2::imp::TokenStream) -> proc_macro2::fallback::TokenStream {proc_macro2::imp::TokenStream::unwrap_stable}>, alloc::vec::into_iter::IntoIter<proc_macro2::TokenTree>>" }
%"core::iter::adapters::flatten::FlattenCompat<core::iter::adapters::map::Map<core::iter::adapters::map::Map<core::iter::sources::once::Once<proc_macro2::TokenStream>, [closure@<proc_macro2::TokenStream as core::iter::traits::collect::Extend<proc_macro2::TokenStream>>::extend<core::iter::sources::once::Once<proc_macro2::TokenStream>>::{closure#0}]>, fn(proc_macro2::imp::TokenStream) -> proc_macro2::fallback::TokenStream {proc_macro2::imp::TokenStream::unwrap_stable}>, alloc::vec::into_iter::IntoIter<proc_macro2::TokenTree>>" = type { %"core::iter::adapters::fuse::Fuse<core::iter::adapters::map::Map<core::iter::adapters::map::Map<core::iter::sources::once::Once<proc_macro2::TokenStream>, [closure@<proc_macro2::TokenStream as core::iter::traits::collect::Extend<proc_macro2::TokenStream>>::extend<core::iter::sources::once::Once<proc_macro2::TokenStream>>::{closure#0}]>, fn(proc_macro2::imp::TokenStream) -> proc_macro2::fallback::TokenStream {proc_macro2::imp::TokenStream::unwrap_stable}>>", %"core::option::Option<alloc::vec::into_iter::IntoIter<proc_macro2::TokenTree>>", %"core::option::Option<alloc::vec::into_iter::IntoIter<proc_macro2::TokenTree>>" }
%"core::option::Option<alloc::vec::into_iter::IntoIter<proc_macro2::TokenTree>>" = type { {}*, [3 x i64] }
%"proc_macro::TokenStream" = type { %"proc_macro::bridge::client::TokenStream" }
%"proc_macro::bridge::client::TokenStream" = type { i32 }
%"proc_macro2::TokenStream" = type { %"core::marker::PhantomData<proc_macro2::marker::ProcMacroAutoTraits>", %"proc_macro2::imp::TokenStream" }
%"proc_macro2::imp::TokenStream" = type { i64, [4 x i64] }
%"__private::push_lifetime_spanned::Lifetime" = type { { [0 x i8]*, i64 }, %"proc_macro2::Span", i8, [3 x i8] }
%"core::iter::sources::once::Once<proc_macro2::TokenTree>" = type { %"core::option::IntoIter<proc_macro2::TokenTree>" }
%"core::option::IntoIter<proc_macro2::TokenTree>" = type { %"core::option::Item<proc_macro2::TokenTree>" }
%"core::option::Item<proc_macro2::TokenTree>" = type { %"core::option::Option<proc_macro2::TokenTree>" }
%"__private::push_lifetime::Lifetime" = type { { [0 x i8]*, i64 }, i8, [7 x i8] }
%"core::iter::adapters::filter_map::FilterMap<proc_macro2::token_stream::IntoIter, [closure@/home/cj/.cargo/registry/src/github.com-1ecc6299db9ec823/quote-1.0.15/src/spanned.rs:21:50: 32:6]>" = type { %"[closure@/home/cj/.cargo/registry/src/github.com-1ecc6299db9ec823/quote-1.0.15/src/spanned.rs:21:50: 32:6]", %"proc_macro2::token_stream::IntoIter" }
%"[closure@/home/cj/.cargo/registry/src/github.com-1ecc6299db9ec823/quote-1.0.15/src/spanned.rs:21:50: 32:6]" = type {}
%"core::option::Option<proc_macro2::Span>" = type { i32, [1 x i32] }
%"proc_macro2::TokenTree" = type { i32, [11 x i32] }
%"proc_macro::TokenTree" = type { i32, [1 x i32] }
%"proc_macro2::imp::TokenStream::Compiler" = type { [1 x i64], %"proc_macro2::imp::DeferredTokenStream" }
%"proc_macro2::imp::DeferredTokenStream" = type { %"alloc::vec::Vec<proc_macro::TokenTree>", %"proc_macro::TokenStream", [1 x i32] }
%"alloc::vec::Vec<proc_macro::TokenTree>" = type { { i32*, i64 }, i64 }
%"proc_macro2::imp::TokenStream::Fallback" = type { [1 x i64], %"proc_macro2::fallback::TokenStream" }
%"proc_macro2::fallback::TokenStream" = type { %"alloc::vec::Vec<proc_macro2::TokenTree>" }
%"alloc::vec::Vec<proc_macro2::TokenTree>" = type { { i64*, i64 }, i64 }
%"core::option::Option<proc_macro2::TokenTree>::Some" = type { %"proc_macro2::TokenTree" }
%"alloc::vec::into_iter::IntoIter<proc_macro2::TokenTree>" = type { %"core::marker::PhantomData<proc_macro2::TokenTree>", %"alloc::alloc::Global", i64*, i64, %"proc_macro2::TokenTree"*, %"proc_macro2::TokenTree"* }
%"core::marker::PhantomData<proc_macro2::TokenTree>" = type {}
%"alloc::alloc::Global" = type {}
%"core::option::Option<alloc::vec::into_iter::IntoIter<proc_macro2::TokenTree>>::Some" = type { %"alloc::vec::into_iter::IntoIter<proc_macro2::TokenTree>" }
%"core::option::Option<proc_macro2::fallback::TokenStream>::Some" = type { %"proc_macro2::fallback::TokenStream" }
%"core::ops::control_flow::ControlFlow<core::option::Option<core::convert::Infallible>, usize>::Continue" = type { [1 x i64], i64 }
%"proc_macro::bridge::client::TokenStreamBuilder" = type { i32 }
%"core::fmt::Formatter" = type { { i64, i64 }, { i64, i64 }, { {}*, [3 x i64]* }, i32, i32, i8, [7 x i8] }
%"core::fmt::Opaque" = type {}
%"core::fmt::Arguments" = type { { [0 x { [0 x i8]*, i64 }]*, i64 }, { i64*, i64 }, { [0 x { i8*, i64* }]*, i64 } }
%"core::option::Option<proc_macro2::Span>::Some" = type { [1 x i32], %"proc_macro2::Span" }
%"core::mem::manually_drop::ManuallyDrop<core::option::Option<proc_macro2::TokenStream>>" = type { %"core::option::Option<proc_macro2::TokenStream>" }
%"core::mem::maybe_uninit::MaybeUninit<core::option::Option<proc_macro2::TokenStream>>" = type { [5 x i64] }
%"core::mem::manually_drop::ManuallyDrop<core::option::Option<proc_macro2::TokenTree>>" = type { %"core::option::Option<proc_macro2::TokenTree>" }
%"core::mem::maybe_uninit::MaybeUninit<core::option::Option<proc_macro2::TokenTree>>" = type { [6 x i64] }
%"proc_macro2::imp::TokenTreeIter::Compiler" = type { [1 x i32], %"proc_macro::token_stream::IntoIter" }
%"proc_macro::token_stream::IntoIter" = type { %"proc_macro::bridge::client::TokenStreamIter" }
%"proc_macro::bridge::client::TokenStreamIter" = type { i32 }
%"proc_macro2::imp::TokenTreeIter::Fallback" = type { [1 x i64], %"alloc::vec::into_iter::IntoIter<proc_macro2::TokenTree>" }
%"core::option::Option<proc_macro2::TokenStream>::Some" = type { %"proc_macro2::TokenStream" }
%"core::result::Result<proc_macro2::TokenStream, proc_macro2::LexError>" = type { i8, [47 x i8] }
%"[closure@core::iter::adapters::filter_map::filter_map_fold<proc_macro2::TokenTree, proc_macro2::Span, core::option::Option<proc_macro2::Span>, [closure@/home/cj/.cargo/registry/src/github.com-1ecc6299db9ec823/quote-1.0.15/src/spanned.rs:21:50: 32:6], [closure@/home/cj/.cargo/registry/src/github.com-1ecc6299db9ec823/quote-1.0.15/src/spanned.rs:39:21: 39:45]>::{closure#0}]" = type { %"[closure@/home/cj/.cargo/registry/src/github.com-1ecc6299db9ec823/quote-1.0.15/src/spanned.rs:21:50: 32:6]", %"[closure@/home/cj/.cargo/registry/src/github.com-1ecc6299db9ec823/quote-1.0.15/src/spanned.rs:39:21: 39:45]" }
%"[closure@/home/cj/.cargo/registry/src/github.com-1ecc6299db9ec823/quote-1.0.15/src/spanned.rs:39:21: 39:45]" = type {}
%"core::option::Option<proc_macro::TokenStream>::Some" = type { %"proc_macro::TokenStream" }
%"core::ops::control_flow::ControlFlow<core::ops::control_flow::ControlFlow<proc_macro2::Span, core::convert::Infallible>>" = type { i32, [1 x i32] }
%"core::ops::control_flow::ControlFlow<core::ops::control_flow::ControlFlow<proc_macro2::Span, core::convert::Infallible>>::Break" = type { [1 x i32], %"core::ops::control_flow::ControlFlow<proc_macro2::Span, core::convert::Infallible>::Break" }
%"core::option::Option<proc_macro2::imp::TokenStream>::Some" = type { %"proc_macro2::imp::TokenStream" }
%"core::result::Result<proc_macro2::TokenStream, proc_macro2::LexError>::Ok" = type { [1 x i64], %"proc_macro2::TokenStream" }
%"core::result::Result<proc_macro2::TokenStream, proc_macro2::LexError>::Err" = type { [1 x i8], i8 }
%"proc_macro::Group" = type { %"proc_macro::bridge::client::Group" }
%"proc_macro::bridge::client::Group" = type { i32 }
%"proc_macro::Ident" = type { %"proc_macro::bridge::client::Ident" }
%"proc_macro::bridge::client::Ident" = type { i32 }
%"proc_macro2::Group" = type { %"proc_macro2::imp::Group" }
%"proc_macro2::imp::Group" = type { i32, [9 x i32] }
%"proc_macro2::Ident" = type { %"core::marker::PhantomData<proc_macro2::marker::ProcMacroAutoTraits>", %"proc_macro2::imp::Ident" }
%"proc_macro2::imp::Ident" = type { i32, [9 x i32] }
%"proc_macro2::Punct" = type { i32, %"proc_macro2::Span", i8, [3 x i8] }
%"proc_macro::Literal" = type { %"proc_macro::bridge::client::Literal" }
%"proc_macro::bridge::client::Literal" = type { i32 }
%"proc_macro2::Literal" = type { %"core::marker::PhantomData<proc_macro2::marker::ProcMacroAutoTraits>", %"proc_macro2::imp::Literal" }
%"proc_macro2::imp::Literal" = type { i32, [7 x i32] }
%"core::result::Result<(), alloc::collections::TryReserveError>" = type { i64, [2 x i64] }
%"core::result::Result<(), alloc::collections::TryReserveErrorKind>" = type { i64, [2 x i64] }
%"core::result::Result<(), alloc::collections::TryReserveErrorKind>::Err" = type { [1 x i64], { i64, i64 } }
%"core::option::Option<(core::ptr::non_null::NonNull<u8>, core::alloc::layout::Layout)>" = type { {}*, [2 x i64] }
%"core::result::Result<core::ptr::non_null::NonNull<[u8]>, alloc::collections::TryReserveError>" = type { i64, [2 x i64] }
%"core::ops::control_flow::ControlFlow<core::result::Result<core::convert::Infallible, alloc::collections::TryReserveError>, core::ptr::non_null::NonNull<[u8]>>" = type { i64, [2 x i64] }
%"core::result::Result<usize, alloc::collections::TryReserveErrorKind>" = type { i64, [2 x i64] }
%"core::ops::control_flow::ControlFlow<core::result::Result<core::convert::Infallible, alloc::collections::TryReserveErrorKind>, usize>" = type { i64, [2 x i64] }
%"core::ops::control_flow::ControlFlow<core::result::Result<core::convert::Infallible, alloc::collections::TryReserveErrorKind>, usize>::Continue" = type { [1 x i64], i64 }
%"core::ops::control_flow::ControlFlow<core::result::Result<core::convert::Infallible, alloc::collections::TryReserveErrorKind>, usize>::Break" = type { [1 x i64], { i64, i64 } }
%"core::ops::control_flow::ControlFlow<core::result::Result<core::convert::Infallible, alloc::collections::TryReserveError>, core::ptr::non_null::NonNull<[u8]>>::Continue" = type { [1 x i64], { i8*, i64 } }
%"core::ops::control_flow::ControlFlow<core::result::Result<core::convert::Infallible, alloc::collections::TryReserveError>, core::ptr::non_null::NonNull<[u8]>>::Break" = type { [1 x i64], { i64, i64 } }
%"core::result::Result<(), alloc::collections::TryReserveError>::Err" = type { [1 x i64], { i64, i64 } }
%"proc_macro2::TokenTree::Group" = type { [1 x i64], %"proc_macro2::Group" }
%"proc_macro2::TokenTree::Ident" = type { [1 x i64], %"proc_macro2::Ident" }
%"proc_macro2::TokenTree::Punct" = type { [1 x i32], %"proc_macro2::Punct" }
%"proc_macro2::TokenTree::Literal" = type { [1 x i64], %"proc_macro2::Literal" }
%"proc_macro2::fallback::Group" = type { %"proc_macro2::fallback::Span", %"proc_macro2::fallback::TokenStream", i8, [7 x i8] }
%"proc_macro2::fallback::Span" = type {}
%"proc_macro2::imp::Group::Compiler" = type { [1 x i32], %"proc_macro::Group" }
%"proc_macro2::imp::Group::Fallback" = type { [1 x i64], %"proc_macro2::fallback::Group" }
%"proc_macro2::fallback::Ident" = type { %"proc_macro2::fallback::Span", %"alloc::string::String", i8, [7 x i8] }
%"proc_macro2::imp::Ident::Compiler" = type { [1 x i32], %"proc_macro::Ident" }
%"proc_macro2::imp::Ident::Fallback" = type { [1 x i64], %"proc_macro2::fallback::Ident" }
%"proc_macro2::fallback::Literal" = type { %"proc_macro2::fallback::Span", %"alloc::string::String" }
%"proc_macro2::imp::Literal::Compiler" = type { [1 x i32], %"proc_macro::Literal" }
%"proc_macro2::imp::Literal::Fallback" = type { [1 x i64], %"proc_macro2::fallback::Literal" }
%"core::ops::control_flow::ControlFlow<proc_macro2::Span>::Continue" = type { [4 x i8], {} }
%"core::ops::control_flow::ControlFlow<core::ops::control_flow::ControlFlow<proc_macro2::Span, core::convert::Infallible>>::Continue" = type { [4 x i8], {} }
%"unwind::libunwind::_Unwind_Exception" = type { i64, void (i32, %"unwind::libunwind::_Unwind_Exception"*)*, [6 x i64] }
%"unwind::libunwind::_Unwind_Context" = type { [0 x i8] }

@alloc277 = private unnamed_addr constant <{ [12 x i8] }> <{ [12 x i8] c"invalid args" }>, align 1
@alloc278 = private unnamed_addr constant <{ [75 x i8] }> <{ [75 x i8] c"/rustc/34926f0a1681458588a2d4240c0715ef9eff7d35/library/core/src/fmt/mod.rs" }>, align 1
@alloc279 = private unnamed_addr constant <{ i8*, [16 x i8] }> <{ i8* getelementptr inbounds (<{ [75 x i8] }>, <{ [75 x i8] }>* @alloc278, i32 0, i32 0, i32 0), [16 x i8] c"K\00\00\00\00\00\00\00k\01\00\00\0D\00\00\00" }>, align 8
@alloc280 = private unnamed_addr constant <{ [75 x i8] }> <{ [75 x i8] c"/rustc/34926f0a1681458588a2d4240c0715ef9eff7d35/library/core/src/ptr/mod.rs" }>, align 1
@alloc281 = private unnamed_addr constant <{ i8*, [16 x i8] }> <{ i8* getelementptr inbounds (<{ [75 x i8] }>, <{ [75 x i8] }>* @alloc280, i32 0, i32 0, i32 0), [16 x i8] c"K\00\00\00\00\00\00\00\BE\02\00\00\0D\00\00\00" }>, align 8
@0 = private unnamed_addr constant <{ [8 x i8] }> zeroinitializer, align 4
@alloc282 = private unnamed_addr constant <{ [77 x i8] }> <{ [77 x i8] c"/rustc/34926f0a1681458588a2d4240c0715ef9eff7d35/library/core/src/slice/mod.rs" }>, align 1
@alloc283 = private unnamed_addr constant <{ i8*, [16 x i8] }> <{ i8* getelementptr inbounds (<{ [77 x i8] }>, <{ [77 x i8] }>* @alloc282, i32 0, i32 0, i32 0), [16 x i8] c"M\00\00\00\00\00\00\00~\08\00\00\1E\00\00\00" }>, align 8
@vtable.0 = private unnamed_addr constant <{ i8*, [16 x i8], i8*, [0 x i8] }> <{ i8* bitcast (void (i8*)* @"_ZN4core3ptr42drop_in_place$LT$proc_macro2..LexError$GT$17h992dd40d1144962dE" to i8*), [16 x i8] c"\01\00\00\00\00\00\00\00\01\00\00\00\00\00\00\00", i8* bitcast (i1 (i8*, %"core::fmt::Formatter"*)* @"_ZN58_$LT$proc_macro2..LexError$u20$as$u20$core..fmt..Debug$GT$3fmt17h1d1d486abc338469E" to i8*), [0 x i8] zeroinitializer }>, align 8
@alloc289 = private unnamed_addr constant <{ [76 x i8] }> <{ [76 x i8] c"/rustc/34926f0a1681458588a2d4240c0715ef9eff7d35/library/alloc/src/raw_vec.rs" }>, align 1
@alloc288 = private unnamed_addr constant <{ i8*, [16 x i8] }> <{ i8* getelementptr inbounds (<{ [76 x i8] }>, <{ [76 x i8] }>* @alloc289, i32 0, i32 0, i32 0), [16 x i8] c"L\00\00\00\00\00\00\00\87\01\00\00\1C\00\00\00" }>, align 8
@alloc290 = private unnamed_addr constant <{ i8*, [16 x i8] }> <{ i8* getelementptr inbounds (<{ [76 x i8] }>, <{ [76 x i8] }>* @alloc289, i32 0, i32 0, i32 0), [16 x i8] c"L\00\00\00\00\00\00\00\91\01\00\00\13\00\00\00" }>, align 8
@alloc311 = private unnamed_addr constant <{ [2 x i8] }> <{ [2 x i8] c"r#" }>, align 1
@alloc294 = private unnamed_addr constant <{ [91 x i8] }> <{ [91 x i8] c"/home/cj/.cargo/registry/src/github.com-1ecc6299db9ec823/quote-1.0.15/src/ident_fragment.rs" }>, align 1
@alloc293 = private unnamed_addr constant <{ i8*, [16 x i8] }> <{ i8* getelementptr inbounds (<{ [91 x i8] }>, <{ [91 x i8] }>* @alloc294, i32 0, i32 0, i32 0), [16 x i8] c"[\00\00\00\00\00\00\003\00\00\00 \00\00\00" }>, align 8
@alloc295 = private unnamed_addr constant <{ i8*, [16 x i8] }> <{ i8* getelementptr inbounds (<{ [91 x i8] }>, <{ [91 x i8] }>* @alloc294, i32 0, i32 0, i32 0), [16 x i8] c"[\00\00\00\00\00\00\005\00\00\00 \00\00\00" }>, align 8
@alloc296 = private unnamed_addr constant <{ [4 x i8] }> <{ [4 x i8] c"true" }>, align 1
@alloc297 = private unnamed_addr constant <{ [5 x i8] }> <{ [5 x i8] c"false" }>, align 1
@alloc301 = private unnamed_addr constant <{ [20 x i8] }> <{ [20 x i8] c"invalid token stream" }>, align 1
@alloc314 = private unnamed_addr constant <{ [84 x i8] }> <{ [84 x i8] c"/home/cj/.cargo/registry/src/github.com-1ecc6299db9ec823/quote-1.0.15/src/runtime.rs" }>, align 1
@alloc300 = private unnamed_addr constant <{ i8*, [16 x i8] }> <{ i8* getelementptr inbounds (<{ [84 x i8] }>, <{ [84 x i8] }>* @alloc314, i32 0, i32 0, i32 0), [16 x i8] c"T\00\00\00\00\00\00\00\B5\00\00\00$\00\00\00" }>, align 8
@alloc303 = private unnamed_addr constant <{ i8*, [16 x i8] }> <{ i8* getelementptr inbounds (<{ [84 x i8] }>, <{ [84 x i8] }>* @alloc314, i32 0, i32 0, i32 0), [16 x i8] c"T\00\00\00\00\00\00\00\BA\00\00\00$\00\00\00" }>, align 8
@alloc307 = private unnamed_addr constant <{ i8*, [16 x i8] }> <{ i8* getelementptr inbounds (<{ [84 x i8] }>, <{ [84 x i8] }>* @alloc314, i32 0, i32 0, i32 0), [16 x i8] c"T\00\00\00\00\00\00\00\00\01\00\00\10\00\00\00" }>, align 8
@alloc309 = private unnamed_addr constant <{ i8*, [16 x i8] }> <{ i8* getelementptr inbounds (<{ [84 x i8] }>, <{ [84 x i8] }>* @alloc314, i32 0, i32 0, i32 0), [16 x i8] c"T\00\00\00\00\00\00\00!\01\00\00\10\00\00\00" }>, align 8
@alloc310 = private unnamed_addr constant <{ [1 x i8] }> <{ [1 x i8] c"_" }>, align 1
@alloc313 = private unnamed_addr constant <{ i8*, [16 x i8] }> <{ i8* getelementptr inbounds (<{ [84 x i8] }>, <{ [84 x i8] }>* @alloc314, i32 0, i32 0, i32 0), [16 x i8] c"T\00\00\00\00\00\00\00\94\01\00\00)\00\00\00" }>, align 8
@alloc90 = private unnamed_addr constant <{ [34 x i8] }> <{ [34 x i8] c"not allowed as a raw identifier: `" }>, align 1
@alloc92 = private unnamed_addr constant <{ [1 x i8] }> <{ [1 x i8] c"`" }>, align 1
@alloc91 = private unnamed_addr constant <{ i8*, [8 x i8], i8*, [8 x i8] }> <{ i8* getelementptr inbounds (<{ [34 x i8] }>, <{ [34 x i8] }>* @alloc90, i32 0, i32 0, i32 0), [8 x i8] c"\22\00\00\00\00\00\00\00", i8* getelementptr inbounds (<{ [1 x i8] }>, <{ [1 x i8] }>* @alloc92, i32 0, i32 0, i32 0), [8 x i8] c"\01\00\00\00\00\00\00\00" }>, align 8
@alloc315 = private unnamed_addr constant <{ i8*, [16 x i8] }> <{ i8* getelementptr inbounds (<{ [84 x i8] }>, <{ [84 x i8] }>* @alloc314, i32 0, i32 0, i32 0), [16 x i8] c"T\00\00\00\00\00\00\00\A8\01\00\00\05\00\00\00" }>, align 8
@alloc102 = private unnamed_addr constant <{ [0 x i8] }> zeroinitializer, align 1
@alloc103 = private unnamed_addr constant <{ i8*, [8 x i8] }> <{ i8* getelementptr inbounds (<{ [0 x i8] }>, <{ [0 x i8] }>* @alloc102, i32 0, i32 0, i32 0), [8 x i8] zeroinitializer }>, align 8
@alloc316 = private unnamed_addr constant <{ [11 x i8] }> <{ [11 x i8] c"bytes(0..0)" }>, align 1

; <alloc::string::String as core::ops::index::Index<core::ops::range::RangeFull>>::index
; Function Attrs: inlinehint nonlazybind uwtable
define internal { [0 x i8]*, i64 } @"_ZN100_$LT$alloc..string..String$u20$as$u20$core..ops..index..Index$LT$core..ops..range..RangeFull$GT$$GT$5index17ha9890531b1063fd1E"(%"alloc::string::String"* align 8 dereferenceable(24) %self, %"core::panic::location::Location"* align 8 dereferenceable(24) %0) unnamed_addr #0 {
start:
  %_6 = bitcast %"alloc::string::String"* %self to %"alloc::vec::Vec<u8>"*
; call <alloc::vec::Vec<T,A> as core::ops::deref::Deref>::deref
  %1 = call { [0 x i8]*, i64 } @"_ZN72_$LT$alloc..vec..Vec$LT$T$C$A$GT$$u20$as$u20$core..ops..deref..Deref$GT$5deref17hadec8598de4b5ca6E"(%"alloc::vec::Vec<u8>"* align 8 dereferenceable(24) %_6)
  %_4.0 = extractvalue { [0 x i8]*, i64 } %1, 0
  %_4.1 = extractvalue { [0 x i8]*, i64 } %1, 1
  br label %bb1

bb1:                                              ; preds = %start
; call core::str::converts::from_utf8_unchecked
  %2 = call { [0 x i8]*, i64 } @_ZN4core3str8converts19from_utf8_unchecked17h479f725db9ccb5f5E([0 x i8]* nonnull align 1 %_4.0, i64 %_4.1)
  %3 = extractvalue { [0 x i8]*, i64 } %2, 0
  %4 = extractvalue { [0 x i8]*, i64 } %2, 1
  br label %bb2

bb2:                                              ; preds = %bb1
  %5 = insertvalue { [0 x i8]*, i64 } undef, [0 x i8]* %3, 0
  %6 = insertvalue { [0 x i8]*, i64 } %5, i64 %4, 1
  ret { [0 x i8]*, i64 } %6
}

; <core::iter::adapters::fuse::Fuse<I> as core::iter::traits::iterator::Iterator>::next
; Function Attrs: inlinehint nonlazybind uwtable
define void @"_ZN100_$LT$core..iter..adapters..fuse..Fuse$LT$I$GT$$u20$as$u20$core..iter..traits..iterator..Iterator$GT$4next17hce9180c678db89ddE"(%"core::option::Option<proc_macro2::fallback::TokenStream>"* noalias nocapture sret(%"core::option::Option<proc_macro2::fallback::TokenStream>") dereferenceable(24) %0, %"core::iter::adapters::fuse::Fuse<core::iter::adapters::map::Map<core::iter::adapters::map::Map<core::iter::sources::once::Once<proc_macro2::TokenStream>, [closure@<proc_macro2::TokenStream as core::iter::traits::collect::Extend<proc_macro2::TokenStream>>::extend<core::iter::sources::once::Once<proc_macro2::TokenStream>>::{closure#0}]>, fn(proc_macro2::imp::TokenStream) -> proc_macro2::fallback::TokenStream {proc_macro2::imp::TokenStream::unwrap_stable}>>"* align 8 dereferenceable(40) %self) unnamed_addr #0 {
start:
; call <core::iter::adapters::fuse::Fuse<I> as core::iter::adapters::fuse::FuseImpl<I>>::next
  call void @"_ZN107_$LT$core..iter..adapters..fuse..Fuse$LT$I$GT$$u20$as$u20$core..iter..adapters..fuse..FuseImpl$LT$I$GT$$GT$4next17ha98139a938bc4730E"(%"core::option::Option<proc_macro2::fallback::TokenStream>"* noalias nocapture sret(%"core::option::Option<proc_macro2::fallback::TokenStream>") dereferenceable(24) %0, %"core::iter::adapters::fuse::Fuse<core::iter::adapters::map::Map<core::iter::adapters::map::Map<core::iter::sources::once::Once<proc_macro2::TokenStream>, [closure@<proc_macro2::TokenStream as core::iter::traits::collect::Extend<proc_macro2::TokenStream>>::extend<core::iter::sources::once::Once<proc_macro2::TokenStream>>::{closure#0}]>, fn(proc_macro2::imp::TokenStream) -> proc_macro2::fallback::TokenStream {proc_macro2::imp::TokenStream::unwrap_stable}>>"* align 8 dereferenceable(40) %self)
  br label %bb1

bb1:                                              ; preds = %start
  ret void
}

; <core::iter::adapters::fuse::Fuse<I> as core::iter::traits::iterator::Iterator>::size_hint
; Function Attrs: inlinehint nonlazybind uwtable
define void @"_ZN100_$LT$core..iter..adapters..fuse..Fuse$LT$I$GT$$u20$as$u20$core..iter..traits..iterator..Iterator$GT$9size_hint17hdc9bbe165028921dE"({ i64, { i64, i64 } }* noalias nocapture sret({ i64, { i64, i64 } }) dereferenceable(24) %0, %"core::iter::adapters::fuse::Fuse<core::iter::adapters::map::Map<core::iter::adapters::map::Map<core::iter::sources::once::Once<proc_macro2::TokenStream>, [closure@<proc_macro2::TokenStream as core::iter::traits::collect::Extend<proc_macro2::TokenStream>>::extend<core::iter::sources::once::Once<proc_macro2::TokenStream>>::{closure#0}]>, fn(proc_macro2::imp::TokenStream) -> proc_macro2::fallback::TokenStream {proc_macro2::imp::TokenStream::unwrap_stable}>>"* align 8 dereferenceable(40) %self) unnamed_addr #0 {
start:
  %_5 = alloca { i64, i64 }, align 8
  %1 = bitcast %"core::iter::adapters::fuse::Fuse<core::iter::adapters::map::Map<core::iter::adapters::map::Map<core::iter::sources::once::Once<proc_macro2::TokenStream>, [closure@<proc_macro2::TokenStream as core::iter::traits::collect::Extend<proc_macro2::TokenStream>>::extend<core::iter::sources::once::Once<proc_macro2::TokenStream>>::{closure#0}]>, fn(proc_macro2::imp::TokenStream) -> proc_macro2::fallback::TokenStream {proc_macro2::imp::TokenStream::unwrap_stable}>>"* %self to %"core::option::Option<core::iter::adapters::map::Map<core::iter::adapters::map::Map<core::iter::sources::once::Once<proc_macro2::TokenStream>, [closure@<proc_macro2::TokenStream as core::iter::traits::collect::Extend<proc_macro2::TokenStream>>::extend<core::iter::sources::once::Once<proc_macro2::TokenStream>>::{closure#0}]>, fn(proc_macro2::imp::TokenStream) -> proc_macro2::fallback::TokenStream {proc_macro2::imp::TokenStream::unwrap_stable}>>"*
  %2 = bitcast %"core::option::Option<core::iter::adapters::map::Map<core::iter::adapters::map::Map<core::iter::sources::once::Once<proc_macro2::TokenStream>, [closure@<proc_macro2::TokenStream as core::iter::traits::collect::Extend<proc_macro2::TokenStream>>::extend<core::iter::sources::once::Once<proc_macro2::TokenStream>>::{closure#0}]>, fn(proc_macro2::imp::TokenStream) -> proc_macro2::fallback::TokenStream {proc_macro2::imp::TokenStream::unwrap_stable}>>"* %1 to i64*
  %3 = load i64, i64* %2, align 8, !range !2
  %4 = sub i64 %3, 3
  %5 = icmp eq i64 %4, 0
  %_2 = select i1 %5, i64 0, i64 1
  switch i64 %_2, label %bb2 [
    i64 0, label %bb1
    i64 1, label %bb3
  ]

bb2:                                              ; preds = %start
  unreachable

bb1:                                              ; preds = %start
  %6 = bitcast { i64, i64 }* %_5 to %"core::option::Option<usize>::Some"*
  %7 = getelementptr inbounds %"core::option::Option<usize>::Some", %"core::option::Option<usize>::Some"* %6, i32 0, i32 1
  store i64 0, i64* %7, align 8
  %8 = bitcast { i64, i64 }* %_5 to i64*
  store i64 1, i64* %8, align 8
  %9 = bitcast { i64, { i64, i64 } }* %0 to i64*
  store i64 0, i64* %9, align 8
  %10 = getelementptr inbounds { i64, { i64, i64 } }, { i64, { i64, i64 } }* %0, i32 0, i32 1
  %11 = getelementptr inbounds { i64, i64 }, { i64, i64 }* %_5, i32 0, i32 0
  %12 = load i64, i64* %11, align 8, !range !3
  %13 = getelementptr inbounds { i64, i64 }, { i64, i64 }* %_5, i32 0, i32 1
  %14 = load i64, i64* %13, align 8
  %15 = getelementptr inbounds { i64, i64 }, { i64, i64 }* %10, i32 0, i32 0
  store i64 %12, i64* %15, align 8
  %16 = getelementptr inbounds { i64, i64 }, { i64, i64 }* %10, i32 0, i32 1
  store i64 %14, i64* %16, align 8
  br label %bb5

bb3:                                              ; preds = %start
  %17 = bitcast %"core::iter::adapters::fuse::Fuse<core::iter::adapters::map::Map<core::iter::adapters::map::Map<core::iter::sources::once::Once<proc_macro2::TokenStream>, [closure@<proc_macro2::TokenStream as core::iter::traits::collect::Extend<proc_macro2::TokenStream>>::extend<core::iter::sources::once::Once<proc_macro2::TokenStream>>::{closure#0}]>, fn(proc_macro2::imp::TokenStream) -> proc_macro2::fallback::TokenStream {proc_macro2::imp::TokenStream::unwrap_stable}>>"* %self to %"core::option::Option<core::iter::adapters::map::Map<core::iter::adapters::map::Map<core::iter::sources::once::Once<proc_macro2::TokenStream>, [closure@<proc_macro2::TokenStream as core::iter::traits::collect::Extend<proc_macro2::TokenStream>>::extend<core::iter::sources::once::Once<proc_macro2::TokenStream>>::{closure#0}]>, fn(proc_macro2::imp::TokenStream) -> proc_macro2::fallback::TokenStream {proc_macro2::imp::TokenStream::unwrap_stable}>>"*
  %18 = bitcast %"core::option::Option<core::iter::adapters::map::Map<core::iter::adapters::map::Map<core::iter::sources::once::Once<proc_macro2::TokenStream>, [closure@<proc_macro2::TokenStream as core::iter::traits::collect::Extend<proc_macro2::TokenStream>>::extend<core::iter::sources::once::Once<proc_macro2::TokenStream>>::{closure#0}]>, fn(proc_macro2::imp::TokenStream) -> proc_macro2::fallback::TokenStream {proc_macro2::imp::TokenStream::unwrap_stable}>>"* %17 to %"core::option::Option<core::iter::adapters::map::Map<core::iter::adapters::map::Map<core::iter::sources::once::Once<proc_macro2::TokenStream>, [closure@<proc_macro2::TokenStream as core::iter::traits::collect::Extend<proc_macro2::TokenStream>>::extend<core::iter::sources::once::Once<proc_macro2::TokenStream>>::{closure#0}]>, fn(proc_macro2::imp::TokenStream) -> proc_macro2::fallback::TokenStream {proc_macro2::imp::TokenStream::unwrap_stable}>>::Some"*
  %iter = bitcast %"core::option::Option<core::iter::adapters::map::Map<core::iter::adapters::map::Map<core::iter::sources::once::Once<proc_macro2::TokenStream>, [closure@<proc_macro2::TokenStream as core::iter::traits::collect::Extend<proc_macro2::TokenStream>>::extend<core::iter::sources::once::Once<proc_macro2::TokenStream>>::{closure#0}]>, fn(proc_macro2::imp::TokenStream) -> proc_macro2::fallback::TokenStream {proc_macro2::imp::TokenStream::unwrap_stable}>>::Some"* %18 to %"core::iter::adapters::map::Map<core::iter::adapters::map::Map<core::iter::sources::once::Once<proc_macro2::TokenStream>, [closure@<proc_macro2::TokenStream as core::iter::traits::collect::Extend<proc_macro2::TokenStream>>::extend<core::iter::sources::once::Once<proc_macro2::TokenStream>>::{closure#0}]>, fn(proc_macro2::imp::TokenStream) -> proc_macro2::fallback::TokenStream {proc_macro2::imp::TokenStream::unwrap_stable}>"*
; call <core::iter::adapters::map::Map<I,F> as core::iter::traits::iterator::Iterator>::size_hint
  call void @"_ZN102_$LT$core..iter..adapters..map..Map$LT$I$C$F$GT$$u20$as$u20$core..iter..traits..iterator..Iterator$GT$9size_hint17h1c6947859caa891fE"({ i64, { i64, i64 } }* noalias nocapture sret({ i64, { i64, i64 } }) dereferenceable(24) %0, %"core::iter::adapters::map::Map<core::iter::adapters::map::Map<core::iter::sources::once::Once<proc_macro2::TokenStream>, [closure@<proc_macro2::TokenStream as core::iter::traits::collect::Extend<proc_macro2::TokenStream>>::extend<core::iter::sources::once::Once<proc_macro2::TokenStream>>::{closure#0}]>, fn(proc_macro2::imp::TokenStream) -> proc_macro2::fallback::TokenStream {proc_macro2::imp::TokenStream::unwrap_stable}>"* align 8 dereferenceable(40) %iter)
  br label %bb4

bb4:                                              ; preds = %bb3
  br label %bb5

bb5:                                              ; preds = %bb1, %bb4
  ret void
}

; <core::iter::adapters::map::Map<I,F> as core::iter::traits::iterator::Iterator>::fold
; Function Attrs: nonlazybind uwtable
define void @"_ZN102_$LT$core..iter..adapters..map..Map$LT$I$C$F$GT$$u20$as$u20$core..iter..traits..iterator..Iterator$GT$4fold17h0d16a728b8950f89E"(%"core::iter::adapters::map::Map<core::iter::adapters::map::Map<proc_macro2::token_stream::IntoIter, [closure@/home/cj/.cargo/registry/src/github.com-1ecc6299db9ec823/quote-1.0.15/src/runtime.rs:197:22: 197:60]>, fn(proc_macro2::TokenTree) -> proc_macro::TokenTree {proc_macro2::imp::into_compiler_token}>"* noalias nocapture dereferenceable(48) %self, i32* align 4 dereferenceable(4) %g) unnamed_addr #1 personality i32 (i32, i32, i64, %"unwind::libunwind::_Unwind_Exception"*, %"unwind::libunwind::_Unwind_Context"*)* @rust_eh_personality {
start:
  %0 = alloca { i8*, i32 }, align 8
  %_10 = alloca i8, align 1
  %_9 = alloca i8, align 1
  %_4 = alloca %"core::iter::adapters::map::Map<proc_macro2::token_stream::IntoIter, [closure@/home/cj/.cargo/registry/src/github.com-1ecc6299db9ec823/quote-1.0.15/src/runtime.rs:197:22: 197:60]>", align 8
  store i8 0, i8* %_10, align 1
  store i8 0, i8* %_9, align 1
  store i8 1, i8* %_10, align 1
  %1 = bitcast %"core::iter::adapters::map::Map<core::iter::adapters::map::Map<proc_macro2::token_stream::IntoIter, [closure@/home/cj/.cargo/registry/src/github.com-1ecc6299db9ec823/quote-1.0.15/src/runtime.rs:197:22: 197:60]>, fn(proc_macro2::TokenTree) -> proc_macro::TokenTree {proc_macro2::imp::into_compiler_token}>"* %self to %"core::iter::adapters::map::Map<proc_macro2::token_stream::IntoIter, [closure@/home/cj/.cargo/registry/src/github.com-1ecc6299db9ec823/quote-1.0.15/src/runtime.rs:197:22: 197:60]>"*
  %2 = bitcast %"core::iter::adapters::map::Map<proc_macro2::token_stream::IntoIter, [closure@/home/cj/.cargo/registry/src/github.com-1ecc6299db9ec823/quote-1.0.15/src/runtime.rs:197:22: 197:60]>"* %_4 to i8*
  %3 = bitcast %"core::iter::adapters::map::Map<proc_macro2::token_stream::IntoIter, [closure@/home/cj/.cargo/registry/src/github.com-1ecc6299db9ec823/quote-1.0.15/src/runtime.rs:197:22: 197:60]>"* %1 to i8*
  call void @llvm.memcpy.p0i8.p0i8.i64(i8* align 8 %2, i8* align 8 %3, i64 48, i1 false)
  store i8 1, i8* %_9, align 1
; invoke core::iter::adapters::map::map_fold
  %_6 = invoke align 4 dereferenceable(4) i32* @_ZN4core4iter8adapters3map8map_fold17hf7b9dae6c6670726E(i32* align 4 dereferenceable(4) %g)
          to label %bb1 unwind label %cleanup

bb1:                                              ; preds = %start
  store i8 0, i8* %_10, align 1
  store i8 0, i8* %_9, align 1
; invoke <core::iter::adapters::map::Map<I,F> as core::iter::traits::iterator::Iterator>::fold
  invoke void @"_ZN102_$LT$core..iter..adapters..map..Map$LT$I$C$F$GT$$u20$as$u20$core..iter..traits..iterator..Iterator$GT$4fold17h1cc9c3d293bdf538E"(%"core::iter::adapters::map::Map<proc_macro2::token_stream::IntoIter, [closure@/home/cj/.cargo/registry/src/github.com-1ecc6299db9ec823/quote-1.0.15/src/runtime.rs:197:22: 197:60]>"* noalias nocapture dereferenceable(48) %_4, i32* align 4 dereferenceable(4) %_6)
          to label %bb2 unwind label %cleanup

bb6:                                              ; preds = %cleanup
  %4 = load i8, i8* %_9, align 1, !range !4
  %5 = trunc i8 %4 to i1
  br i1 %5, label %bb5, label %bb3

cleanup:                                          ; preds = %bb1, %start
  %6 = landingpad { i8*, i32 }
          cleanup
  %7 = extractvalue { i8*, i32 } %6, 0
  %8 = extractvalue { i8*, i32 } %6, 1
  %9 = getelementptr inbounds { i8*, i32 }, { i8*, i32 }* %0, i32 0, i32 0
  store i8* %7, i8** %9, align 8
  %10 = getelementptr inbounds { i8*, i32 }, { i8*, i32 }* %0, i32 0, i32 1
  store i32 %8, i32* %10, align 8
  br label %bb6

bb2:                                              ; preds = %bb1
  store i8 0, i8* %_9, align 1
  store i8 0, i8* %_10, align 1
  ret void

bb3:                                              ; preds = %bb5, %bb6
  %11 = load i8, i8* %_10, align 1, !range !4
  %12 = trunc i8 %11 to i1
  br i1 %12, label %bb7, label %bb4

bb5:                                              ; preds = %bb6
  br label %bb3

bb4:                                              ; preds = %bb7, %bb3
  %13 = bitcast { i8*, i32 }* %0 to i8**
  %14 = load i8*, i8** %13, align 8
  %15 = getelementptr inbounds { i8*, i32 }, { i8*, i32 }* %0, i32 0, i32 1
  %16 = load i32, i32* %15, align 8
  %17 = insertvalue { i8*, i32 } undef, i8* %14, 0
  %18 = insertvalue { i8*, i32 } %17, i32 %16, 1
  resume { i8*, i32 } %18

bb7:                                              ; preds = %bb3
; call core::ptr::drop_in_place<core::iter::adapters::map::Map<proc_macro2::token_stream::IntoIter,quote::__private::respan_token_tree::{{closure}}>>
  call void @"_ZN4core3ptr161drop_in_place$LT$core..iter..adapters..map..Map$LT$proc_macro2..token_stream..IntoIter$C$quote..__private..respan_token_tree..$u7b$$u7b$closure$u7d$$u7d$$GT$$GT$17hf708de6b414c9d2cE"(%"core::iter::adapters::map::Map<proc_macro2::token_stream::IntoIter, [closure@/home/cj/.cargo/registry/src/github.com-1ecc6299db9ec823/quote-1.0.15/src/runtime.rs:197:22: 197:60]>"* %_4) #10
  br label %bb4
}

; <core::iter::adapters::map::Map<I,F> as core::iter::traits::iterator::Iterator>::fold
; Function Attrs: nonlazybind uwtable
define void @"_ZN102_$LT$core..iter..adapters..map..Map$LT$I$C$F$GT$$u20$as$u20$core..iter..traits..iterator..Iterator$GT$4fold17h16e2a1a9001d755eE"(%"core::iter::adapters::map::Map<core::iter::sources::once::Once<proc_macro2::TokenStream>, [closure@<proc_macro2::TokenStream as core::iter::traits::collect::Extend<proc_macro2::TokenStream>>::extend<core::iter::sources::once::Once<proc_macro2::TokenStream>>::{closure#0}]>"* noalias nocapture dereferenceable(40) %self, i32* align 4 dereferenceable(4) %g) unnamed_addr #1 personality i32 (i32, i32, i64, %"unwind::libunwind::_Unwind_Exception"*, %"unwind::libunwind::_Unwind_Context"*)* @rust_eh_personality {
start:
  %0 = alloca { i8*, i32 }, align 8
  %_10 = alloca i8, align 1
  %_9 = alloca i8, align 1
  %_4 = alloca %"core::iter::sources::once::Once<proc_macro2::TokenStream>", align 8
  store i8 0, i8* %_10, align 1
  store i8 0, i8* %_9, align 1
  store i8 1, i8* %_10, align 1
  %1 = bitcast %"core::iter::adapters::map::Map<core::iter::sources::once::Once<proc_macro2::TokenStream>, [closure@<proc_macro2::TokenStream as core::iter::traits::collect::Extend<proc_macro2::TokenStream>>::extend<core::iter::sources::once::Once<proc_macro2::TokenStream>>::{closure#0}]>"* %self to %"core::iter::sources::once::Once<proc_macro2::TokenStream>"*
  %2 = bitcast %"core::iter::sources::once::Once<proc_macro2::TokenStream>"* %_4 to i8*
  %3 = bitcast %"core::iter::sources::once::Once<proc_macro2::TokenStream>"* %1 to i8*
  call void @llvm.memcpy.p0i8.p0i8.i64(i8* align 8 %2, i8* align 8 %3, i64 40, i1 false)
  store i8 1, i8* %_9, align 1
; invoke core::iter::adapters::map::map_fold
  %_6 = invoke align 4 dereferenceable(4) i32* @_ZN4core4iter8adapters3map8map_fold17hb94c68c74696b355E(i32* align 4 dereferenceable(4) %g)
          to label %bb1 unwind label %cleanup

bb1:                                              ; preds = %start
  store i8 0, i8* %_10, align 1
  store i8 0, i8* %_9, align 1
; invoke core::iter::traits::iterator::Iterator::fold
  invoke void @_ZN4core4iter6traits8iterator8Iterator4fold17hb9ddf4e91a3ab043E(%"core::iter::sources::once::Once<proc_macro2::TokenStream>"* noalias nocapture dereferenceable(40) %_4, i32* align 4 dereferenceable(4) %_6)
          to label %bb2 unwind label %cleanup

bb6:                                              ; preds = %cleanup
  %4 = load i8, i8* %_9, align 1, !range !4
  %5 = trunc i8 %4 to i1
  br i1 %5, label %bb5, label %bb3

cleanup:                                          ; preds = %bb1, %start
  %6 = landingpad { i8*, i32 }
          cleanup
  %7 = extractvalue { i8*, i32 } %6, 0
  %8 = extractvalue { i8*, i32 } %6, 1
  %9 = getelementptr inbounds { i8*, i32 }, { i8*, i32 }* %0, i32 0, i32 0
  store i8* %7, i8** %9, align 8
  %10 = getelementptr inbounds { i8*, i32 }, { i8*, i32 }* %0, i32 0, i32 1
  store i32 %8, i32* %10, align 8
  br label %bb6

bb2:                                              ; preds = %bb1
  store i8 0, i8* %_9, align 1
  store i8 0, i8* %_10, align 1
  ret void

bb3:                                              ; preds = %bb5, %bb6
  %11 = load i8, i8* %_10, align 1, !range !4
  %12 = trunc i8 %11 to i1
  br i1 %12, label %bb7, label %bb4

bb5:                                              ; preds = %bb6
  br label %bb3

bb4:                                              ; preds = %bb7, %bb3
  %13 = bitcast { i8*, i32 }* %0 to i8**
  %14 = load i8*, i8** %13, align 8
  %15 = getelementptr inbounds { i8*, i32 }, { i8*, i32 }* %0, i32 0, i32 1
  %16 = load i32, i32* %15, align 8
  %17 = insertvalue { i8*, i32 } undef, i8* %14, 0
  %18 = insertvalue { i8*, i32 } %17, i32 %16, 1
  resume { i8*, i32 } %18

bb7:                                              ; preds = %bb3
; call core::ptr::drop_in_place<core::iter::sources::once::Once<proc_macro2::TokenStream>>
  call void @"_ZN4core3ptr84drop_in_place$LT$core..iter..sources..once..Once$LT$proc_macro2..TokenStream$GT$$GT$17hce2be2a83c66e000E"(%"core::iter::sources::once::Once<proc_macro2::TokenStream>"* %_4) #10
  br label %bb4
}

; <core::iter::adapters::map::Map<I,F> as core::iter::traits::iterator::Iterator>::fold
; Function Attrs: nonlazybind uwtable
define void @"_ZN102_$LT$core..iter..adapters..map..Map$LT$I$C$F$GT$$u20$as$u20$core..iter..traits..iterator..Iterator$GT$4fold17h1cc9c3d293bdf538E"(%"core::iter::adapters::map::Map<proc_macro2::token_stream::IntoIter, [closure@/home/cj/.cargo/registry/src/github.com-1ecc6299db9ec823/quote-1.0.15/src/runtime.rs:197:22: 197:60]>"* noalias nocapture dereferenceable(48) %self, i32* align 4 dereferenceable(4) %g) unnamed_addr #1 personality i32 (i32, i32, i64, %"unwind::libunwind::_Unwind_Exception"*, %"unwind::libunwind::_Unwind_Context"*)* @rust_eh_personality {
start:
  %0 = alloca { i8*, i32 }, align 8
  %_10 = alloca i8, align 1
  %_9 = alloca i8, align 1
  %_4 = alloca %"proc_macro2::token_stream::IntoIter", align 8
  store i8 0, i8* %_10, align 1
  store i8 0, i8* %_9, align 1
  store i8 1, i8* %_10, align 1
  %1 = bitcast %"core::iter::adapters::map::Map<proc_macro2::token_stream::IntoIter, [closure@/home/cj/.cargo/registry/src/github.com-1ecc6299db9ec823/quote-1.0.15/src/runtime.rs:197:22: 197:60]>"* %self to %"proc_macro2::token_stream::IntoIter"*
  %2 = bitcast %"proc_macro2::token_stream::IntoIter"* %_4 to i8*
  %3 = bitcast %"proc_macro2::token_stream::IntoIter"* %1 to i8*
  call void @llvm.memcpy.p0i8.p0i8.i64(i8* align 8 %2, i8* align 8 %3, i64 40, i1 false)
  store i8 1, i8* %_9, align 1
  %4 = getelementptr inbounds %"core::iter::adapters::map::Map<proc_macro2::token_stream::IntoIter, [closure@/home/cj/.cargo/registry/src/github.com-1ecc6299db9ec823/quote-1.0.15/src/runtime.rs:197:22: 197:60]>", %"core::iter::adapters::map::Map<proc_macro2::token_stream::IntoIter, [closure@/home/cj/.cargo/registry/src/github.com-1ecc6299db9ec823/quote-1.0.15/src/runtime.rs:197:22: 197:60]>"* %self, i32 0, i32 1
  %_7 = load i32*, i32** %4, align 8, !nonnull !5
; invoke core::iter::adapters::map::map_fold
  %5 = invoke { i32*, i32* } @_ZN4core4iter8adapters3map8map_fold17hda8e8e5262de1fe2E(i32* align 4 dereferenceable(4) %_7, i32* align 4 dereferenceable(4) %g)
          to label %bb1 unwind label %cleanup

bb1:                                              ; preds = %start
  %_6.0 = extractvalue { i32*, i32* } %5, 0
  %_6.1 = extractvalue { i32*, i32* } %5, 1
  store i8 0, i8* %_10, align 1
  store i8 0, i8* %_9, align 1
; invoke core::iter::traits::iterator::Iterator::fold
  invoke void @_ZN4core4iter6traits8iterator8Iterator4fold17h585fb2d2eaea6e56E(%"proc_macro2::token_stream::IntoIter"* noalias nocapture dereferenceable(40) %_4, i32* align 4 dereferenceable(4) %_6.0, i32* align 4 dereferenceable(4) %_6.1)
          to label %bb2 unwind label %cleanup

bb6:                                              ; preds = %cleanup
  %6 = load i8, i8* %_9, align 1, !range !4
  %7 = trunc i8 %6 to i1
  br i1 %7, label %bb5, label %bb3

cleanup:                                          ; preds = %bb1, %start
  %8 = landingpad { i8*, i32 }
          cleanup
  %9 = extractvalue { i8*, i32 } %8, 0
  %10 = extractvalue { i8*, i32 } %8, 1
  %11 = getelementptr inbounds { i8*, i32 }, { i8*, i32 }* %0, i32 0, i32 0
  store i8* %9, i8** %11, align 8
  %12 = getelementptr inbounds { i8*, i32 }, { i8*, i32 }* %0, i32 0, i32 1
  store i32 %10, i32* %12, align 8
  br label %bb6

bb2:                                              ; preds = %bb1
  store i8 0, i8* %_9, align 1
  store i8 0, i8* %_10, align 1
  ret void

bb3:                                              ; preds = %bb5, %bb6
  %13 = load i8, i8* %_10, align 1, !range !4
  %14 = trunc i8 %13 to i1
  br i1 %14, label %bb7, label %bb4

bb5:                                              ; preds = %bb6
  br label %bb3

bb4:                                              ; preds = %bb7, %bb3
  %15 = bitcast { i8*, i32 }* %0 to i8**
  %16 = load i8*, i8** %15, align 8
  %17 = getelementptr inbounds { i8*, i32 }, { i8*, i32 }* %0, i32 0, i32 1
  %18 = load i32, i32* %17, align 8
  %19 = insertvalue { i8*, i32 } undef, i8* %16, 0
  %20 = insertvalue { i8*, i32 } %19, i32 %18, 1
  resume { i8*, i32 } %20

bb7:                                              ; preds = %bb3
; call core::ptr::drop_in_place<proc_macro2::token_stream::IntoIter>
  call void @"_ZN4core3ptr56drop_in_place$LT$proc_macro2..token_stream..IntoIter$GT$17hc7b945121286a1fbE"(%"proc_macro2::token_stream::IntoIter"* %_4) #10
  br label %bb4
}

; <core::iter::adapters::map::Map<I,F> as core::iter::traits::iterator::Iterator>::fold
; Function Attrs: nonlazybind uwtable
define void @"_ZN102_$LT$core..iter..adapters..map..Map$LT$I$C$F$GT$$u20$as$u20$core..iter..traits..iterator..Iterator$GT$4fold17h1fbfcf8c9f2fa7f6E"(%"core::iter::adapters::map::Map<proc_macro2::token_stream::IntoIter, [closure@/home/cj/.cargo/registry/src/github.com-1ecc6299db9ec823/quote-1.0.15/src/runtime.rs:197:22: 197:60]>"* noalias nocapture dereferenceable(48) %self, i64* align 8 dereferenceable(8) %g) unnamed_addr #1 personality i32 (i32, i32, i64, %"unwind::libunwind::_Unwind_Exception"*, %"unwind::libunwind::_Unwind_Context"*)* @rust_eh_personality {
start:
  %0 = alloca { i8*, i32 }, align 8
  %_10 = alloca i8, align 1
  %_9 = alloca i8, align 1
  %_4 = alloca %"proc_macro2::token_stream::IntoIter", align 8
  store i8 0, i8* %_10, align 1
  store i8 0, i8* %_9, align 1
  store i8 1, i8* %_10, align 1
  %1 = bitcast %"core::iter::adapters::map::Map<proc_macro2::token_stream::IntoIter, [closure@/home/cj/.cargo/registry/src/github.com-1ecc6299db9ec823/quote-1.0.15/src/runtime.rs:197:22: 197:60]>"* %self to %"proc_macro2::token_stream::IntoIter"*
  %2 = bitcast %"proc_macro2::token_stream::IntoIter"* %_4 to i8*
  %3 = bitcast %"proc_macro2::token_stream::IntoIter"* %1 to i8*
  call void @llvm.memcpy.p0i8.p0i8.i64(i8* align 8 %2, i8* align 8 %3, i64 40, i1 false)
  store i8 1, i8* %_9, align 1
  %4 = getelementptr inbounds %"core::iter::adapters::map::Map<proc_macro2::token_stream::IntoIter, [closure@/home/cj/.cargo/registry/src/github.com-1ecc6299db9ec823/quote-1.0.15/src/runtime.rs:197:22: 197:60]>", %"core::iter::adapters::map::Map<proc_macro2::token_stream::IntoIter, [closure@/home/cj/.cargo/registry/src/github.com-1ecc6299db9ec823/quote-1.0.15/src/runtime.rs:197:22: 197:60]>"* %self, i32 0, i32 1
  %_7 = load i32*, i32** %4, align 8, !nonnull !5
; invoke core::iter::adapters::map::map_fold
  %5 = invoke { i64*, i32* } @_ZN4core4iter8adapters3map8map_fold17hfe02f5670d8c9a51E(i32* align 4 dereferenceable(4) %_7, i64* align 8 dereferenceable(8) %g)
          to label %bb1 unwind label %cleanup

bb1:                                              ; preds = %start
  %_6.0 = extractvalue { i64*, i32* } %5, 0
  %_6.1 = extractvalue { i64*, i32* } %5, 1
  store i8 0, i8* %_10, align 1
  store i8 0, i8* %_9, align 1
; invoke core::iter::traits::iterator::Iterator::fold
  invoke void @_ZN4core4iter6traits8iterator8Iterator4fold17hdf81488ba0649b2fE(%"proc_macro2::token_stream::IntoIter"* noalias nocapture dereferenceable(40) %_4, i64* align 8 dereferenceable(8) %_6.0, i32* align 4 dereferenceable(4) %_6.1)
          to label %bb2 unwind label %cleanup

bb6:                                              ; preds = %cleanup
  %6 = load i8, i8* %_9, align 1, !range !4
  %7 = trunc i8 %6 to i1
  br i1 %7, label %bb5, label %bb3

cleanup:                                          ; preds = %bb1, %start
  %8 = landingpad { i8*, i32 }
          cleanup
  %9 = extractvalue { i8*, i32 } %8, 0
  %10 = extractvalue { i8*, i32 } %8, 1
  %11 = getelementptr inbounds { i8*, i32 }, { i8*, i32 }* %0, i32 0, i32 0
  store i8* %9, i8** %11, align 8
  %12 = getelementptr inbounds { i8*, i32 }, { i8*, i32 }* %0, i32 0, i32 1
  store i32 %10, i32* %12, align 8
  br label %bb6

bb2:                                              ; preds = %bb1
  store i8 0, i8* %_9, align 1
  store i8 0, i8* %_10, align 1
  ret void

bb3:                                              ; preds = %bb5, %bb6
  %13 = load i8, i8* %_10, align 1, !range !4
  %14 = trunc i8 %13 to i1
  br i1 %14, label %bb7, label %bb4

bb5:                                              ; preds = %bb6
  br label %bb3

bb4:                                              ; preds = %bb7, %bb3
  %15 = bitcast { i8*, i32 }* %0 to i8**
  %16 = load i8*, i8** %15, align 8
  %17 = getelementptr inbounds { i8*, i32 }, { i8*, i32 }* %0, i32 0, i32 1
  %18 = load i32, i32* %17, align 8
  %19 = insertvalue { i8*, i32 } undef, i8* %16, 0
  %20 = insertvalue { i8*, i32 } %19, i32 %18, 1
  resume { i8*, i32 } %20

bb7:                                              ; preds = %bb3
; call core::ptr::drop_in_place<proc_macro2::token_stream::IntoIter>
  call void @"_ZN4core3ptr56drop_in_place$LT$proc_macro2..token_stream..IntoIter$GT$17hc7b945121286a1fbE"(%"proc_macro2::token_stream::IntoIter"* %_4) #10
  br label %bb4
}

; <core::iter::adapters::map::Map<I,F> as core::iter::traits::iterator::Iterator>::fold
; Function Attrs: nonlazybind uwtable
define void @"_ZN102_$LT$core..iter..adapters..map..Map$LT$I$C$F$GT$$u20$as$u20$core..iter..traits..iterator..Iterator$GT$4fold17hadaa471aa7d2de2dE"(%"core::iter::adapters::map::Map<core::iter::adapters::map::Map<core::iter::adapters::map::Map<proc_macro2::token_stream::IntoIter, [closure@/home/cj/.cargo/registry/src/github.com-1ecc6299db9ec823/quote-1.0.15/src/runtime.rs:197:22: 197:60]>, fn(proc_macro2::TokenTree) -> proc_macro::TokenTree {proc_macro2::imp::into_compiler_token}>, fn(proc_macro::TokenTree) -> proc_macro::TokenStream {<proc_macro::TokenStream as core::convert::From<proc_macro::TokenTree>>::from}>"* noalias nocapture dereferenceable(48) %self, i32* align 4 dereferenceable(4) %g) unnamed_addr #1 personality i32 (i32, i32, i64, %"unwind::libunwind::_Unwind_Exception"*, %"unwind::libunwind::_Unwind_Context"*)* @rust_eh_personality {
start:
  %0 = alloca { i8*, i32 }, align 8
  %_10 = alloca i8, align 1
  %_9 = alloca i8, align 1
  %_4 = alloca %"core::iter::adapters::map::Map<core::iter::adapters::map::Map<proc_macro2::token_stream::IntoIter, [closure@/home/cj/.cargo/registry/src/github.com-1ecc6299db9ec823/quote-1.0.15/src/runtime.rs:197:22: 197:60]>, fn(proc_macro2::TokenTree) -> proc_macro::TokenTree {proc_macro2::imp::into_compiler_token}>", align 8
  store i8 0, i8* %_10, align 1
  store i8 0, i8* %_9, align 1
  store i8 1, i8* %_10, align 1
  %1 = bitcast %"core::iter::adapters::map::Map<core::iter::adapters::map::Map<core::iter::adapters::map::Map<proc_macro2::token_stream::IntoIter, [closure@/home/cj/.cargo/registry/src/github.com-1ecc6299db9ec823/quote-1.0.15/src/runtime.rs:197:22: 197:60]>, fn(proc_macro2::TokenTree) -> proc_macro::TokenTree {proc_macro2::imp::into_compiler_token}>, fn(proc_macro::TokenTree) -> proc_macro::TokenStream {<proc_macro::TokenStream as core::convert::From<proc_macro::TokenTree>>::from}>"* %self to %"core::iter::adapters::map::Map<core::iter::adapters::map::Map<proc_macro2::token_stream::IntoIter, [closure@/home/cj/.cargo/registry/src/github.com-1ecc6299db9ec823/quote-1.0.15/src/runtime.rs:197:22: 197:60]>, fn(proc_macro2::TokenTree) -> proc_macro::TokenTree {proc_macro2::imp::into_compiler_token}>"*
  %2 = bitcast %"core::iter::adapters::map::Map<core::iter::adapters::map::Map<proc_macro2::token_stream::IntoIter, [closure@/home/cj/.cargo/registry/src/github.com-1ecc6299db9ec823/quote-1.0.15/src/runtime.rs:197:22: 197:60]>, fn(proc_macro2::TokenTree) -> proc_macro::TokenTree {proc_macro2::imp::into_compiler_token}>"* %_4 to i8*
  %3 = bitcast %"core::iter::adapters::map::Map<core::iter::adapters::map::Map<proc_macro2::token_stream::IntoIter, [closure@/home/cj/.cargo/registry/src/github.com-1ecc6299db9ec823/quote-1.0.15/src/runtime.rs:197:22: 197:60]>, fn(proc_macro2::TokenTree) -> proc_macro::TokenTree {proc_macro2::imp::into_compiler_token}>"* %1 to i8*
  call void @llvm.memcpy.p0i8.p0i8.i64(i8* align 8 %2, i8* align 8 %3, i64 48, i1 false)
  store i8 1, i8* %_9, align 1
; invoke core::iter::adapters::map::map_fold
  %_6 = invoke align 4 dereferenceable(4) i32* @_ZN4core4iter8adapters3map8map_fold17h635194842ed69168E(i32* align 4 dereferenceable(4) %g)
          to label %bb1 unwind label %cleanup

bb1:                                              ; preds = %start
  store i8 0, i8* %_10, align 1
  store i8 0, i8* %_9, align 1
; invoke <core::iter::adapters::map::Map<I,F> as core::iter::traits::iterator::Iterator>::fold
  invoke void @"_ZN102_$LT$core..iter..adapters..map..Map$LT$I$C$F$GT$$u20$as$u20$core..iter..traits..iterator..Iterator$GT$4fold17h0d16a728b8950f89E"(%"core::iter::adapters::map::Map<core::iter::adapters::map::Map<proc_macro2::token_stream::IntoIter, [closure@/home/cj/.cargo/registry/src/github.com-1ecc6299db9ec823/quote-1.0.15/src/runtime.rs:197:22: 197:60]>, fn(proc_macro2::TokenTree) -> proc_macro::TokenTree {proc_macro2::imp::into_compiler_token}>"* noalias nocapture dereferenceable(48) %_4, i32* align 4 dereferenceable(4) %_6)
          to label %bb2 unwind label %cleanup

bb6:                                              ; preds = %cleanup
  %4 = load i8, i8* %_9, align 1, !range !4
  %5 = trunc i8 %4 to i1
  br i1 %5, label %bb5, label %bb3

cleanup:                                          ; preds = %bb1, %start
  %6 = landingpad { i8*, i32 }
          cleanup
  %7 = extractvalue { i8*, i32 } %6, 0
  %8 = extractvalue { i8*, i32 } %6, 1
  %9 = getelementptr inbounds { i8*, i32 }, { i8*, i32 }* %0, i32 0, i32 0
  store i8* %7, i8** %9, align 8
  %10 = getelementptr inbounds { i8*, i32 }, { i8*, i32 }* %0, i32 0, i32 1
  store i32 %8, i32* %10, align 8
  br label %bb6

bb2:                                              ; preds = %bb1
  store i8 0, i8* %_9, align 1
  store i8 0, i8* %_10, align 1
  ret void

bb3:                                              ; preds = %bb5, %bb6
  %11 = load i8, i8* %_10, align 1, !range !4
  %12 = trunc i8 %11 to i1
  br i1 %12, label %bb7, label %bb4

bb5:                                              ; preds = %bb6
  br label %bb3

bb4:                                              ; preds = %bb7, %bb3
  %13 = bitcast { i8*, i32 }* %0 to i8**
  %14 = load i8*, i8** %13, align 8
  %15 = getelementptr inbounds { i8*, i32 }, { i8*, i32 }* %0, i32 0, i32 1
  %16 = load i32, i32* %15, align 8
  %17 = insertvalue { i8*, i32 } undef, i8* %14, 0
  %18 = insertvalue { i8*, i32 } %17, i32 %16, 1
  resume { i8*, i32 } %18

bb7:                                              ; preds = %bb3
; call core::ptr::drop_in_place<core::iter::adapters::map::Map<core::iter::adapters::map::Map<proc_macro2::token_stream::IntoIter,quote::__private::respan_token_tree::{{closure}}>,proc_macro2::imp::into_compiler_token>>
  call void @"_ZN4core3ptr239drop_in_place$LT$core..iter..adapters..map..Map$LT$core..iter..adapters..map..Map$LT$proc_macro2..token_stream..IntoIter$C$quote..__private..respan_token_tree..$u7b$$u7b$closure$u7d$$u7d$$GT$$C$proc_macro2..imp..into_compiler_token$GT$$GT$17h0ff7a4ab77980c44E"(%"core::iter::adapters::map::Map<core::iter::adapters::map::Map<proc_macro2::token_stream::IntoIter, [closure@/home/cj/.cargo/registry/src/github.com-1ecc6299db9ec823/quote-1.0.15/src/runtime.rs:197:22: 197:60]>, fn(proc_macro2::TokenTree) -> proc_macro::TokenTree {proc_macro2::imp::into_compiler_token}>"* %_4) #10
  br label %bb4
}

; <core::iter::adapters::map::Map<I,F> as core::iter::traits::iterator::Iterator>::fold
; Function Attrs: nonlazybind uwtable
define void @"_ZN102_$LT$core..iter..adapters..map..Map$LT$I$C$F$GT$$u20$as$u20$core..iter..traits..iterator..Iterator$GT$4fold17hf39c80fec14368aaE"(%"core::iter::adapters::map::Map<core::iter::adapters::map::Map<core::iter::sources::once::Once<proc_macro2::TokenStream>, [closure@<proc_macro2::TokenStream as core::iter::traits::collect::Extend<proc_macro2::TokenStream>>::extend<core::iter::sources::once::Once<proc_macro2::TokenStream>>::{closure#0}]>, fn(proc_macro2::imp::TokenStream) -> proc_macro::TokenStream {proc_macro2::imp::TokenStream::unwrap_nightly}>"* noalias nocapture dereferenceable(40) %self, i32* align 4 dereferenceable(4) %g) unnamed_addr #1 personality i32 (i32, i32, i64, %"unwind::libunwind::_Unwind_Exception"*, %"unwind::libunwind::_Unwind_Context"*)* @rust_eh_personality {
start:
  %0 = alloca { i8*, i32 }, align 8
  %_10 = alloca i8, align 1
  %_9 = alloca i8, align 1
  %_4 = alloca %"core::iter::adapters::map::Map<core::iter::sources::once::Once<proc_macro2::TokenStream>, [closure@<proc_macro2::TokenStream as core::iter::traits::collect::Extend<proc_macro2::TokenStream>>::extend<core::iter::sources::once::Once<proc_macro2::TokenStream>>::{closure#0}]>", align 8
  store i8 0, i8* %_10, align 1
  store i8 0, i8* %_9, align 1
  store i8 1, i8* %_10, align 1
  %1 = bitcast %"core::iter::adapters::map::Map<core::iter::adapters::map::Map<core::iter::sources::once::Once<proc_macro2::TokenStream>, [closure@<proc_macro2::TokenStream as core::iter::traits::collect::Extend<proc_macro2::TokenStream>>::extend<core::iter::sources::once::Once<proc_macro2::TokenStream>>::{closure#0}]>, fn(proc_macro2::imp::TokenStream) -> proc_macro::TokenStream {proc_macro2::imp::TokenStream::unwrap_nightly}>"* %self to %"core::iter::adapters::map::Map<core::iter::sources::once::Once<proc_macro2::TokenStream>, [closure@<proc_macro2::TokenStream as core::iter::traits::collect::Extend<proc_macro2::TokenStream>>::extend<core::iter::sources::once::Once<proc_macro2::TokenStream>>::{closure#0}]>"*
  %2 = bitcast %"core::iter::adapters::map::Map<core::iter::sources::once::Once<proc_macro2::TokenStream>, [closure@<proc_macro2::TokenStream as core::iter::traits::collect::Extend<proc_macro2::TokenStream>>::extend<core::iter::sources::once::Once<proc_macro2::TokenStream>>::{closure#0}]>"* %_4 to i8*
  %3 = bitcast %"core::iter::adapters::map::Map<core::iter::sources::once::Once<proc_macro2::TokenStream>, [closure@<proc_macro2::TokenStream as core::iter::traits::collect::Extend<proc_macro2::TokenStream>>::extend<core::iter::sources::once::Once<proc_macro2::TokenStream>>::{closure#0}]>"* %1 to i8*
  call void @llvm.memcpy.p0i8.p0i8.i64(i8* align 8 %2, i8* align 8 %3, i64 40, i1 false)
  store i8 1, i8* %_9, align 1
; invoke core::iter::adapters::map::map_fold
  %_6 = invoke align 4 dereferenceable(4) i32* @_ZN4core4iter8adapters3map8map_fold17h70a7446122375382E(i32* align 4 dereferenceable(4) %g)
          to label %bb1 unwind label %cleanup

bb1:                                              ; preds = %start
  store i8 0, i8* %_10, align 1
  store i8 0, i8* %_9, align 1
; invoke <core::iter::adapters::map::Map<I,F> as core::iter::traits::iterator::Iterator>::fold
  invoke void @"_ZN102_$LT$core..iter..adapters..map..Map$LT$I$C$F$GT$$u20$as$u20$core..iter..traits..iterator..Iterator$GT$4fold17h16e2a1a9001d755eE"(%"core::iter::adapters::map::Map<core::iter::sources::once::Once<proc_macro2::TokenStream>, [closure@<proc_macro2::TokenStream as core::iter::traits::collect::Extend<proc_macro2::TokenStream>>::extend<core::iter::sources::once::Once<proc_macro2::TokenStream>>::{closure#0}]>"* noalias nocapture dereferenceable(40) %_4, i32* align 4 dereferenceable(4) %_6)
          to label %bb2 unwind label %cleanup

bb6:                                              ; preds = %cleanup
  %4 = load i8, i8* %_9, align 1, !range !4
  %5 = trunc i8 %4 to i1
  br i1 %5, label %bb5, label %bb3

cleanup:                                          ; preds = %bb1, %start
  %6 = landingpad { i8*, i32 }
          cleanup
  %7 = extractvalue { i8*, i32 } %6, 0
  %8 = extractvalue { i8*, i32 } %6, 1
  %9 = getelementptr inbounds { i8*, i32 }, { i8*, i32 }* %0, i32 0, i32 0
  store i8* %7, i8** %9, align 8
  %10 = getelementptr inbounds { i8*, i32 }, { i8*, i32 }* %0, i32 0, i32 1
  store i32 %8, i32* %10, align 8
  br label %bb6

bb2:                                              ; preds = %bb1
  store i8 0, i8* %_9, align 1
  store i8 0, i8* %_10, align 1
  ret void

bb3:                                              ; preds = %bb5, %bb6
  %11 = load i8, i8* %_10, align 1, !range !4
  %12 = trunc i8 %11 to i1
  br i1 %12, label %bb7, label %bb4

bb5:                                              ; preds = %bb6
  br label %bb3

bb4:                                              ; preds = %bb7, %bb3
  %13 = bitcast { i8*, i32 }* %0 to i8**
  %14 = load i8*, i8** %13, align 8
  %15 = getelementptr inbounds { i8*, i32 }, { i8*, i32 }* %0, i32 0, i32 1
  %16 = load i32, i32* %15, align 8
  %17 = insertvalue { i8*, i32 } undef, i8* %14, 0
  %18 = insertvalue { i8*, i32 } %17, i32 %16, 1
  resume { i8*, i32 } %18

bb7:                                              ; preds = %bb3
; call core::ptr::drop_in_place<core::iter::adapters::map::Map<core::iter::sources::once::Once<proc_macro2::TokenStream>,<proc_macro2::TokenStream as core::iter::traits::collect::Extend<proc_macro2::TokenStream>>::extend<core::iter::sources::once::Once<proc_macro2::TokenStream>>::{{closure}}>>
  call void @"_ZN4core3ptr344drop_in_place$LT$core..iter..adapters..map..Map$LT$core..iter..sources..once..Once$LT$proc_macro2..TokenStream$GT$$C$$LT$proc_macro2..TokenStream$u20$as$u20$core..iter..traits..collect..Extend$LT$proc_macro2..TokenStream$GT$$GT$..extend$LT$core..iter..sources..once..Once$LT$proc_macro2..TokenStream$GT$$GT$..$u7b$$u7b$closure$u7d$$u7d$$GT$$GT$17h5642fc999cfe5f6cE"(%"core::iter::adapters::map::Map<core::iter::sources::once::Once<proc_macro2::TokenStream>, [closure@<proc_macro2::TokenStream as core::iter::traits::collect::Extend<proc_macro2::TokenStream>>::extend<core::iter::sources::once::Once<proc_macro2::TokenStream>>::{closure#0}]>"* %_4) #10
  br label %bb4
}

; <core::iter::adapters::map::Map<I,F> as core::iter::traits::iterator::Iterator>::fold
; Function Attrs: nonlazybind uwtable
define void @"_ZN102_$LT$core..iter..adapters..map..Map$LT$I$C$F$GT$$u20$as$u20$core..iter..traits..iterator..Iterator$GT$4fold17hfdfb1dcf343d809fE"(%"core::iter::adapters::map::Map<proc_macro2::token_stream::IntoIter, [closure@/home/cj/.cargo/registry/src/github.com-1ecc6299db9ec823/quote-1.0.15/src/runtime.rs:187:37: 187:67]>"* noalias nocapture dereferenceable(48) %self, i64* align 8 dereferenceable(8) %g) unnamed_addr #1 personality i32 (i32, i32, i64, %"unwind::libunwind::_Unwind_Exception"*, %"unwind::libunwind::_Unwind_Context"*)* @rust_eh_personality {
start:
  %0 = alloca { i8*, i32 }, align 8
  %_10 = alloca i8, align 1
  %_9 = alloca i8, align 1
  %_4 = alloca %"proc_macro2::token_stream::IntoIter", align 8
  store i8 0, i8* %_10, align 1
  store i8 0, i8* %_9, align 1
  store i8 1, i8* %_10, align 1
  %1 = bitcast %"core::iter::adapters::map::Map<proc_macro2::token_stream::IntoIter, [closure@/home/cj/.cargo/registry/src/github.com-1ecc6299db9ec823/quote-1.0.15/src/runtime.rs:187:37: 187:67]>"* %self to %"proc_macro2::token_stream::IntoIter"*
  %2 = bitcast %"proc_macro2::token_stream::IntoIter"* %_4 to i8*
  %3 = bitcast %"proc_macro2::token_stream::IntoIter"* %1 to i8*
  call void @llvm.memcpy.p0i8.p0i8.i64(i8* align 8 %2, i8* align 8 %3, i64 40, i1 false)
  store i8 1, i8* %_9, align 1
  %4 = getelementptr inbounds %"core::iter::adapters::map::Map<proc_macro2::token_stream::IntoIter, [closure@/home/cj/.cargo/registry/src/github.com-1ecc6299db9ec823/quote-1.0.15/src/runtime.rs:187:37: 187:67]>", %"core::iter::adapters::map::Map<proc_macro2::token_stream::IntoIter, [closure@/home/cj/.cargo/registry/src/github.com-1ecc6299db9ec823/quote-1.0.15/src/runtime.rs:187:37: 187:67]>"* %self, i32 0, i32 1
  %_7 = load i32*, i32** %4, align 8, !nonnull !5
; invoke core::iter::adapters::map::map_fold
  %5 = invoke { i64*, i32* } @_ZN4core4iter8adapters3map8map_fold17h7a8693ce578d791dE(i32* align 4 dereferenceable(4) %_7, i64* align 8 dereferenceable(8) %g)
          to label %bb1 unwind label %cleanup

bb1:                                              ; preds = %start
  %_6.0 = extractvalue { i64*, i32* } %5, 0
  %_6.1 = extractvalue { i64*, i32* } %5, 1
  store i8 0, i8* %_10, align 1
  store i8 0, i8* %_9, align 1
; invoke core::iter::traits::iterator::Iterator::fold
  invoke void @_ZN4core4iter6traits8iterator8Iterator4fold17h8e2ce53ff9b15427E(%"proc_macro2::token_stream::IntoIter"* noalias nocapture dereferenceable(40) %_4, i64* align 8 dereferenceable(8) %_6.0, i32* align 4 dereferenceable(4) %_6.1)
          to label %bb2 unwind label %cleanup

bb6:                                              ; preds = %cleanup
  %6 = load i8, i8* %_9, align 1, !range !4
  %7 = trunc i8 %6 to i1
  br i1 %7, label %bb5, label %bb3

cleanup:                                          ; preds = %bb1, %start
  %8 = landingpad { i8*, i32 }
          cleanup
  %9 = extractvalue { i8*, i32 } %8, 0
  %10 = extractvalue { i8*, i32 } %8, 1
  %11 = getelementptr inbounds { i8*, i32 }, { i8*, i32 }* %0, i32 0, i32 0
  store i8* %9, i8** %11, align 8
  %12 = getelementptr inbounds { i8*, i32 }, { i8*, i32 }* %0, i32 0, i32 1
  store i32 %10, i32* %12, align 8
  br label %bb6

bb2:                                              ; preds = %bb1
  store i8 0, i8* %_9, align 1
  store i8 0, i8* %_10, align 1
  ret void

bb3:                                              ; preds = %bb5, %bb6
  %13 = load i8, i8* %_10, align 1, !range !4
  %14 = trunc i8 %13 to i1
  br i1 %14, label %bb7, label %bb4

bb5:                                              ; preds = %bb6
  br label %bb3

bb4:                                              ; preds = %bb7, %bb3
  %15 = bitcast { i8*, i32 }* %0 to i8**
  %16 = load i8*, i8** %15, align 8
  %17 = getelementptr inbounds { i8*, i32 }, { i8*, i32 }* %0, i32 0, i32 1
  %18 = load i32, i32* %17, align 8
  %19 = insertvalue { i8*, i32 } undef, i8* %16, 0
  %20 = insertvalue { i8*, i32 } %19, i32 %18, 1
  resume { i8*, i32 } %20

bb7:                                              ; preds = %bb3
; call core::ptr::drop_in_place<proc_macro2::token_stream::IntoIter>
  call void @"_ZN4core3ptr56drop_in_place$LT$proc_macro2..token_stream..IntoIter$GT$17hc7b945121286a1fbE"(%"proc_macro2::token_stream::IntoIter"* %_4) #10
  br label %bb4
}

; <core::iter::adapters::map::Map<I,F> as core::iter::traits::iterator::Iterator>::next
; Function Attrs: inlinehint nonlazybind uwtable
define void @"_ZN102_$LT$core..iter..adapters..map..Map$LT$I$C$F$GT$$u20$as$u20$core..iter..traits..iterator..Iterator$GT$4next17h4dced6bed5b4dc74E"(%"core::option::Option<proc_macro2::imp::TokenStream>"* noalias nocapture sret(%"core::option::Option<proc_macro2::imp::TokenStream>") dereferenceable(40) %0, %"core::iter::adapters::map::Map<core::iter::sources::once::Once<proc_macro2::TokenStream>, [closure@<proc_macro2::TokenStream as core::iter::traits::collect::Extend<proc_macro2::TokenStream>>::extend<core::iter::sources::once::Once<proc_macro2::TokenStream>>::{closure#0}]>"* align 8 dereferenceable(40) %self) unnamed_addr #0 {
start:
  %_2 = alloca %"core::option::Option<proc_macro2::TokenStream>", align 8
  %_3 = bitcast %"core::iter::adapters::map::Map<core::iter::sources::once::Once<proc_macro2::TokenStream>, [closure@<proc_macro2::TokenStream as core::iter::traits::collect::Extend<proc_macro2::TokenStream>>::extend<core::iter::sources::once::Once<proc_macro2::TokenStream>>::{closure#0}]>"* %self to %"core::iter::sources::once::Once<proc_macro2::TokenStream>"*
; call <core::iter::sources::once::Once<T> as core::iter::traits::iterator::Iterator>::next
  call void @"_ZN99_$LT$core..iter..sources..once..Once$LT$T$GT$$u20$as$u20$core..iter..traits..iterator..Iterator$GT$4next17h1a278fb38c3dc100E"(%"core::option::Option<proc_macro2::TokenStream>"* noalias nocapture sret(%"core::option::Option<proc_macro2::TokenStream>") dereferenceable(40) %_2, %"core::iter::sources::once::Once<proc_macro2::TokenStream>"* align 8 dereferenceable(40) %_3)
  br label %bb1

bb1:                                              ; preds = %start
  %_4 = bitcast %"core::iter::adapters::map::Map<core::iter::sources::once::Once<proc_macro2::TokenStream>, [closure@<proc_macro2::TokenStream as core::iter::traits::collect::Extend<proc_macro2::TokenStream>>::extend<core::iter::sources::once::Once<proc_macro2::TokenStream>>::{closure#0}]>"* %self to %"[closure@<proc_macro2::TokenStream as core::iter::traits::collect::Extend<proc_macro2::TokenStream>>::extend<core::iter::sources::once::Once<proc_macro2::TokenStream>>::{closure#0}]"*
; call core::option::Option<T>::map
  call void @"_ZN4core6option15Option$LT$T$GT$3map17hac82b8683fce4e75E"(%"core::option::Option<proc_macro2::imp::TokenStream>"* noalias nocapture sret(%"core::option::Option<proc_macro2::imp::TokenStream>") dereferenceable(40) %0, %"core::option::Option<proc_macro2::TokenStream>"* noalias nocapture dereferenceable(40) %_2, %"[closure@<proc_macro2::TokenStream as core::iter::traits::collect::Extend<proc_macro2::TokenStream>>::extend<core::iter::sources::once::Once<proc_macro2::TokenStream>>::{closure#0}]"* nonnull align 1 %_4)
  br label %bb2

bb2:                                              ; preds = %bb1
  ret void
}

; <core::iter::adapters::map::Map<I,F> as core::iter::traits::iterator::Iterator>::next
; Function Attrs: inlinehint nonlazybind uwtable
define void @"_ZN102_$LT$core..iter..adapters..map..Map$LT$I$C$F$GT$$u20$as$u20$core..iter..traits..iterator..Iterator$GT$4next17hb1e11da04ef04927E"(%"core::option::Option<proc_macro2::fallback::TokenStream>"* noalias nocapture sret(%"core::option::Option<proc_macro2::fallback::TokenStream>") dereferenceable(24) %0, %"core::iter::adapters::map::Map<core::iter::adapters::map::Map<core::iter::sources::once::Once<proc_macro2::TokenStream>, [closure@<proc_macro2::TokenStream as core::iter::traits::collect::Extend<proc_macro2::TokenStream>>::extend<core::iter::sources::once::Once<proc_macro2::TokenStream>>::{closure#0}]>, fn(proc_macro2::imp::TokenStream) -> proc_macro2::fallback::TokenStream {proc_macro2::imp::TokenStream::unwrap_stable}>"* align 8 dereferenceable(40) %self) unnamed_addr #0 {
start:
  %_2 = alloca %"core::option::Option<proc_macro2::imp::TokenStream>", align 8
  %_3 = bitcast %"core::iter::adapters::map::Map<core::iter::adapters::map::Map<core::iter::sources::once::Once<proc_macro2::TokenStream>, [closure@<proc_macro2::TokenStream as core::iter::traits::collect::Extend<proc_macro2::TokenStream>>::extend<core::iter::sources::once::Once<proc_macro2::TokenStream>>::{closure#0}]>, fn(proc_macro2::imp::TokenStream) -> proc_macro2::fallback::TokenStream {proc_macro2::imp::TokenStream::unwrap_stable}>"* %self to %"core::iter::adapters::map::Map<core::iter::sources::once::Once<proc_macro2::TokenStream>, [closure@<proc_macro2::TokenStream as core::iter::traits::collect::Extend<proc_macro2::TokenStream>>::extend<core::iter::sources::once::Once<proc_macro2::TokenStream>>::{closure#0}]>"*
; call <core::iter::adapters::map::Map<I,F> as core::iter::traits::iterator::Iterator>::next
  call void @"_ZN102_$LT$core..iter..adapters..map..Map$LT$I$C$F$GT$$u20$as$u20$core..iter..traits..iterator..Iterator$GT$4next17h4dced6bed5b4dc74E"(%"core::option::Option<proc_macro2::imp::TokenStream>"* noalias nocapture sret(%"core::option::Option<proc_macro2::imp::TokenStream>") dereferenceable(40) %_2, %"core::iter::adapters::map::Map<core::iter::sources::once::Once<proc_macro2::TokenStream>, [closure@<proc_macro2::TokenStream as core::iter::traits::collect::Extend<proc_macro2::TokenStream>>::extend<core::iter::sources::once::Once<proc_macro2::TokenStream>>::{closure#0}]>"* align 8 dereferenceable(40) %_3)
  br label %bb1

bb1:                                              ; preds = %start
  %_4 = bitcast %"core::iter::adapters::map::Map<core::iter::adapters::map::Map<core::iter::sources::once::Once<proc_macro2::TokenStream>, [closure@<proc_macro2::TokenStream as core::iter::traits::collect::Extend<proc_macro2::TokenStream>>::extend<core::iter::sources::once::Once<proc_macro2::TokenStream>>::{closure#0}]>, fn(proc_macro2::imp::TokenStream) -> proc_macro2::fallback::TokenStream {proc_macro2::imp::TokenStream::unwrap_stable}>"* %self to {}*
; call core::option::Option<T>::map
  call void @"_ZN4core6option15Option$LT$T$GT$3map17h608dbf00ee725643E"(%"core::option::Option<proc_macro2::fallback::TokenStream>"* noalias nocapture sret(%"core::option::Option<proc_macro2::fallback::TokenStream>") dereferenceable(24) %0, %"core::option::Option<proc_macro2::imp::TokenStream>"* noalias nocapture dereferenceable(40) %_2, {}* nonnull align 1 %_4)
  br label %bb2

bb2:                                              ; preds = %bb1
  ret void
}

; <core::iter::adapters::map::Map<I,F> as core::iter::traits::iterator::Iterator>::next
; Function Attrs: inlinehint nonlazybind uwtable
define void @"_ZN102_$LT$core..iter..adapters..map..Map$LT$I$C$F$GT$$u20$as$u20$core..iter..traits..iterator..Iterator$GT$4next17hb1ff85e676a06c88E"(%"core::option::Option<proc_macro2::TokenTree>"* noalias nocapture sret(%"core::option::Option<proc_macro2::TokenTree>") dereferenceable(48) %0, %"core::iter::adapters::map::Map<proc_macro2::token_stream::IntoIter, [closure@/home/cj/.cargo/registry/src/github.com-1ecc6299db9ec823/quote-1.0.15/src/runtime.rs:187:37: 187:67]>"* align 8 dereferenceable(48) %self) unnamed_addr #0 {
start:
  %_2 = alloca %"core::option::Option<proc_macro2::TokenTree>", align 8
  %_3 = bitcast %"core::iter::adapters::map::Map<proc_macro2::token_stream::IntoIter, [closure@/home/cj/.cargo/registry/src/github.com-1ecc6299db9ec823/quote-1.0.15/src/runtime.rs:187:37: 187:67]>"* %self to %"proc_macro2::token_stream::IntoIter"*
; call <proc_macro2::token_stream::IntoIter as core::iter::traits::iterator::Iterator>::next
  call void @"_ZN94_$LT$proc_macro2..token_stream..IntoIter$u20$as$u20$core..iter..traits..iterator..Iterator$GT$4next17haf085812e3b82644E"(%"core::option::Option<proc_macro2::TokenTree>"* noalias nocapture sret(%"core::option::Option<proc_macro2::TokenTree>") dereferenceable(48) %_2, %"proc_macro2::token_stream::IntoIter"* align 8 dereferenceable(40) %_3)
  br label %bb1

bb1:                                              ; preds = %start
  %_4 = getelementptr inbounds %"core::iter::adapters::map::Map<proc_macro2::token_stream::IntoIter, [closure@/home/cj/.cargo/registry/src/github.com-1ecc6299db9ec823/quote-1.0.15/src/runtime.rs:187:37: 187:67]>", %"core::iter::adapters::map::Map<proc_macro2::token_stream::IntoIter, [closure@/home/cj/.cargo/registry/src/github.com-1ecc6299db9ec823/quote-1.0.15/src/runtime.rs:187:37: 187:67]>"* %self, i32 0, i32 1
; call core::option::Option<T>::map
  call void @"_ZN4core6option15Option$LT$T$GT$3map17h4a3afa660f60c75dE"(%"core::option::Option<proc_macro2::TokenTree>"* noalias nocapture sret(%"core::option::Option<proc_macro2::TokenTree>") dereferenceable(48) %0, %"core::option::Option<proc_macro2::TokenTree>"* noalias nocapture dereferenceable(48) %_2, i32** align 8 dereferenceable(8) %_4)
  br label %bb2

bb2:                                              ; preds = %bb1
  ret void
}

; <core::iter::adapters::map::Map<I,F> as core::iter::traits::iterator::Iterator>::size_hint
; Function Attrs: inlinehint nonlazybind uwtable
define void @"_ZN102_$LT$core..iter..adapters..map..Map$LT$I$C$F$GT$$u20$as$u20$core..iter..traits..iterator..Iterator$GT$9size_hint17h1c6947859caa891fE"({ i64, { i64, i64 } }* noalias nocapture sret({ i64, { i64, i64 } }) dereferenceable(24) %0, %"core::iter::adapters::map::Map<core::iter::adapters::map::Map<core::iter::sources::once::Once<proc_macro2::TokenStream>, [closure@<proc_macro2::TokenStream as core::iter::traits::collect::Extend<proc_macro2::TokenStream>>::extend<core::iter::sources::once::Once<proc_macro2::TokenStream>>::{closure#0}]>, fn(proc_macro2::imp::TokenStream) -> proc_macro2::fallback::TokenStream {proc_macro2::imp::TokenStream::unwrap_stable}>"* align 8 dereferenceable(40) %self) unnamed_addr #0 {
start:
  %_2 = bitcast %"core::iter::adapters::map::Map<core::iter::adapters::map::Map<core::iter::sources::once::Once<proc_macro2::TokenStream>, [closure@<proc_macro2::TokenStream as core::iter::traits::collect::Extend<proc_macro2::TokenStream>>::extend<core::iter::sources::once::Once<proc_macro2::TokenStream>>::{closure#0}]>, fn(proc_macro2::imp::TokenStream) -> proc_macro2::fallback::TokenStream {proc_macro2::imp::TokenStream::unwrap_stable}>"* %self to %"core::iter::adapters::map::Map<core::iter::sources::once::Once<proc_macro2::TokenStream>, [closure@<proc_macro2::TokenStream as core::iter::traits::collect::Extend<proc_macro2::TokenStream>>::extend<core::iter::sources::once::Once<proc_macro2::TokenStream>>::{closure#0}]>"*
; call <core::iter::adapters::map::Map<I,F> as core::iter::traits::iterator::Iterator>::size_hint
  call void @"_ZN102_$LT$core..iter..adapters..map..Map$LT$I$C$F$GT$$u20$as$u20$core..iter..traits..iterator..Iterator$GT$9size_hint17h972fe0250fcb545bE"({ i64, { i64, i64 } }* noalias nocapture sret({ i64, { i64, i64 } }) dereferenceable(24) %0, %"core::iter::adapters::map::Map<core::iter::sources::once::Once<proc_macro2::TokenStream>, [closure@<proc_macro2::TokenStream as core::iter::traits::collect::Extend<proc_macro2::TokenStream>>::extend<core::iter::sources::once::Once<proc_macro2::TokenStream>>::{closure#0}]>"* align 8 dereferenceable(40) %_2)
  br label %bb1

bb1:                                              ; preds = %start
  ret void
}

; <core::iter::adapters::map::Map<I,F> as core::iter::traits::iterator::Iterator>::size_hint
; Function Attrs: inlinehint nonlazybind uwtable
define void @"_ZN102_$LT$core..iter..adapters..map..Map$LT$I$C$F$GT$$u20$as$u20$core..iter..traits..iterator..Iterator$GT$9size_hint17h972fe0250fcb545bE"({ i64, { i64, i64 } }* noalias nocapture sret({ i64, { i64, i64 } }) dereferenceable(24) %0, %"core::iter::adapters::map::Map<core::iter::sources::once::Once<proc_macro2::TokenStream>, [closure@<proc_macro2::TokenStream as core::iter::traits::collect::Extend<proc_macro2::TokenStream>>::extend<core::iter::sources::once::Once<proc_macro2::TokenStream>>::{closure#0}]>"* align 8 dereferenceable(40) %self) unnamed_addr #0 {
start:
  %_2 = bitcast %"core::iter::adapters::map::Map<core::iter::sources::once::Once<proc_macro2::TokenStream>, [closure@<proc_macro2::TokenStream as core::iter::traits::collect::Extend<proc_macro2::TokenStream>>::extend<core::iter::sources::once::Once<proc_macro2::TokenStream>>::{closure#0}]>"* %self to %"core::iter::sources::once::Once<proc_macro2::TokenStream>"*
; call <core::iter::sources::once::Once<T> as core::iter::traits::iterator::Iterator>::size_hint
  call void @"_ZN99_$LT$core..iter..sources..once..Once$LT$T$GT$$u20$as$u20$core..iter..traits..iterator..Iterator$GT$9size_hint17h00786a0f15770ef0E"({ i64, { i64, i64 } }* noalias nocapture sret({ i64, { i64, i64 } }) dereferenceable(24) %0, %"core::iter::sources::once::Once<proc_macro2::TokenStream>"* align 8 dereferenceable(40) %_2)
  br label %bb1

bb1:                                              ; preds = %start
  ret void
}

; <core::ops::control_flow::ControlFlow<B,C> as core::ops::try_trait::FromResidual>::from_residual
; Function Attrs: inlinehint nonlazybind uwtable
define i64 @"_ZN104_$LT$core..ops..control_flow..ControlFlow$LT$B$C$C$GT$$u20$as$u20$core..ops..try_trait..FromResidual$GT$13from_residual17h74d4d386d62275f8E"(i32 %0) unnamed_addr #0 {
start:
  %_3 = alloca %"proc_macro2::Span", align 4
  %b = alloca %"proc_macro2::Span", align 4
  %1 = alloca %"core::ops::control_flow::ControlFlow<proc_macro2::Span>", align 4
  %2 = alloca i32, align 4
  %residual = alloca %"core::ops::control_flow::ControlFlow<proc_macro2::Span, core::convert::Infallible>::Break", align 4
  store i32 %0, i32* %2, align 4
  %3 = bitcast %"core::ops::control_flow::ControlFlow<proc_macro2::Span, core::convert::Infallible>::Break"* %residual to i8*
  %4 = bitcast i32* %2 to i8*
  call void @llvm.memcpy.p0i8.p0i8.i64(i8* align 4 %3, i8* align 4 %4, i64 4, i1 false)
  %5 = bitcast %"core::ops::control_flow::ControlFlow<proc_macro2::Span, core::convert::Infallible>::Break"* %residual to %"proc_macro2::Span"*
  %6 = bitcast %"proc_macro2::Span"* %b to i8*
  %7 = bitcast %"proc_macro2::Span"* %5 to i8*
  call void @llvm.memcpy.p0i8.p0i8.i64(i8* align 4 %6, i8* align 4 %7, i64 4, i1 false)
  %8 = bitcast %"proc_macro2::Span"* %_3 to i8*
  %9 = bitcast %"proc_macro2::Span"* %b to i8*
  call void @llvm.memcpy.p0i8.p0i8.i64(i8* align 4 %8, i8* align 4 %9, i64 4, i1 false)
  %10 = bitcast %"core::ops::control_flow::ControlFlow<proc_macro2::Span>"* %1 to %"core::ops::control_flow::ControlFlow<proc_macro2::Span>::Break"*
  %11 = getelementptr inbounds %"core::ops::control_flow::ControlFlow<proc_macro2::Span>::Break", %"core::ops::control_flow::ControlFlow<proc_macro2::Span>::Break"* %10, i32 0, i32 1
  %12 = bitcast %"proc_macro2::Span"* %11 to i8*
  %13 = bitcast %"proc_macro2::Span"* %_3 to i8*
  call void @llvm.memcpy.p0i8.p0i8.i64(i8* align 4 %12, i8* align 4 %13, i64 4, i1 false)
  %14 = bitcast %"core::ops::control_flow::ControlFlow<proc_macro2::Span>"* %1 to i32*
  store i32 1, i32* %14, align 4
  %15 = bitcast %"core::ops::control_flow::ControlFlow<proc_macro2::Span>"* %1 to i64*
  %16 = load i64, i64* %15, align 4
  ret i64 %16
}

; <core::iter::adapters::chain::Chain<A,B> as core::iter::traits::iterator::Iterator>::fold
; Function Attrs: nonlazybind uwtable
define void @"_ZN106_$LT$core..iter..adapters..chain..Chain$LT$A$C$B$GT$$u20$as$u20$core..iter..traits..iterator..Iterator$GT$4fold17he46cd38b02794054E"(%"core::iter::adapters::chain::Chain<core::iter::sources::once::Once<proc_macro::TokenStream>, core::iter::adapters::map::Map<core::iter::adapters::map::Map<core::iter::sources::once::Once<proc_macro2::TokenStream>, [closure@<proc_macro2::TokenStream as core::iter::traits::collect::Extend<proc_macro2::TokenStream>>::extend<core::iter::sources::once::Once<proc_macro2::TokenStream>>::{closure#0}]>, fn(proc_macro2::imp::TokenStream) -> proc_macro::TokenStream {proc_macro2::imp::TokenStream::unwrap_nightly}>>"* noalias nocapture dereferenceable(48) %self, i32* align 4 dereferenceable(4) %0) unnamed_addr #1 personality i32 (i32, i32, i64, %"unwind::libunwind::_Unwind_Exception"*, %"unwind::libunwind::_Unwind_Context"*)* @rust_eh_personality {
start:
  %1 = alloca { i8*, i32 }, align 8
  %_18 = alloca i8, align 1
  %_17 = alloca i8, align 1
  %_16 = alloca i8, align 1
  %_13 = alloca %"core::iter::adapters::map::Map<core::iter::adapters::map::Map<core::iter::sources::once::Once<proc_macro2::TokenStream>, [closure@<proc_macro2::TokenStream as core::iter::traits::collect::Extend<proc_macro2::TokenStream>>::extend<core::iter::sources::once::Once<proc_macro2::TokenStream>>::{closure#0}]>, fn(proc_macro2::imp::TokenStream) -> proc_macro::TokenStream {proc_macro2::imp::TokenStream::unwrap_nightly}>", align 8
  %b = alloca %"core::iter::adapters::map::Map<core::iter::adapters::map::Map<core::iter::sources::once::Once<proc_macro2::TokenStream>, [closure@<proc_macro2::TokenStream as core::iter::traits::collect::Extend<proc_macro2::TokenStream>>::extend<core::iter::sources::once::Once<proc_macro2::TokenStream>>::{closure#0}]>, fn(proc_macro2::imp::TokenStream) -> proc_macro::TokenStream {proc_macro2::imp::TokenStream::unwrap_nightly}>", align 8
  %_7 = alloca %"core::iter::sources::once::Once<proc_macro::TokenStream>", align 4
  %a = alloca %"core::iter::sources::once::Once<proc_macro::TokenStream>", align 4
  %f = alloca i32*, align 8
  store i32* %0, i32** %f, align 8
  store i8 0, i8* %_17, align 1
  store i8 0, i8* %_18, align 1
  store i8 0, i8* %_16, align 1
  store i8 1, i8* %_17, align 1
  store i8 1, i8* %_18, align 1
  store i8 1, i8* %_16, align 1
  %2 = getelementptr inbounds %"core::iter::adapters::chain::Chain<core::iter::sources::once::Once<proc_macro::TokenStream>, core::iter::adapters::map::Map<core::iter::adapters::map::Map<core::iter::sources::once::Once<proc_macro2::TokenStream>, [closure@<proc_macro2::TokenStream as core::iter::traits::collect::Extend<proc_macro2::TokenStream>>::extend<core::iter::sources::once::Once<proc_macro2::TokenStream>>::{closure#0}]>, fn(proc_macro2::imp::TokenStream) -> proc_macro::TokenStream {proc_macro2::imp::TokenStream::unwrap_nightly}>>", %"core::iter::adapters::chain::Chain<core::iter::sources::once::Once<proc_macro::TokenStream>, core::iter::adapters::map::Map<core::iter::adapters::map::Map<core::iter::sources::once::Once<proc_macro2::TokenStream>, [closure@<proc_macro2::TokenStream as core::iter::traits::collect::Extend<proc_macro2::TokenStream>>::extend<core::iter::sources::once::Once<proc_macro2::TokenStream>>::{closure#0}]>, fn(proc_macro2::imp::TokenStream) -> proc_macro::TokenStream {proc_macro2::imp::TokenStream::unwrap_nightly}>>"* %self, i32 0, i32 1
  %3 = bitcast %"core::option::Option<core::iter::sources::once::Once<proc_macro::TokenStream>>"* %2 to i32*
  %4 = load i32, i32* %3, align 8, !range !6
  %_4 = zext i32 %4 to i64
  %5 = icmp eq i64 %_4, 1
  br i1 %5, label %bb1, label %bb3

bb1:                                              ; preds = %start
  store i8 0, i8* %_18, align 1
  %6 = getelementptr inbounds %"core::iter::adapters::chain::Chain<core::iter::sources::once::Once<proc_macro::TokenStream>, core::iter::adapters::map::Map<core::iter::adapters::map::Map<core::iter::sources::once::Once<proc_macro2::TokenStream>, [closure@<proc_macro2::TokenStream as core::iter::traits::collect::Extend<proc_macro2::TokenStream>>::extend<core::iter::sources::once::Once<proc_macro2::TokenStream>>::{closure#0}]>, fn(proc_macro2::imp::TokenStream) -> proc_macro::TokenStream {proc_macro2::imp::TokenStream::unwrap_nightly}>>", %"core::iter::adapters::chain::Chain<core::iter::sources::once::Once<proc_macro::TokenStream>, core::iter::adapters::map::Map<core::iter::adapters::map::Map<core::iter::sources::once::Once<proc_macro2::TokenStream>, [closure@<proc_macro2::TokenStream as core::iter::traits::collect::Extend<proc_macro2::TokenStream>>::extend<core::iter::sources::once::Once<proc_macro2::TokenStream>>::{closure#0}]>, fn(proc_macro2::imp::TokenStream) -> proc_macro::TokenStream {proc_macro2::imp::TokenStream::unwrap_nightly}>>"* %self, i32 0, i32 1
  %7 = bitcast %"core::option::Option<core::iter::sources::once::Once<proc_macro::TokenStream>>"* %6 to %"core::option::Option<core::iter::sources::once::Once<proc_macro::TokenStream>>::Some"*
  %8 = getelementptr inbounds %"core::option::Option<core::iter::sources::once::Once<proc_macro::TokenStream>>::Some", %"core::option::Option<core::iter::sources::once::Once<proc_macro::TokenStream>>::Some"* %7, i32 0, i32 1
  %9 = bitcast %"core::iter::sources::once::Once<proc_macro::TokenStream>"* %a to i8*
  %10 = bitcast %"core::iter::sources::once::Once<proc_macro::TokenStream>"* %8 to i8*
  call void @llvm.memcpy.p0i8.p0i8.i64(i8* align 4 %9, i8* align 4 %10, i64 4, i1 false)
  %11 = bitcast %"core::iter::sources::once::Once<proc_macro::TokenStream>"* %_7 to i8*
  %12 = bitcast %"core::iter::sources::once::Once<proc_macro::TokenStream>"* %a to i8*
  call void @llvm.memcpy.p0i8.p0i8.i64(i8* align 4 %11, i8* align 4 %12, i64 4, i1 false)
  %13 = bitcast %"core::iter::sources::once::Once<proc_macro::TokenStream>"* %_7 to i32*
  %14 = load i32, i32* %13, align 4
; invoke core::iter::traits::iterator::Iterator::fold
  invoke void @_ZN4core4iter6traits8iterator8Iterator4fold17h13bb86b09371e149E(i32 %14, i32** align 8 dereferenceable(8) %f)
          to label %bb2 unwind label %cleanup

bb3:                                              ; preds = %bb2, %start
  %15 = bitcast %"core::iter::adapters::chain::Chain<core::iter::sources::once::Once<proc_macro::TokenStream>, core::iter::adapters::map::Map<core::iter::adapters::map::Map<core::iter::sources::once::Once<proc_macro2::TokenStream>, [closure@<proc_macro2::TokenStream as core::iter::traits::collect::Extend<proc_macro2::TokenStream>>::extend<core::iter::sources::once::Once<proc_macro2::TokenStream>>::{closure#0}]>, fn(proc_macro2::imp::TokenStream) -> proc_macro::TokenStream {proc_macro2::imp::TokenStream::unwrap_nightly}>>"* %self to %"core::option::Option<core::iter::adapters::map::Map<core::iter::adapters::map::Map<core::iter::sources::once::Once<proc_macro2::TokenStream>, [closure@<proc_macro2::TokenStream as core::iter::traits::collect::Extend<proc_macro2::TokenStream>>::extend<core::iter::sources::once::Once<proc_macro2::TokenStream>>::{closure#0}]>, fn(proc_macro2::imp::TokenStream) -> proc_macro::TokenStream {proc_macro2::imp::TokenStream::unwrap_nightly}>>"*
  %16 = bitcast %"core::option::Option<core::iter::adapters::map::Map<core::iter::adapters::map::Map<core::iter::sources::once::Once<proc_macro2::TokenStream>, [closure@<proc_macro2::TokenStream as core::iter::traits::collect::Extend<proc_macro2::TokenStream>>::extend<core::iter::sources::once::Once<proc_macro2::TokenStream>>::{closure#0}]>, fn(proc_macro2::imp::TokenStream) -> proc_macro::TokenStream {proc_macro2::imp::TokenStream::unwrap_nightly}>>"* %15 to i64*
  %17 = load i64, i64* %16, align 8, !range !2
  %18 = sub i64 %17, 3
  %19 = icmp eq i64 %18, 0
  %_10 = select i1 %19, i64 0, i64 1
  %20 = icmp eq i64 %_10, 1
  br i1 %20, label %bb4, label %bb6

bb2:                                              ; preds = %bb1
  br label %bb3

bb21:                                             ; preds = %cleanup
  %21 = load i8, i8* %_16, align 1, !range !4
  %22 = trunc i8 %21 to i1
  br i1 %22, label %bb20, label %bb8

cleanup:                                          ; preds = %bb4, %bb1
  %23 = landingpad { i8*, i32 }
          cleanup
  %24 = extractvalue { i8*, i32 } %23, 0
  %25 = extractvalue { i8*, i32 } %23, 1
  %26 = getelementptr inbounds { i8*, i32 }, { i8*, i32 }* %1, i32 0, i32 0
  store i8* %24, i8** %26, align 8
  %27 = getelementptr inbounds { i8*, i32 }, { i8*, i32 }* %1, i32 0, i32 1
  store i32 %25, i32* %27, align 8
  br label %bb21

bb4:                                              ; preds = %bb3
  store i8 0, i8* %_17, align 1
  %28 = bitcast %"core::iter::adapters::chain::Chain<core::iter::sources::once::Once<proc_macro::TokenStream>, core::iter::adapters::map::Map<core::iter::adapters::map::Map<core::iter::sources::once::Once<proc_macro2::TokenStream>, [closure@<proc_macro2::TokenStream as core::iter::traits::collect::Extend<proc_macro2::TokenStream>>::extend<core::iter::sources::once::Once<proc_macro2::TokenStream>>::{closure#0}]>, fn(proc_macro2::imp::TokenStream) -> proc_macro::TokenStream {proc_macro2::imp::TokenStream::unwrap_nightly}>>"* %self to %"core::option::Option<core::iter::adapters::map::Map<core::iter::adapters::map::Map<core::iter::sources::once::Once<proc_macro2::TokenStream>, [closure@<proc_macro2::TokenStream as core::iter::traits::collect::Extend<proc_macro2::TokenStream>>::extend<core::iter::sources::once::Once<proc_macro2::TokenStream>>::{closure#0}]>, fn(proc_macro2::imp::TokenStream) -> proc_macro::TokenStream {proc_macro2::imp::TokenStream::unwrap_nightly}>>"*
  %29 = bitcast %"core::option::Option<core::iter::adapters::map::Map<core::iter::adapters::map::Map<core::iter::sources::once::Once<proc_macro2::TokenStream>, [closure@<proc_macro2::TokenStream as core::iter::traits::collect::Extend<proc_macro2::TokenStream>>::extend<core::iter::sources::once::Once<proc_macro2::TokenStream>>::{closure#0}]>, fn(proc_macro2::imp::TokenStream) -> proc_macro::TokenStream {proc_macro2::imp::TokenStream::unwrap_nightly}>>"* %28 to %"core::option::Option<core::iter::adapters::map::Map<core::iter::adapters::map::Map<core::iter::sources::once::Once<proc_macro2::TokenStream>, [closure@<proc_macro2::TokenStream as core::iter::traits::collect::Extend<proc_macro2::TokenStream>>::extend<core::iter::sources::once::Once<proc_macro2::TokenStream>>::{closure#0}]>, fn(proc_macro2::imp::TokenStream) -> proc_macro::TokenStream {proc_macro2::imp::TokenStream::unwrap_nightly}>>::Some"*
  %30 = bitcast %"core::option::Option<core::iter::adapters::map::Map<core::iter::adapters::map::Map<core::iter::sources::once::Once<proc_macro2::TokenStream>, [closure@<proc_macro2::TokenStream as core::iter::traits::collect::Extend<proc_macro2::TokenStream>>::extend<core::iter::sources::once::Once<proc_macro2::TokenStream>>::{closure#0}]>, fn(proc_macro2::imp::TokenStream) -> proc_macro::TokenStream {proc_macro2::imp::TokenStream::unwrap_nightly}>>::Some"* %29 to %"core::iter::adapters::map::Map<core::iter::adapters::map::Map<core::iter::sources::once::Once<proc_macro2::TokenStream>, [closure@<proc_macro2::TokenStream as core::iter::traits::collect::Extend<proc_macro2::TokenStream>>::extend<core::iter::sources::once::Once<proc_macro2::TokenStream>>::{closure#0}]>, fn(proc_macro2::imp::TokenStream) -> proc_macro::TokenStream {proc_macro2::imp::TokenStream::unwrap_nightly}>"*
  %31 = bitcast %"core::iter::adapters::map::Map<core::iter::adapters::map::Map<core::iter::sources::once::Once<proc_macro2::TokenStream>, [closure@<proc_macro2::TokenStream as core::iter::traits::collect::Extend<proc_macro2::TokenStream>>::extend<core::iter::sources::once::Once<proc_macro2::TokenStream>>::{closure#0}]>, fn(proc_macro2::imp::TokenStream) -> proc_macro::TokenStream {proc_macro2::imp::TokenStream::unwrap_nightly}>"* %b to i8*
  %32 = bitcast %"core::iter::adapters::map::Map<core::iter::adapters::map::Map<core::iter::sources::once::Once<proc_macro2::TokenStream>, [closure@<proc_macro2::TokenStream as core::iter::traits::collect::Extend<proc_macro2::TokenStream>>::extend<core::iter::sources::once::Once<proc_macro2::TokenStream>>::{closure#0}]>, fn(proc_macro2::imp::TokenStream) -> proc_macro::TokenStream {proc_macro2::imp::TokenStream::unwrap_nightly}>"* %30 to i8*
  call void @llvm.memcpy.p0i8.p0i8.i64(i8* align 8 %31, i8* align 8 %32, i64 40, i1 false)
  %33 = bitcast %"core::iter::adapters::map::Map<core::iter::adapters::map::Map<core::iter::sources::once::Once<proc_macro2::TokenStream>, [closure@<proc_macro2::TokenStream as core::iter::traits::collect::Extend<proc_macro2::TokenStream>>::extend<core::iter::sources::once::Once<proc_macro2::TokenStream>>::{closure#0}]>, fn(proc_macro2::imp::TokenStream) -> proc_macro::TokenStream {proc_macro2::imp::TokenStream::unwrap_nightly}>"* %_13 to i8*
  %34 = bitcast %"core::iter::adapters::map::Map<core::iter::adapters::map::Map<core::iter::sources::once::Once<proc_macro2::TokenStream>, [closure@<proc_macro2::TokenStream as core::iter::traits::collect::Extend<proc_macro2::TokenStream>>::extend<core::iter::sources::once::Once<proc_macro2::TokenStream>>::{closure#0}]>, fn(proc_macro2::imp::TokenStream) -> proc_macro::TokenStream {proc_macro2::imp::TokenStream::unwrap_nightly}>"* %b to i8*
  call void @llvm.memcpy.p0i8.p0i8.i64(i8* align 8 %33, i8* align 8 %34, i64 40, i1 false)
  store i8 0, i8* %_16, align 1
  %_15 = load i32*, i32** %f, align 8, !nonnull !5
; invoke <core::iter::adapters::map::Map<I,F> as core::iter::traits::iterator::Iterator>::fold
  invoke void @"_ZN102_$LT$core..iter..adapters..map..Map$LT$I$C$F$GT$$u20$as$u20$core..iter..traits..iterator..Iterator$GT$4fold17hf39c80fec14368aaE"(%"core::iter::adapters::map::Map<core::iter::adapters::map::Map<core::iter::sources::once::Once<proc_macro2::TokenStream>, [closure@<proc_macro2::TokenStream as core::iter::traits::collect::Extend<proc_macro2::TokenStream>>::extend<core::iter::sources::once::Once<proc_macro2::TokenStream>>::{closure#0}]>, fn(proc_macro2::imp::TokenStream) -> proc_macro::TokenStream {proc_macro2::imp::TokenStream::unwrap_nightly}>"* noalias nocapture dereferenceable(40) %_13, i32* align 4 dereferenceable(4) %_15)
          to label %bb5 unwind label %cleanup

bb6:                                              ; preds = %bb5, %bb3
  %35 = load i8, i8* %_16, align 1, !range !4
  %36 = trunc i8 %35 to i1
  br i1 %36, label %bb10, label %bb7

bb5:                                              ; preds = %bb4
  br label %bb6

bb8:                                              ; preds = %bb20, %bb21
  %37 = getelementptr inbounds %"core::iter::adapters::chain::Chain<core::iter::sources::once::Once<proc_macro::TokenStream>, core::iter::adapters::map::Map<core::iter::adapters::map::Map<core::iter::sources::once::Once<proc_macro2::TokenStream>, [closure@<proc_macro2::TokenStream as core::iter::traits::collect::Extend<proc_macro2::TokenStream>>::extend<core::iter::sources::once::Once<proc_macro2::TokenStream>>::{closure#0}]>, fn(proc_macro2::imp::TokenStream) -> proc_macro::TokenStream {proc_macro2::imp::TokenStream::unwrap_nightly}>>", %"core::iter::adapters::chain::Chain<core::iter::sources::once::Once<proc_macro::TokenStream>, core::iter::adapters::map::Map<core::iter::adapters::map::Map<core::iter::sources::once::Once<proc_macro2::TokenStream>, [closure@<proc_macro2::TokenStream as core::iter::traits::collect::Extend<proc_macro2::TokenStream>>::extend<core::iter::sources::once::Once<proc_macro2::TokenStream>>::{closure#0}]>, fn(proc_macro2::imp::TokenStream) -> proc_macro::TokenStream {proc_macro2::imp::TokenStream::unwrap_nightly}>>"* %self, i32 0, i32 1
  %38 = bitcast %"core::option::Option<core::iter::sources::once::Once<proc_macro::TokenStream>>"* %37 to i32*
  %39 = load i32, i32* %38, align 8, !range !6
  %_23 = zext i32 %39 to i64
  %40 = icmp eq i64 %_23, 1
  br i1 %40, label %bb25, label %bb22

bb20:                                             ; preds = %bb21
  br label %bb8

bb7:                                              ; preds = %bb10, %bb6
  %41 = getelementptr inbounds %"core::iter::adapters::chain::Chain<core::iter::sources::once::Once<proc_macro::TokenStream>, core::iter::adapters::map::Map<core::iter::adapters::map::Map<core::iter::sources::once::Once<proc_macro2::TokenStream>, [closure@<proc_macro2::TokenStream as core::iter::traits::collect::Extend<proc_macro2::TokenStream>>::extend<core::iter::sources::once::Once<proc_macro2::TokenStream>>::{closure#0}]>, fn(proc_macro2::imp::TokenStream) -> proc_macro::TokenStream {proc_macro2::imp::TokenStream::unwrap_nightly}>>", %"core::iter::adapters::chain::Chain<core::iter::sources::once::Once<proc_macro::TokenStream>, core::iter::adapters::map::Map<core::iter::adapters::map::Map<core::iter::sources::once::Once<proc_macro2::TokenStream>, [closure@<proc_macro2::TokenStream as core::iter::traits::collect::Extend<proc_macro2::TokenStream>>::extend<core::iter::sources::once::Once<proc_macro2::TokenStream>>::{closure#0}]>, fn(proc_macro2::imp::TokenStream) -> proc_macro::TokenStream {proc_macro2::imp::TokenStream::unwrap_nightly}>>"* %self, i32 0, i32 1
  %42 = bitcast %"core::option::Option<core::iter::sources::once::Once<proc_macro::TokenStream>>"* %41 to i32*
  %43 = load i32, i32* %42, align 8, !range !6
  %_21 = zext i32 %43 to i64
  %44 = icmp eq i64 %_21, 1
  br i1 %44, label %bb18, label %bb17

bb10:                                             ; preds = %bb6
  br label %bb7

bb25:                                             ; preds = %bb8
  %45 = load i8, i8* %_18, align 1, !range !4
  %46 = trunc i8 %45 to i1
  br i1 %46, label %bb26, label %bb22

bb22:                                             ; preds = %bb26, %bb25, %bb8
  %47 = bitcast %"core::iter::adapters::chain::Chain<core::iter::sources::once::Once<proc_macro::TokenStream>, core::iter::adapters::map::Map<core::iter::adapters::map::Map<core::iter::sources::once::Once<proc_macro2::TokenStream>, [closure@<proc_macro2::TokenStream as core::iter::traits::collect::Extend<proc_macro2::TokenStream>>::extend<core::iter::sources::once::Once<proc_macro2::TokenStream>>::{closure#0}]>, fn(proc_macro2::imp::TokenStream) -> proc_macro::TokenStream {proc_macro2::imp::TokenStream::unwrap_nightly}>>"* %self to %"core::option::Option<core::iter::adapters::map::Map<core::iter::adapters::map::Map<core::iter::sources::once::Once<proc_macro2::TokenStream>, [closure@<proc_macro2::TokenStream as core::iter::traits::collect::Extend<proc_macro2::TokenStream>>::extend<core::iter::sources::once::Once<proc_macro2::TokenStream>>::{closure#0}]>, fn(proc_macro2::imp::TokenStream) -> proc_macro::TokenStream {proc_macro2::imp::TokenStream::unwrap_nightly}>>"*
  %48 = bitcast %"core::option::Option<core::iter::adapters::map::Map<core::iter::adapters::map::Map<core::iter::sources::once::Once<proc_macro2::TokenStream>, [closure@<proc_macro2::TokenStream as core::iter::traits::collect::Extend<proc_macro2::TokenStream>>::extend<core::iter::sources::once::Once<proc_macro2::TokenStream>>::{closure#0}]>, fn(proc_macro2::imp::TokenStream) -> proc_macro::TokenStream {proc_macro2::imp::TokenStream::unwrap_nightly}>>"* %47 to i64*
  %49 = load i64, i64* %48, align 8, !range !2
  %50 = sub i64 %49, 3
  %51 = icmp eq i64 %50, 0
  %_22 = select i1 %51, i64 0, i64 1
  %52 = icmp eq i64 %_22, 1
  br i1 %52, label %bb23, label %bb9

bb26:                                             ; preds = %bb25
  %53 = getelementptr inbounds %"core::iter::adapters::chain::Chain<core::iter::sources::once::Once<proc_macro::TokenStream>, core::iter::adapters::map::Map<core::iter::adapters::map::Map<core::iter::sources::once::Once<proc_macro2::TokenStream>, [closure@<proc_macro2::TokenStream as core::iter::traits::collect::Extend<proc_macro2::TokenStream>>::extend<core::iter::sources::once::Once<proc_macro2::TokenStream>>::{closure#0}]>, fn(proc_macro2::imp::TokenStream) -> proc_macro::TokenStream {proc_macro2::imp::TokenStream::unwrap_nightly}>>", %"core::iter::adapters::chain::Chain<core::iter::sources::once::Once<proc_macro::TokenStream>, core::iter::adapters::map::Map<core::iter::adapters::map::Map<core::iter::sources::once::Once<proc_macro2::TokenStream>, [closure@<proc_macro2::TokenStream as core::iter::traits::collect::Extend<proc_macro2::TokenStream>>::extend<core::iter::sources::once::Once<proc_macro2::TokenStream>>::{closure#0}]>, fn(proc_macro2::imp::TokenStream) -> proc_macro::TokenStream {proc_macro2::imp::TokenStream::unwrap_nightly}>>"* %self, i32 0, i32 1
  %54 = bitcast %"core::option::Option<core::iter::sources::once::Once<proc_macro::TokenStream>>"* %53 to %"core::option::Option<core::iter::sources::once::Once<proc_macro::TokenStream>>::Some"*
  %55 = getelementptr inbounds %"core::option::Option<core::iter::sources::once::Once<proc_macro::TokenStream>>::Some", %"core::option::Option<core::iter::sources::once::Once<proc_macro::TokenStream>>::Some"* %54, i32 0, i32 1
; call core::ptr::drop_in_place<core::iter::sources::once::Once<proc_macro::TokenStream>>
  call void @"_ZN4core3ptr83drop_in_place$LT$core..iter..sources..once..Once$LT$proc_macro..TokenStream$GT$$GT$17h570fc2ba36075531E"(%"core::iter::sources::once::Once<proc_macro::TokenStream>"* %55) #10
  br label %bb22

bb23:                                             ; preds = %bb22
  %56 = load i8, i8* %_17, align 1, !range !4
  %57 = trunc i8 %56 to i1
  br i1 %57, label %bb24, label %bb9

bb9:                                              ; preds = %bb13, %bb12, %bb11, %bb24, %bb23, %bb22
  %58 = bitcast { i8*, i32 }* %1 to i8**
  %59 = load i8*, i8** %58, align 8
  %60 = getelementptr inbounds { i8*, i32 }, { i8*, i32 }* %1, i32 0, i32 1
  %61 = load i32, i32* %60, align 8
  %62 = insertvalue { i8*, i32 } undef, i8* %59, 0
  %63 = insertvalue { i8*, i32 } %62, i32 %61, 1
  resume { i8*, i32 } %63

bb24:                                             ; preds = %bb23
  %64 = bitcast %"core::iter::adapters::chain::Chain<core::iter::sources::once::Once<proc_macro::TokenStream>, core::iter::adapters::map::Map<core::iter::adapters::map::Map<core::iter::sources::once::Once<proc_macro2::TokenStream>, [closure@<proc_macro2::TokenStream as core::iter::traits::collect::Extend<proc_macro2::TokenStream>>::extend<core::iter::sources::once::Once<proc_macro2::TokenStream>>::{closure#0}]>, fn(proc_macro2::imp::TokenStream) -> proc_macro::TokenStream {proc_macro2::imp::TokenStream::unwrap_nightly}>>"* %self to %"core::option::Option<core::iter::adapters::map::Map<core::iter::adapters::map::Map<core::iter::sources::once::Once<proc_macro2::TokenStream>, [closure@<proc_macro2::TokenStream as core::iter::traits::collect::Extend<proc_macro2::TokenStream>>::extend<core::iter::sources::once::Once<proc_macro2::TokenStream>>::{closure#0}]>, fn(proc_macro2::imp::TokenStream) -> proc_macro::TokenStream {proc_macro2::imp::TokenStream::unwrap_nightly}>>"*
  %65 = bitcast %"core::option::Option<core::iter::adapters::map::Map<core::iter::adapters::map::Map<core::iter::sources::once::Once<proc_macro2::TokenStream>, [closure@<proc_macro2::TokenStream as core::iter::traits::collect::Extend<proc_macro2::TokenStream>>::extend<core::iter::sources::once::Once<proc_macro2::TokenStream>>::{closure#0}]>, fn(proc_macro2::imp::TokenStream) -> proc_macro::TokenStream {proc_macro2::imp::TokenStream::unwrap_nightly}>>"* %64 to %"core::option::Option<core::iter::adapters::map::Map<core::iter::adapters::map::Map<core::iter::sources::once::Once<proc_macro2::TokenStream>, [closure@<proc_macro2::TokenStream as core::iter::traits::collect::Extend<proc_macro2::TokenStream>>::extend<core::iter::sources::once::Once<proc_macro2::TokenStream>>::{closure#0}]>, fn(proc_macro2::imp::TokenStream) -> proc_macro::TokenStream {proc_macro2::imp::TokenStream::unwrap_nightly}>>::Some"*
  %66 = bitcast %"core::option::Option<core::iter::adapters::map::Map<core::iter::adapters::map::Map<core::iter::sources::once::Once<proc_macro2::TokenStream>, [closure@<proc_macro2::TokenStream as core::iter::traits::collect::Extend<proc_macro2::TokenStream>>::extend<core::iter::sources::once::Once<proc_macro2::TokenStream>>::{closure#0}]>, fn(proc_macro2::imp::TokenStream) -> proc_macro::TokenStream {proc_macro2::imp::TokenStream::unwrap_nightly}>>::Some"* %65 to %"core::iter::adapters::map::Map<core::iter::adapters::map::Map<core::iter::sources::once::Once<proc_macro2::TokenStream>, [closure@<proc_macro2::TokenStream as core::iter::traits::collect::Extend<proc_macro2::TokenStream>>::extend<core::iter::sources::once::Once<proc_macro2::TokenStream>>::{closure#0}]>, fn(proc_macro2::imp::TokenStream) -> proc_macro::TokenStream {proc_macro2::imp::TokenStream::unwrap_nightly}>"*
; call core::ptr::drop_in_place<core::iter::adapters::map::Map<core::iter::adapters::map::Map<core::iter::sources::once::Once<proc_macro2::TokenStream>,<proc_macro2::TokenStream as core::iter::traits::collect::Extend<proc_macro2::TokenStream>>::extend<core::iter::sources::once::Once<proc_macro2::TokenStream>>::{{closure}}>,proc_macro2::imp::TokenStream::unwrap_nightly>>
  call void @"_ZN4core3ptr430drop_in_place$LT$core..iter..adapters..map..Map$LT$core..iter..adapters..map..Map$LT$core..iter..sources..once..Once$LT$proc_macro2..TokenStream$GT$$C$$LT$proc_macro2..TokenStream$u20$as$u20$core..iter..traits..collect..Extend$LT$proc_macro2..TokenStream$GT$$GT$..extend$LT$core..iter..sources..once..Once$LT$proc_macro2..TokenStream$GT$$GT$..$u7b$$u7b$closure$u7d$$u7d$$GT$$C$proc_macro2..imp..TokenStream..unwrap_nightly$GT$$GT$17h2e438e5e2c57a71dE"(%"core::iter::adapters::map::Map<core::iter::adapters::map::Map<core::iter::sources::once::Once<proc_macro2::TokenStream>, [closure@<proc_macro2::TokenStream as core::iter::traits::collect::Extend<proc_macro2::TokenStream>>::extend<core::iter::sources::once::Once<proc_macro2::TokenStream>>::{closure#0}]>, fn(proc_macro2::imp::TokenStream) -> proc_macro::TokenStream {proc_macro2::imp::TokenStream::unwrap_nightly}>"* %66) #10
  br label %bb9

bb18:                                             ; preds = %bb7
  %67 = load i8, i8* %_18, align 1, !range !4
  %68 = trunc i8 %67 to i1
  br i1 %68, label %bb19, label %bb17

bb17:                                             ; preds = %bb19, %bb18, %bb7
  %69 = bitcast %"core::iter::adapters::chain::Chain<core::iter::sources::once::Once<proc_macro::TokenStream>, core::iter::adapters::map::Map<core::iter::adapters::map::Map<core::iter::sources::once::Once<proc_macro2::TokenStream>, [closure@<proc_macro2::TokenStream as core::iter::traits::collect::Extend<proc_macro2::TokenStream>>::extend<core::iter::sources::once::Once<proc_macro2::TokenStream>>::{closure#0}]>, fn(proc_macro2::imp::TokenStream) -> proc_macro::TokenStream {proc_macro2::imp::TokenStream::unwrap_nightly}>>"* %self to %"core::option::Option<core::iter::adapters::map::Map<core::iter::adapters::map::Map<core::iter::sources::once::Once<proc_macro2::TokenStream>, [closure@<proc_macro2::TokenStream as core::iter::traits::collect::Extend<proc_macro2::TokenStream>>::extend<core::iter::sources::once::Once<proc_macro2::TokenStream>>::{closure#0}]>, fn(proc_macro2::imp::TokenStream) -> proc_macro::TokenStream {proc_macro2::imp::TokenStream::unwrap_nightly}>>"*
  %70 = bitcast %"core::option::Option<core::iter::adapters::map::Map<core::iter::adapters::map::Map<core::iter::sources::once::Once<proc_macro2::TokenStream>, [closure@<proc_macro2::TokenStream as core::iter::traits::collect::Extend<proc_macro2::TokenStream>>::extend<core::iter::sources::once::Once<proc_macro2::TokenStream>>::{closure#0}]>, fn(proc_macro2::imp::TokenStream) -> proc_macro::TokenStream {proc_macro2::imp::TokenStream::unwrap_nightly}>>"* %69 to i64*
  %71 = load i64, i64* %70, align 8, !range !2
  %72 = sub i64 %71, 3
  %73 = icmp eq i64 %72, 0
  %_20 = select i1 %73, i64 0, i64 1
  %74 = icmp eq i64 %_20, 1
  br i1 %74, label %bb15, label %bb14

bb19:                                             ; preds = %bb18
  %75 = getelementptr inbounds %"core::iter::adapters::chain::Chain<core::iter::sources::once::Once<proc_macro::TokenStream>, core::iter::adapters::map::Map<core::iter::adapters::map::Map<core::iter::sources::once::Once<proc_macro2::TokenStream>, [closure@<proc_macro2::TokenStream as core::iter::traits::collect::Extend<proc_macro2::TokenStream>>::extend<core::iter::sources::once::Once<proc_macro2::TokenStream>>::{closure#0}]>, fn(proc_macro2::imp::TokenStream) -> proc_macro::TokenStream {proc_macro2::imp::TokenStream::unwrap_nightly}>>", %"core::iter::adapters::chain::Chain<core::iter::sources::once::Once<proc_macro::TokenStream>, core::iter::adapters::map::Map<core::iter::adapters::map::Map<core::iter::sources::once::Once<proc_macro2::TokenStream>, [closure@<proc_macro2::TokenStream as core::iter::traits::collect::Extend<proc_macro2::TokenStream>>::extend<core::iter::sources::once::Once<proc_macro2::TokenStream>>::{closure#0}]>, fn(proc_macro2::imp::TokenStream) -> proc_macro::TokenStream {proc_macro2::imp::TokenStream::unwrap_nightly}>>"* %self, i32 0, i32 1
  %76 = bitcast %"core::option::Option<core::iter::sources::once::Once<proc_macro::TokenStream>>"* %75 to %"core::option::Option<core::iter::sources::once::Once<proc_macro::TokenStream>>::Some"*
  %77 = getelementptr inbounds %"core::option::Option<core::iter::sources::once::Once<proc_macro::TokenStream>>::Some", %"core::option::Option<core::iter::sources::once::Once<proc_macro::TokenStream>>::Some"* %76, i32 0, i32 1
; invoke core::ptr::drop_in_place<core::iter::sources::once::Once<proc_macro::TokenStream>>
  invoke void @"_ZN4core3ptr83drop_in_place$LT$core..iter..sources..once..Once$LT$proc_macro..TokenStream$GT$$GT$17h570fc2ba36075531E"(%"core::iter::sources::once::Once<proc_macro::TokenStream>"* %77)
          to label %bb17 unwind label %cleanup1

bb11:                                             ; preds = %cleanup1
  %78 = bitcast %"core::iter::adapters::chain::Chain<core::iter::sources::once::Once<proc_macro::TokenStream>, core::iter::adapters::map::Map<core::iter::adapters::map::Map<core::iter::sources::once::Once<proc_macro2::TokenStream>, [closure@<proc_macro2::TokenStream as core::iter::traits::collect::Extend<proc_macro2::TokenStream>>::extend<core::iter::sources::once::Once<proc_macro2::TokenStream>>::{closure#0}]>, fn(proc_macro2::imp::TokenStream) -> proc_macro::TokenStream {proc_macro2::imp::TokenStream::unwrap_nightly}>>"* %self to %"core::option::Option<core::iter::adapters::map::Map<core::iter::adapters::map::Map<core::iter::sources::once::Once<proc_macro2::TokenStream>, [closure@<proc_macro2::TokenStream as core::iter::traits::collect::Extend<proc_macro2::TokenStream>>::extend<core::iter::sources::once::Once<proc_macro2::TokenStream>>::{closure#0}]>, fn(proc_macro2::imp::TokenStream) -> proc_macro::TokenStream {proc_macro2::imp::TokenStream::unwrap_nightly}>>"*
  %79 = bitcast %"core::option::Option<core::iter::adapters::map::Map<core::iter::adapters::map::Map<core::iter::sources::once::Once<proc_macro2::TokenStream>, [closure@<proc_macro2::TokenStream as core::iter::traits::collect::Extend<proc_macro2::TokenStream>>::extend<core::iter::sources::once::Once<proc_macro2::TokenStream>>::{closure#0}]>, fn(proc_macro2::imp::TokenStream) -> proc_macro::TokenStream {proc_macro2::imp::TokenStream::unwrap_nightly}>>"* %78 to i64*
  %80 = load i64, i64* %79, align 8, !range !2
  %81 = sub i64 %80, 3
  %82 = icmp eq i64 %81, 0
  %_19 = select i1 %82, i64 0, i64 1
  %83 = icmp eq i64 %_19, 1
  br i1 %83, label %bb12, label %bb9

cleanup1:                                         ; preds = %bb19
  %84 = landingpad { i8*, i32 }
          cleanup
  %85 = extractvalue { i8*, i32 } %84, 0
  %86 = extractvalue { i8*, i32 } %84, 1
  %87 = getelementptr inbounds { i8*, i32 }, { i8*, i32 }* %1, i32 0, i32 0
  store i8* %85, i8** %87, align 8
  %88 = getelementptr inbounds { i8*, i32 }, { i8*, i32 }* %1, i32 0, i32 1
  store i32 %86, i32* %88, align 8
  br label %bb11

bb12:                                             ; preds = %bb11
  %89 = load i8, i8* %_17, align 1, !range !4
  %90 = trunc i8 %89 to i1
  br i1 %90, label %bb13, label %bb9

bb13:                                             ; preds = %bb12
  %91 = bitcast %"core::iter::adapters::chain::Chain<core::iter::sources::once::Once<proc_macro::TokenStream>, core::iter::adapters::map::Map<core::iter::adapters::map::Map<core::iter::sources::once::Once<proc_macro2::TokenStream>, [closure@<proc_macro2::TokenStream as core::iter::traits::collect::Extend<proc_macro2::TokenStream>>::extend<core::iter::sources::once::Once<proc_macro2::TokenStream>>::{closure#0}]>, fn(proc_macro2::imp::TokenStream) -> proc_macro::TokenStream {proc_macro2::imp::TokenStream::unwrap_nightly}>>"* %self to %"core::option::Option<core::iter::adapters::map::Map<core::iter::adapters::map::Map<core::iter::sources::once::Once<proc_macro2::TokenStream>, [closure@<proc_macro2::TokenStream as core::iter::traits::collect::Extend<proc_macro2::TokenStream>>::extend<core::iter::sources::once::Once<proc_macro2::TokenStream>>::{closure#0}]>, fn(proc_macro2::imp::TokenStream) -> proc_macro::TokenStream {proc_macro2::imp::TokenStream::unwrap_nightly}>>"*
  %92 = bitcast %"core::option::Option<core::iter::adapters::map::Map<core::iter::adapters::map::Map<core::iter::sources::once::Once<proc_macro2::TokenStream>, [closure@<proc_macro2::TokenStream as core::iter::traits::collect::Extend<proc_macro2::TokenStream>>::extend<core::iter::sources::once::Once<proc_macro2::TokenStream>>::{closure#0}]>, fn(proc_macro2::imp::TokenStream) -> proc_macro::TokenStream {proc_macro2::imp::TokenStream::unwrap_nightly}>>"* %91 to %"core::option::Option<core::iter::adapters::map::Map<core::iter::adapters::map::Map<core::iter::sources::once::Once<proc_macro2::TokenStream>, [closure@<proc_macro2::TokenStream as core::iter::traits::collect::Extend<proc_macro2::TokenStream>>::extend<core::iter::sources::once::Once<proc_macro2::TokenStream>>::{closure#0}]>, fn(proc_macro2::imp::TokenStream) -> proc_macro::TokenStream {proc_macro2::imp::TokenStream::unwrap_nightly}>>::Some"*
  %93 = bitcast %"core::option::Option<core::iter::adapters::map::Map<core::iter::adapters::map::Map<core::iter::sources::once::Once<proc_macro2::TokenStream>, [closure@<proc_macro2::TokenStream as core::iter::traits::collect::Extend<proc_macro2::TokenStream>>::extend<core::iter::sources::once::Once<proc_macro2::TokenStream>>::{closure#0}]>, fn(proc_macro2::imp::TokenStream) -> proc_macro::TokenStream {proc_macro2::imp::TokenStream::unwrap_nightly}>>::Some"* %92 to %"core::iter::adapters::map::Map<core::iter::adapters::map::Map<core::iter::sources::once::Once<proc_macro2::TokenStream>, [closure@<proc_macro2::TokenStream as core::iter::traits::collect::Extend<proc_macro2::TokenStream>>::extend<core::iter::sources::once::Once<proc_macro2::TokenStream>>::{closure#0}]>, fn(proc_macro2::imp::TokenStream) -> proc_macro::TokenStream {proc_macro2::imp::TokenStream::unwrap_nightly}>"*
; call core::ptr::drop_in_place<core::iter::adapters::map::Map<core::iter::adapters::map::Map<core::iter::sources::once::Once<proc_macro2::TokenStream>,<proc_macro2::TokenStream as core::iter::traits::collect::Extend<proc_macro2::TokenStream>>::extend<core::iter::sources::once::Once<proc_macro2::TokenStream>>::{{closure}}>,proc_macro2::imp::TokenStream::unwrap_nightly>>
  call void @"_ZN4core3ptr430drop_in_place$LT$core..iter..adapters..map..Map$LT$core..iter..adapters..map..Map$LT$core..iter..sources..once..Once$LT$proc_macro2..TokenStream$GT$$C$$LT$proc_macro2..TokenStream$u20$as$u20$core..iter..traits..collect..Extend$LT$proc_macro2..TokenStream$GT$$GT$..extend$LT$core..iter..sources..once..Once$LT$proc_macro2..TokenStream$GT$$GT$..$u7b$$u7b$closure$u7d$$u7d$$GT$$C$proc_macro2..imp..TokenStream..unwrap_nightly$GT$$GT$17h2e438e5e2c57a71dE"(%"core::iter::adapters::map::Map<core::iter::adapters::map::Map<core::iter::sources::once::Once<proc_macro2::TokenStream>, [closure@<proc_macro2::TokenStream as core::iter::traits::collect::Extend<proc_macro2::TokenStream>>::extend<core::iter::sources::once::Once<proc_macro2::TokenStream>>::{closure#0}]>, fn(proc_macro2::imp::TokenStream) -> proc_macro::TokenStream {proc_macro2::imp::TokenStream::unwrap_nightly}>"* %93) #10
  br label %bb9

bb15:                                             ; preds = %bb17
  %94 = load i8, i8* %_17, align 1, !range !4
  %95 = trunc i8 %94 to i1
  br i1 %95, label %bb16, label %bb14

bb14:                                             ; preds = %bb16, %bb15, %bb17
  ret void

bb16:                                             ; preds = %bb15
  %96 = bitcast %"core::iter::adapters::chain::Chain<core::iter::sources::once::Once<proc_macro::TokenStream>, core::iter::adapters::map::Map<core::iter::adapters::map::Map<core::iter::sources::once::Once<proc_macro2::TokenStream>, [closure@<proc_macro2::TokenStream as core::iter::traits::collect::Extend<proc_macro2::TokenStream>>::extend<core::iter::sources::once::Once<proc_macro2::TokenStream>>::{closure#0}]>, fn(proc_macro2::imp::TokenStream) -> proc_macro::TokenStream {proc_macro2::imp::TokenStream::unwrap_nightly}>>"* %self to %"core::option::Option<core::iter::adapters::map::Map<core::iter::adapters::map::Map<core::iter::sources::once::Once<proc_macro2::TokenStream>, [closure@<proc_macro2::TokenStream as core::iter::traits::collect::Extend<proc_macro2::TokenStream>>::extend<core::iter::sources::once::Once<proc_macro2::TokenStream>>::{closure#0}]>, fn(proc_macro2::imp::TokenStream) -> proc_macro::TokenStream {proc_macro2::imp::TokenStream::unwrap_nightly}>>"*
  %97 = bitcast %"core::option::Option<core::iter::adapters::map::Map<core::iter::adapters::map::Map<core::iter::sources::once::Once<proc_macro2::TokenStream>, [closure@<proc_macro2::TokenStream as core::iter::traits::collect::Extend<proc_macro2::TokenStream>>::extend<core::iter::sources::once::Once<proc_macro2::TokenStream>>::{closure#0}]>, fn(proc_macro2::imp::TokenStream) -> proc_macro::TokenStream {proc_macro2::imp::TokenStream::unwrap_nightly}>>"* %96 to %"core::option::Option<core::iter::adapters::map::Map<core::iter::adapters::map::Map<core::iter::sources::once::Once<proc_macro2::TokenStream>, [closure@<proc_macro2::TokenStream as core::iter::traits::collect::Extend<proc_macro2::TokenStream>>::extend<core::iter::sources::once::Once<proc_macro2::TokenStream>>::{closure#0}]>, fn(proc_macro2::imp::TokenStream) -> proc_macro::TokenStream {proc_macro2::imp::TokenStream::unwrap_nightly}>>::Some"*
  %98 = bitcast %"core::option::Option<core::iter::adapters::map::Map<core::iter::adapters::map::Map<core::iter::sources::once::Once<proc_macro2::TokenStream>, [closure@<proc_macro2::TokenStream as core::iter::traits::collect::Extend<proc_macro2::TokenStream>>::extend<core::iter::sources::once::Once<proc_macro2::TokenStream>>::{closure#0}]>, fn(proc_macro2::imp::TokenStream) -> proc_macro::TokenStream {proc_macro2::imp::TokenStream::unwrap_nightly}>>::Some"* %97 to %"core::iter::adapters::map::Map<core::iter::adapters::map::Map<core::iter::sources::once::Once<proc_macro2::TokenStream>, [closure@<proc_macro2::TokenStream as core::iter::traits::collect::Extend<proc_macro2::TokenStream>>::extend<core::iter::sources::once::Once<proc_macro2::TokenStream>>::{closure#0}]>, fn(proc_macro2::imp::TokenStream) -> proc_macro::TokenStream {proc_macro2::imp::TokenStream::unwrap_nightly}>"*
; call core::ptr::drop_in_place<core::iter::adapters::map::Map<core::iter::adapters::map::Map<core::iter::sources::once::Once<proc_macro2::TokenStream>,<proc_macro2::TokenStream as core::iter::traits::collect::Extend<proc_macro2::TokenStream>>::extend<core::iter::sources::once::Once<proc_macro2::TokenStream>>::{{closure}}>,proc_macro2::imp::TokenStream::unwrap_nightly>>
  call void @"_ZN4core3ptr430drop_in_place$LT$core..iter..adapters..map..Map$LT$core..iter..adapters..map..Map$LT$core..iter..sources..once..Once$LT$proc_macro2..TokenStream$GT$$C$$LT$proc_macro2..TokenStream$u20$as$u20$core..iter..traits..collect..Extend$LT$proc_macro2..TokenStream$GT$$GT$..extend$LT$core..iter..sources..once..Once$LT$proc_macro2..TokenStream$GT$$GT$..$u7b$$u7b$closure$u7d$$u7d$$GT$$C$proc_macro2..imp..TokenStream..unwrap_nightly$GT$$GT$17h2e438e5e2c57a71dE"(%"core::iter::adapters::map::Map<core::iter::adapters::map::Map<core::iter::sources::once::Once<proc_macro2::TokenStream>, [closure@<proc_macro2::TokenStream as core::iter::traits::collect::Extend<proc_macro2::TokenStream>>::extend<core::iter::sources::once::Once<proc_macro2::TokenStream>>::{closure#0}]>, fn(proc_macro2::imp::TokenStream) -> proc_macro::TokenStream {proc_macro2::imp::TokenStream::unwrap_nightly}>"* %98)
  br label %bb14
}

; <core::iter::adapters::flatten::Flatten<I> as core::iter::traits::iterator::Iterator>::next
; Function Attrs: inlinehint nonlazybind uwtable
define void @"_ZN106_$LT$core..iter..adapters..flatten..Flatten$LT$I$GT$$u20$as$u20$core..iter..traits..iterator..Iterator$GT$4next17hc54c474c30e8baf4E"(%"core::option::Option<proc_macro2::TokenTree>"* noalias nocapture sret(%"core::option::Option<proc_macro2::TokenTree>") dereferenceable(48) %0, %"core::iter::adapters::flatten::Flatten<core::iter::adapters::map::Map<core::iter::adapters::map::Map<core::iter::sources::once::Once<proc_macro2::TokenStream>, [closure@<proc_macro2::TokenStream as core::iter::traits::collect::Extend<proc_macro2::TokenStream>>::extend<core::iter::sources::once::Once<proc_macro2::TokenStream>>::{closure#0}]>, fn(proc_macro2::imp::TokenStream) -> proc_macro2::fallback::TokenStream {proc_macro2::imp::TokenStream::unwrap_stable}>>"* align 8 dereferenceable(104) %self) unnamed_addr #0 {
start:
  %_2 = bitcast %"core::iter::adapters::flatten::Flatten<core::iter::adapters::map::Map<core::iter::adapters::map::Map<core::iter::sources::once::Once<proc_macro2::TokenStream>, [closure@<proc_macro2::TokenStream as core::iter::traits::collect::Extend<proc_macro2::TokenStream>>::extend<core::iter::sources::once::Once<proc_macro2::TokenStream>>::{closure#0}]>, fn(proc_macro2::imp::TokenStream) -> proc_macro2::fallback::TokenStream {proc_macro2::imp::TokenStream::unwrap_stable}>>"* %self to %"core::iter::adapters::flatten::FlattenCompat<core::iter::adapters::map::Map<core::iter::adapters::map::Map<core::iter::sources::once::Once<proc_macro2::TokenStream>, [closure@<proc_macro2::TokenStream as core::iter::traits::collect::Extend<proc_macro2::TokenStream>>::extend<core::iter::sources::once::Once<proc_macro2::TokenStream>>::{closure#0}]>, fn(proc_macro2::imp::TokenStream) -> proc_macro2::fallback::TokenStream {proc_macro2::imp::TokenStream::unwrap_stable}>, alloc::vec::into_iter::IntoIter<proc_macro2::TokenTree>>"*
; call <core::iter::adapters::flatten::FlattenCompat<I,U> as core::iter::traits::iterator::Iterator>::next
  call void @"_ZN116_$LT$core..iter..adapters..flatten..FlattenCompat$LT$I$C$U$GT$$u20$as$u20$core..iter..traits..iterator..Iterator$GT$4next17h5e6fc043195880f2E"(%"core::option::Option<proc_macro2::TokenTree>"* noalias nocapture sret(%"core::option::Option<proc_macro2::TokenTree>") dereferenceable(48) %0, %"core::iter::adapters::flatten::FlattenCompat<core::iter::adapters::map::Map<core::iter::adapters::map::Map<core::iter::sources::once::Once<proc_macro2::TokenStream>, [closure@<proc_macro2::TokenStream as core::iter::traits::collect::Extend<proc_macro2::TokenStream>>::extend<core::iter::sources::once::Once<proc_macro2::TokenStream>>::{closure#0}]>, fn(proc_macro2::imp::TokenStream) -> proc_macro2::fallback::TokenStream {proc_macro2::imp::TokenStream::unwrap_stable}>, alloc::vec::into_iter::IntoIter<proc_macro2::TokenTree>>"* align 8 dereferenceable(104) %_2)
  br label %bb1

bb1:                                              ; preds = %start
  ret void
}

; <core::iter::adapters::flatten::Flatten<I> as core::iter::traits::iterator::Iterator>::size_hint
; Function Attrs: inlinehint nonlazybind uwtable
define void @"_ZN106_$LT$core..iter..adapters..flatten..Flatten$LT$I$GT$$u20$as$u20$core..iter..traits..iterator..Iterator$GT$9size_hint17hd8d3c7f9dd41d5dfE"({ i64, { i64, i64 } }* noalias nocapture sret({ i64, { i64, i64 } }) dereferenceable(24) %0, %"core::iter::adapters::flatten::Flatten<core::iter::adapters::map::Map<core::iter::adapters::map::Map<core::iter::sources::once::Once<proc_macro2::TokenStream>, [closure@<proc_macro2::TokenStream as core::iter::traits::collect::Extend<proc_macro2::TokenStream>>::extend<core::iter::sources::once::Once<proc_macro2::TokenStream>>::{closure#0}]>, fn(proc_macro2::imp::TokenStream) -> proc_macro2::fallback::TokenStream {proc_macro2::imp::TokenStream::unwrap_stable}>>"* align 8 dereferenceable(104) %self) unnamed_addr #0 {
start:
  %_2 = bitcast %"core::iter::adapters::flatten::Flatten<core::iter::adapters::map::Map<core::iter::adapters::map::Map<core::iter::sources::once::Once<proc_macro2::TokenStream>, [closure@<proc_macro2::TokenStream as core::iter::traits::collect::Extend<proc_macro2::TokenStream>>::extend<core::iter::sources::once::Once<proc_macro2::TokenStream>>::{closure#0}]>, fn(proc_macro2::imp::TokenStream) -> proc_macro2::fallback::TokenStream {proc_macro2::imp::TokenStream::unwrap_stable}>>"* %self to %"core::iter::adapters::flatten::FlattenCompat<core::iter::adapters::map::Map<core::iter::adapters::map::Map<core::iter::sources::once::Once<proc_macro2::TokenStream>, [closure@<proc_macro2::TokenStream as core::iter::traits::collect::Extend<proc_macro2::TokenStream>>::extend<core::iter::sources::once::Once<proc_macro2::TokenStream>>::{closure#0}]>, fn(proc_macro2::imp::TokenStream) -> proc_macro2::fallback::TokenStream {proc_macro2::imp::TokenStream::unwrap_stable}>, alloc::vec::into_iter::IntoIter<proc_macro2::TokenTree>>"*
; call <core::iter::adapters::flatten::FlattenCompat<I,U> as core::iter::traits::iterator::Iterator>::size_hint
  call void @"_ZN116_$LT$core..iter..adapters..flatten..FlattenCompat$LT$I$C$U$GT$$u20$as$u20$core..iter..traits..iterator..Iterator$GT$9size_hint17h608539ecab61e3a1E"({ i64, { i64, i64 } }* noalias nocapture sret({ i64, { i64, i64 } }) dereferenceable(24) %0, %"core::iter::adapters::flatten::FlattenCompat<core::iter::adapters::map::Map<core::iter::adapters::map::Map<core::iter::sources::once::Once<proc_macro2::TokenStream>, [closure@<proc_macro2::TokenStream as core::iter::traits::collect::Extend<proc_macro2::TokenStream>>::extend<core::iter::sources::once::Once<proc_macro2::TokenStream>>::{closure#0}]>, fn(proc_macro2::imp::TokenStream) -> proc_macro2::fallback::TokenStream {proc_macro2::imp::TokenStream::unwrap_stable}>, alloc::vec::into_iter::IntoIter<proc_macro2::TokenTree>>"* align 8 dereferenceable(104) %_2)
  br label %bb1

bb1:                                              ; preds = %start
  ret void
}

; <core::iter::adapters::fuse::Fuse<I> as core::iter::adapters::fuse::FuseImpl<I>>::next
; Function Attrs: inlinehint nonlazybind uwtable
define void @"_ZN107_$LT$core..iter..adapters..fuse..Fuse$LT$I$GT$$u20$as$u20$core..iter..adapters..fuse..FuseImpl$LT$I$GT$$GT$4next17ha98139a938bc4730E"(%"core::option::Option<proc_macro2::fallback::TokenStream>"* noalias nocapture sret(%"core::option::Option<proc_macro2::fallback::TokenStream>") dereferenceable(24) %0, %"core::iter::adapters::fuse::Fuse<core::iter::adapters::map::Map<core::iter::adapters::map::Map<core::iter::sources::once::Once<proc_macro2::TokenStream>, [closure@<proc_macro2::TokenStream as core::iter::traits::collect::Extend<proc_macro2::TokenStream>>::extend<core::iter::sources::once::Once<proc_macro2::TokenStream>>::{closure#0}]>, fn(proc_macro2::imp::TokenStream) -> proc_macro2::fallback::TokenStream {proc_macro2::imp::TokenStream::unwrap_stable}>>"* align 8 dereferenceable(40) %self) unnamed_addr #0 {
start:
  %1 = bitcast %"core::iter::adapters::fuse::Fuse<core::iter::adapters::map::Map<core::iter::adapters::map::Map<core::iter::sources::once::Once<proc_macro2::TokenStream>, [closure@<proc_macro2::TokenStream as core::iter::traits::collect::Extend<proc_macro2::TokenStream>>::extend<core::iter::sources::once::Once<proc_macro2::TokenStream>>::{closure#0}]>, fn(proc_macro2::imp::TokenStream) -> proc_macro2::fallback::TokenStream {proc_macro2::imp::TokenStream::unwrap_stable}>>"* %self to %"core::option::Option<core::iter::adapters::map::Map<core::iter::adapters::map::Map<core::iter::sources::once::Once<proc_macro2::TokenStream>, [closure@<proc_macro2::TokenStream as core::iter::traits::collect::Extend<proc_macro2::TokenStream>>::extend<core::iter::sources::once::Once<proc_macro2::TokenStream>>::{closure#0}]>, fn(proc_macro2::imp::TokenStream) -> proc_macro2::fallback::TokenStream {proc_macro2::imp::TokenStream::unwrap_stable}>>"*
  %2 = bitcast %"core::option::Option<core::iter::adapters::map::Map<core::iter::adapters::map::Map<core::iter::sources::once::Once<proc_macro2::TokenStream>, [closure@<proc_macro2::TokenStream as core::iter::traits::collect::Extend<proc_macro2::TokenStream>>::extend<core::iter::sources::once::Once<proc_macro2::TokenStream>>::{closure#0}]>, fn(proc_macro2::imp::TokenStream) -> proc_macro2::fallback::TokenStream {proc_macro2::imp::TokenStream::unwrap_stable}>>"* %1 to i64*
  %3 = load i64, i64* %2, align 8, !range !2
  %4 = sub i64 %3, 3
  %5 = icmp eq i64 %4, 0
  %_2 = select i1 %5, i64 0, i64 1
  switch i64 %_2, label %bb2 [
    i64 0, label %bb1
    i64 1, label %bb3
  ]

bb2:                                              ; preds = %start
  unreachable

bb1:                                              ; preds = %start
  %6 = bitcast %"core::option::Option<proc_macro2::fallback::TokenStream>"* %0 to {}**
  store {}* null, {}** %6, align 8
  br label %bb5

bb3:                                              ; preds = %start
  %7 = bitcast %"core::iter::adapters::fuse::Fuse<core::iter::adapters::map::Map<core::iter::adapters::map::Map<core::iter::sources::once::Once<proc_macro2::TokenStream>, [closure@<proc_macro2::TokenStream as core::iter::traits::collect::Extend<proc_macro2::TokenStream>>::extend<core::iter::sources::once::Once<proc_macro2::TokenStream>>::{closure#0}]>, fn(proc_macro2::imp::TokenStream) -> proc_macro2::fallback::TokenStream {proc_macro2::imp::TokenStream::unwrap_stable}>>"* %self to %"core::option::Option<core::iter::adapters::map::Map<core::iter::adapters::map::Map<core::iter::sources::once::Once<proc_macro2::TokenStream>, [closure@<proc_macro2::TokenStream as core::iter::traits::collect::Extend<proc_macro2::TokenStream>>::extend<core::iter::sources::once::Once<proc_macro2::TokenStream>>::{closure#0}]>, fn(proc_macro2::imp::TokenStream) -> proc_macro2::fallback::TokenStream {proc_macro2::imp::TokenStream::unwrap_stable}>>"*
  %8 = bitcast %"core::option::Option<core::iter::adapters::map::Map<core::iter::adapters::map::Map<core::iter::sources::once::Once<proc_macro2::TokenStream>, [closure@<proc_macro2::TokenStream as core::iter::traits::collect::Extend<proc_macro2::TokenStream>>::extend<core::iter::sources::once::Once<proc_macro2::TokenStream>>::{closure#0}]>, fn(proc_macro2::imp::TokenStream) -> proc_macro2::fallback::TokenStream {proc_macro2::imp::TokenStream::unwrap_stable}>>"* %7 to %"core::option::Option<core::iter::adapters::map::Map<core::iter::adapters::map::Map<core::iter::sources::once::Once<proc_macro2::TokenStream>, [closure@<proc_macro2::TokenStream as core::iter::traits::collect::Extend<proc_macro2::TokenStream>>::extend<core::iter::sources::once::Once<proc_macro2::TokenStream>>::{closure#0}]>, fn(proc_macro2::imp::TokenStream) -> proc_macro2::fallback::TokenStream {proc_macro2::imp::TokenStream::unwrap_stable}>>::Some"*
  %iter = bitcast %"core::option::Option<core::iter::adapters::map::Map<core::iter::adapters::map::Map<core::iter::sources::once::Once<proc_macro2::TokenStream>, [closure@<proc_macro2::TokenStream as core::iter::traits::collect::Extend<proc_macro2::TokenStream>>::extend<core::iter::sources::once::Once<proc_macro2::TokenStream>>::{closure#0}]>, fn(proc_macro2::imp::TokenStream) -> proc_macro2::fallback::TokenStream {proc_macro2::imp::TokenStream::unwrap_stable}>>::Some"* %8 to %"core::iter::adapters::map::Map<core::iter::adapters::map::Map<core::iter::sources::once::Once<proc_macro2::TokenStream>, [closure@<proc_macro2::TokenStream as core::iter::traits::collect::Extend<proc_macro2::TokenStream>>::extend<core::iter::sources::once::Once<proc_macro2::TokenStream>>::{closure#0}]>, fn(proc_macro2::imp::TokenStream) -> proc_macro2::fallback::TokenStream {proc_macro2::imp::TokenStream::unwrap_stable}>"*
; call <core::iter::adapters::map::Map<I,F> as core::iter::traits::iterator::Iterator>::next
  call void @"_ZN102_$LT$core..iter..adapters..map..Map$LT$I$C$F$GT$$u20$as$u20$core..iter..traits..iterator..Iterator$GT$4next17hb1e11da04ef04927E"(%"core::option::Option<proc_macro2::fallback::TokenStream>"* noalias nocapture sret(%"core::option::Option<proc_macro2::fallback::TokenStream>") dereferenceable(24) %0, %"core::iter::adapters::map::Map<core::iter::adapters::map::Map<core::iter::sources::once::Once<proc_macro2::TokenStream>, [closure@<proc_macro2::TokenStream as core::iter::traits::collect::Extend<proc_macro2::TokenStream>>::extend<core::iter::sources::once::Once<proc_macro2::TokenStream>>::{closure#0}]>, fn(proc_macro2::imp::TokenStream) -> proc_macro2::fallback::TokenStream {proc_macro2::imp::TokenStream::unwrap_stable}>"* align 8 dereferenceable(40) %iter)
  br label %bb4

bb4:                                              ; preds = %bb3
  br label %bb5

bb5:                                              ; preds = %bb1, %bb4
  ret void
}

; <core::ops::range::RangeFrom<usize> as core::slice::index::SliceIndex<[T]>>::get_unchecked
; Function Attrs: inlinehint nonlazybind uwtable
define { [0 x i8]*, i64 } @"_ZN110_$LT$core..ops..range..RangeFrom$LT$usize$GT$$u20$as$u20$core..slice..index..SliceIndex$LT$$u5b$T$u5d$$GT$$GT$13get_unchecked17h5588b2fff6719e6eE"(i64 %self, [0 x i8]* %slice.0, i64 %slice.1) unnamed_addr #0 {
start:
  %_3 = alloca { i64, i64 }, align 8
; call core::ptr::const_ptr::<impl *const [T]>::len
  %_5 = call i64 @"_ZN4core3ptr9const_ptr43_$LT$impl$u20$$BP$const$u20$$u5b$T$u5d$$GT$3len17h76e771fc3e718e35E"([0 x i8]* %slice.0, i64 %slice.1)
  br label %bb1

bb1:                                              ; preds = %start
  %0 = bitcast { i64, i64 }* %_3 to i64*
  store i64 %self, i64* %0, align 8
  %1 = getelementptr inbounds { i64, i64 }, { i64, i64 }* %_3, i32 0, i32 1
  store i64 %_5, i64* %1, align 8
  %2 = getelementptr inbounds { i64, i64 }, { i64, i64 }* %_3, i32 0, i32 0
  %3 = load i64, i64* %2, align 8
  %4 = getelementptr inbounds { i64, i64 }, { i64, i64 }* %_3, i32 0, i32 1
  %5 = load i64, i64* %4, align 8
; call <core::ops::range::Range<usize> as core::slice::index::SliceIndex<[T]>>::get_unchecked
  %6 = call { [0 x i8]*, i64 } @"_ZN106_$LT$core..ops..range..Range$LT$usize$GT$$u20$as$u20$core..slice..index..SliceIndex$LT$$u5b$T$u5d$$GT$$GT$13get_unchecked17hf3c6d42f44a76ff6E"(i64 %3, i64 %5, [0 x i8]* %slice.0, i64 %slice.1)
  %7 = extractvalue { [0 x i8]*, i64 } %6, 0
  %8 = extractvalue { [0 x i8]*, i64 } %6, 1
  br label %bb2

bb2:                                              ; preds = %bb1
  %9 = insertvalue { [0 x i8]*, i64 } undef, [0 x i8]* %7, 0
  %10 = insertvalue { [0 x i8]*, i64 } %9, i64 %8, 1
  ret { [0 x i8]*, i64 } %10
}

; <core::ops::range::RangeFrom<usize> as core::slice::index::SliceIndex<[T]>>::index
; Function Attrs: inlinehint nonlazybind uwtable
define { [0 x i8]*, i64 } @"_ZN110_$LT$core..ops..range..RangeFrom$LT$usize$GT$$u20$as$u20$core..slice..index..SliceIndex$LT$$u5b$T$u5d$$GT$$GT$5index17h7612605f542b9293E"(i64 %self, [0 x i8]* nonnull align 1 %slice.0, i64 %slice.1, %"core::panic::location::Location"* align 8 dereferenceable(24) %0) unnamed_addr #0 {
start:
  %_3 = icmp ugt i64 %self, %slice.1
  br i1 %_3, label %bb1, label %bb2

bb2:                                              ; preds = %start
; call <core::ops::range::RangeFrom<usize> as core::slice::index::SliceIndex<[T]>>::get_unchecked
  %1 = call { [0 x i8]*, i64 } @"_ZN110_$LT$core..ops..range..RangeFrom$LT$usize$GT$$u20$as$u20$core..slice..index..SliceIndex$LT$$u5b$T$u5d$$GT$$GT$13get_unchecked17h5588b2fff6719e6eE"(i64 %self, [0 x i8]* %slice.0, i64 %slice.1)
  %_10.0 = extractvalue { [0 x i8]*, i64 } %1, 0
  %_10.1 = extractvalue { [0 x i8]*, i64 } %1, 1
  br label %bb3

bb1:                                              ; preds = %start
; call core::slice::index::slice_start_index_len_fail
  call void @_ZN4core5slice5index26slice_start_index_len_fail17hfc14514b4a7e8b02E(i64 %self, i64 %slice.1, %"core::panic::location::Location"* align 8 dereferenceable(24) %0) #11
  unreachable

bb3:                                              ; preds = %bb2
  %2 = insertvalue { [0 x i8]*, i64 } undef, [0 x i8]* %_10.0, 0
  %3 = insertvalue { [0 x i8]*, i64 } %2, i64 %_10.1, 1
  ret { [0 x i8]*, i64 } %3
}

; <proc_macro::TokenStream as core::iter::traits::collect::Extend<proc_macro::TokenStream>>::extend
; Function Attrs: nonlazybind uwtable
define void @"_ZN110_$LT$proc_macro..TokenStream$u20$as$u20$core..iter..traits..collect..Extend$LT$proc_macro..TokenStream$GT$$GT$6extend17h2e8b3cbb343f5559E"(%"proc_macro::TokenStream"* align 4 dereferenceable(4) %self, %"core::iter::adapters::map::Map<core::iter::adapters::map::Map<core::iter::sources::once::Once<proc_macro2::TokenStream>, [closure@<proc_macro2::TokenStream as core::iter::traits::collect::Extend<proc_macro2::TokenStream>>::extend<core::iter::sources::once::Once<proc_macro2::TokenStream>>::{closure#0}]>, fn(proc_macro2::imp::TokenStream) -> proc_macro::TokenStream {proc_macro2::imp::TokenStream::unwrap_nightly}>"* noalias nocapture dereferenceable(40) %streams) unnamed_addr #1 personality i32 (i32, i32, i64, %"unwind::libunwind::_Unwind_Exception"*, %"unwind::libunwind::_Unwind_Context"*)* @rust_eh_personality {
start:
  %0 = alloca i32, align 4
  %1 = alloca i32, align 4
  %2 = alloca i32, align 4
  %3 = alloca i32, align 4
  %4 = alloca { i8*, i32 }, align 8
  %_10 = alloca i8, align 1
  %_9 = alloca %"core::iter::adapters::map::Map<core::iter::adapters::map::Map<core::iter::sources::once::Once<proc_macro2::TokenStream>, [closure@<proc_macro2::TokenStream as core::iter::traits::collect::Extend<proc_macro2::TokenStream>>::extend<core::iter::sources::once::Once<proc_macro2::TokenStream>>::{closure#0}]>, fn(proc_macro2::imp::TokenStream) -> proc_macro::TokenStream {proc_macro2::imp::TokenStream::unwrap_nightly}>", align 8
  %_8 = alloca %"proc_macro::TokenStream", align 4
  %_6 = alloca %"proc_macro::TokenStream", align 4
  %_5 = alloca %"core::iter::sources::once::Once<proc_macro::TokenStream>", align 4
  %_4 = alloca %"core::iter::adapters::chain::Chain<core::iter::sources::once::Once<proc_macro::TokenStream>, core::iter::adapters::map::Map<core::iter::adapters::map::Map<core::iter::sources::once::Once<proc_macro2::TokenStream>, [closure@<proc_macro2::TokenStream as core::iter::traits::collect::Extend<proc_macro2::TokenStream>>::extend<core::iter::sources::once::Once<proc_macro2::TokenStream>>::{closure#0}]>, fn(proc_macro2::imp::TokenStream) -> proc_macro::TokenStream {proc_macro2::imp::TokenStream::unwrap_nightly}>>", align 8
  %_3 = alloca %"proc_macro::TokenStream", align 4
  store i8 0, i8* %_10, align 1
  store i8 1, i8* %_10, align 1
; invoke proc_macro::TokenStream::new
  %5 = invoke i32 @_ZN10proc_macro11TokenStream3new17hb86dfb25bf941996E()
          to label %bb1 unwind label %cleanup

bb1:                                              ; preds = %start
  store i32 %5, i32* %3, align 4
  %6 = bitcast %"proc_macro::TokenStream"* %_8 to i8*
  %7 = bitcast i32* %3 to i8*
  call void @llvm.memcpy.p0i8.p0i8.i64(i8* align 4 %6, i8* align 4 %7, i64 4, i1 false)
  %8 = bitcast %"proc_macro::TokenStream"* %_8 to i32*
  %9 = load i32, i32* %8, align 4
; invoke core::mem::replace
  %10 = invoke i32 @_ZN4core3mem7replace17h7c413ed7fcb24aa5E(%"proc_macro::TokenStream"* align 4 dereferenceable(4) %self, i32 %9)
          to label %bb2 unwind label %cleanup

bb10:                                             ; preds = %bb7, %cleanup
  %11 = load i8, i8* %_10, align 1, !range !4
  %12 = trunc i8 %11 to i1
  br i1 %12, label %bb9, label %bb6

cleanup:                                          ; preds = %bb4, %bb3, %bb2, %bb1, %start
  %13 = landingpad { i8*, i32 }
          cleanup
  %14 = extractvalue { i8*, i32 } %13, 0
  %15 = extractvalue { i8*, i32 } %13, 1
  %16 = getelementptr inbounds { i8*, i32 }, { i8*, i32 }* %4, i32 0, i32 0
  store i8* %14, i8** %16, align 8
  %17 = getelementptr inbounds { i8*, i32 }, { i8*, i32 }* %4, i32 0, i32 1
  store i32 %15, i32* %17, align 8
  br label %bb10

bb2:                                              ; preds = %bb1
  store i32 %10, i32* %2, align 4
  %18 = bitcast %"proc_macro::TokenStream"* %_6 to i8*
  %19 = bitcast i32* %2 to i8*
  call void @llvm.memcpy.p0i8.p0i8.i64(i8* align 4 %18, i8* align 4 %19, i64 4, i1 false)
  %20 = bitcast %"proc_macro::TokenStream"* %_6 to i32*
  %21 = load i32, i32* %20, align 4
; invoke core::iter::sources::once::once
  %22 = invoke i32 @_ZN4core4iter7sources4once4once17heba0bc3abb166515E(i32 %21)
          to label %bb3 unwind label %cleanup

bb3:                                              ; preds = %bb2
  store i32 %22, i32* %1, align 4
  %23 = bitcast %"core::iter::sources::once::Once<proc_macro::TokenStream>"* %_5 to i8*
  %24 = bitcast i32* %1 to i8*
  call void @llvm.memcpy.p0i8.p0i8.i64(i8* align 4 %23, i8* align 4 %24, i64 4, i1 false)
  store i8 0, i8* %_10, align 1
  %25 = bitcast %"core::iter::adapters::map::Map<core::iter::adapters::map::Map<core::iter::sources::once::Once<proc_macro2::TokenStream>, [closure@<proc_macro2::TokenStream as core::iter::traits::collect::Extend<proc_macro2::TokenStream>>::extend<core::iter::sources::once::Once<proc_macro2::TokenStream>>::{closure#0}]>, fn(proc_macro2::imp::TokenStream) -> proc_macro::TokenStream {proc_macro2::imp::TokenStream::unwrap_nightly}>"* %_9 to i8*
  %26 = bitcast %"core::iter::adapters::map::Map<core::iter::adapters::map::Map<core::iter::sources::once::Once<proc_macro2::TokenStream>, [closure@<proc_macro2::TokenStream as core::iter::traits::collect::Extend<proc_macro2::TokenStream>>::extend<core::iter::sources::once::Once<proc_macro2::TokenStream>>::{closure#0}]>, fn(proc_macro2::imp::TokenStream) -> proc_macro::TokenStream {proc_macro2::imp::TokenStream::unwrap_nightly}>"* %streams to i8*
  call void @llvm.memcpy.p0i8.p0i8.i64(i8* align 8 %25, i8* align 8 %26, i64 40, i1 false)
  %27 = bitcast %"core::iter::sources::once::Once<proc_macro::TokenStream>"* %_5 to i32*
  %28 = load i32, i32* %27, align 4
; invoke core::iter::traits::iterator::Iterator::chain
  invoke void @_ZN4core4iter6traits8iterator8Iterator5chain17hcbd39a6424494895E(%"core::iter::adapters::chain::Chain<core::iter::sources::once::Once<proc_macro::TokenStream>, core::iter::adapters::map::Map<core::iter::adapters::map::Map<core::iter::sources::once::Once<proc_macro2::TokenStream>, [closure@<proc_macro2::TokenStream as core::iter::traits::collect::Extend<proc_macro2::TokenStream>>::extend<core::iter::sources::once::Once<proc_macro2::TokenStream>>::{closure#0}]>, fn(proc_macro2::imp::TokenStream) -> proc_macro::TokenStream {proc_macro2::imp::TokenStream::unwrap_nightly}>>"* noalias nocapture sret(%"core::iter::adapters::chain::Chain<core::iter::sources::once::Once<proc_macro::TokenStream>, core::iter::adapters::map::Map<core::iter::adapters::map::Map<core::iter::sources::once::Once<proc_macro2::TokenStream>, [closure@<proc_macro2::TokenStream as core::iter::traits::collect::Extend<proc_macro2::TokenStream>>::extend<core::iter::sources::once::Once<proc_macro2::TokenStream>>::{closure#0}]>, fn(proc_macro2::imp::TokenStream) -> proc_macro::TokenStream {proc_macro2::imp::TokenStream::unwrap_nightly}>>") dereferenceable(48) %_4, i32 %28, %"core::iter::adapters::map::Map<core::iter::adapters::map::Map<core::iter::sources::once::Once<proc_macro2::TokenStream>, [closure@<proc_macro2::TokenStream as core::iter::traits::collect::Extend<proc_macro2::TokenStream>>::extend<core::iter::sources::once::Once<proc_macro2::TokenStream>>::{closure#0}]>, fn(proc_macro2::imp::TokenStream) -> proc_macro::TokenStream {proc_macro2::imp::TokenStream::unwrap_nightly}>"* noalias nocapture dereferenceable(40) %_9)
          to label %bb4 unwind label %cleanup

bb4:                                              ; preds = %bb3
; invoke core::iter::traits::iterator::Iterator::collect
  %29 = invoke i32 @_ZN4core4iter6traits8iterator8Iterator7collect17hf3c08d874a657cf9E(%"core::iter::adapters::chain::Chain<core::iter::sources::once::Once<proc_macro::TokenStream>, core::iter::adapters::map::Map<core::iter::adapters::map::Map<core::iter::sources::once::Once<proc_macro2::TokenStream>, [closure@<proc_macro2::TokenStream as core::iter::traits::collect::Extend<proc_macro2::TokenStream>>::extend<core::iter::sources::once::Once<proc_macro2::TokenStream>>::{closure#0}]>, fn(proc_macro2::imp::TokenStream) -> proc_macro::TokenStream {proc_macro2::imp::TokenStream::unwrap_nightly}>>"* noalias nocapture dereferenceable(48) %_4)
          to label %bb5 unwind label %cleanup

bb5:                                              ; preds = %bb4
  store i32 %29, i32* %0, align 4
  %30 = bitcast %"proc_macro::TokenStream"* %_3 to i8*
  %31 = bitcast i32* %0 to i8*
  call void @llvm.memcpy.p0i8.p0i8.i64(i8* align 4 %30, i8* align 4 %31, i64 4, i1 false)
; invoke core::ptr::drop_in_place<proc_macro::TokenStream>
  invoke void @"_ZN4core3ptr44drop_in_place$LT$proc_macro..TokenStream$GT$17h13bbe0af145081bcE"(%"proc_macro::TokenStream"* %self)
          to label %bb8 unwind label %cleanup1

bb8:                                              ; preds = %bb5
  %32 = bitcast %"proc_macro::TokenStream"* %self to i8*
  %33 = bitcast %"proc_macro::TokenStream"* %_3 to i8*
  call void @llvm.memcpy.p0i8.p0i8.i64(i8* align 4 %32, i8* align 4 %33, i64 4, i1 false)
  ret void

bb7:                                              ; preds = %cleanup1
  %34 = bitcast %"proc_macro::TokenStream"* %self to i8*
  %35 = bitcast %"proc_macro::TokenStream"* %_3 to i8*
  call void @llvm.memcpy.p0i8.p0i8.i64(i8* align 4 %34, i8* align 4 %35, i64 4, i1 false)
  br label %bb10

cleanup1:                                         ; preds = %bb5
  %36 = landingpad { i8*, i32 }
          cleanup
  %37 = extractvalue { i8*, i32 } %36, 0
  %38 = extractvalue { i8*, i32 } %36, 1
  %39 = getelementptr inbounds { i8*, i32 }, { i8*, i32 }* %4, i32 0, i32 0
  store i8* %37, i8** %39, align 8
  %40 = getelementptr inbounds { i8*, i32 }, { i8*, i32 }* %4, i32 0, i32 1
  store i32 %38, i32* %40, align 8
  br label %bb7

bb6:                                              ; preds = %bb9, %bb10
  %41 = bitcast { i8*, i32 }* %4 to i8**
  %42 = load i8*, i8** %41, align 8
  %43 = getelementptr inbounds { i8*, i32 }, { i8*, i32 }* %4, i32 0, i32 1
  %44 = load i32, i32* %43, align 8
  %45 = insertvalue { i8*, i32 } undef, i8* %42, 0
  %46 = insertvalue { i8*, i32 } %45, i32 %44, 1
  resume { i8*, i32 } %46

bb9:                                              ; preds = %bb10
; call core::ptr::drop_in_place<core::iter::adapters::map::Map<core::iter::adapters::map::Map<core::iter::sources::once::Once<proc_macro2::TokenStream>,<proc_macro2::TokenStream as core::iter::traits::collect::Extend<proc_macro2::TokenStream>>::extend<core::iter::sources::once::Once<proc_macro2::TokenStream>>::{{closure}}>,proc_macro2::imp::TokenStream::unwrap_nightly>>
  call void @"_ZN4core3ptr430drop_in_place$LT$core..iter..adapters..map..Map$LT$core..iter..adapters..map..Map$LT$core..iter..sources..once..Once$LT$proc_macro2..TokenStream$GT$$C$$LT$proc_macro2..TokenStream$u20$as$u20$core..iter..traits..collect..Extend$LT$proc_macro2..TokenStream$GT$$GT$..extend$LT$core..iter..sources..once..Once$LT$proc_macro2..TokenStream$GT$$GT$..$u7b$$u7b$closure$u7d$$u7d$$GT$$C$proc_macro2..imp..TokenStream..unwrap_nightly$GT$$GT$17h2e438e5e2c57a71dE"(%"core::iter::adapters::map::Map<core::iter::adapters::map::Map<core::iter::sources::once::Once<proc_macro2::TokenStream>, [closure@<proc_macro2::TokenStream as core::iter::traits::collect::Extend<proc_macro2::TokenStream>>::extend<core::iter::sources::once::Once<proc_macro2::TokenStream>>::{closure#0}]>, fn(proc_macro2::imp::TokenStream) -> proc_macro::TokenStream {proc_macro2::imp::TokenStream::unwrap_nightly}>"* %streams) #10
  br label %bb6
}

; <proc_macro2::TokenStream as core::iter::traits::collect::Extend<proc_macro2::TokenTree>>::extend
; Function Attrs: nonlazybind uwtable
define void @"_ZN110_$LT$proc_macro2..TokenStream$u20$as$u20$core..iter..traits..collect..Extend$LT$proc_macro2..TokenTree$GT$$GT$6extend17h00d6d77f613356ecE"(%"proc_macro2::TokenStream"* align 8 dereferenceable(40) %self, %"core::iter::adapters::map::Map<proc_macro2::token_stream::IntoIter, [closure@/home/cj/.cargo/registry/src/github.com-1ecc6299db9ec823/quote-1.0.15/src/runtime.rs:187:37: 187:67]>"* noalias nocapture dereferenceable(48) %streams) unnamed_addr #1 {
start:
  %_5 = alloca %"core::iter::adapters::map::Map<proc_macro2::token_stream::IntoIter, [closure@/home/cj/.cargo/registry/src/github.com-1ecc6299db9ec823/quote-1.0.15/src/runtime.rs:187:37: 187:67]>", align 8
  %_4 = bitcast %"proc_macro2::TokenStream"* %self to %"proc_macro2::imp::TokenStream"*
  %0 = bitcast %"core::iter::adapters::map::Map<proc_macro2::token_stream::IntoIter, [closure@/home/cj/.cargo/registry/src/github.com-1ecc6299db9ec823/quote-1.0.15/src/runtime.rs:187:37: 187:67]>"* %_5 to i8*
  %1 = bitcast %"core::iter::adapters::map::Map<proc_macro2::token_stream::IntoIter, [closure@/home/cj/.cargo/registry/src/github.com-1ecc6299db9ec823/quote-1.0.15/src/runtime.rs:187:37: 187:67]>"* %streams to i8*
  call void @llvm.memcpy.p0i8.p0i8.i64(i8* align 8 %0, i8* align 8 %1, i64 48, i1 false)
; call <proc_macro2::imp::TokenStream as core::iter::traits::collect::Extend<proc_macro2::TokenTree>>::extend
  call void @"_ZN115_$LT$proc_macro2..imp..TokenStream$u20$as$u20$core..iter..traits..collect..Extend$LT$proc_macro2..TokenTree$GT$$GT$6extend17h663dcc6e98f23b7cE"(%"proc_macro2::imp::TokenStream"* align 8 dereferenceable(40) %_4, %"core::iter::adapters::map::Map<proc_macro2::token_stream::IntoIter, [closure@/home/cj/.cargo/registry/src/github.com-1ecc6299db9ec823/quote-1.0.15/src/runtime.rs:187:37: 187:67]>"* noalias nocapture dereferenceable(48) %_5)
  br label %bb1

bb1:                                              ; preds = %start
  ret void
}

; <proc_macro2::TokenStream as core::iter::traits::collect::Extend<proc_macro2::TokenTree>>::extend
; Function Attrs: nonlazybind uwtable
define void @"_ZN110_$LT$proc_macro2..TokenStream$u20$as$u20$core..iter..traits..collect..Extend$LT$proc_macro2..TokenTree$GT$$GT$6extend17h064b2ed192a229a8E"(%"proc_macro2::TokenStream"* align 8 dereferenceable(40) %self, %"__private::push_lifetime_spanned::Lifetime"* noalias nocapture dereferenceable(24) %streams) unnamed_addr #1 {
start:
  %_5 = alloca %"__private::push_lifetime_spanned::Lifetime", align 8
  %_4 = bitcast %"proc_macro2::TokenStream"* %self to %"proc_macro2::imp::TokenStream"*
  %0 = bitcast %"__private::push_lifetime_spanned::Lifetime"* %_5 to i8*
  %1 = bitcast %"__private::push_lifetime_spanned::Lifetime"* %streams to i8*
  call void @llvm.memcpy.p0i8.p0i8.i64(i8* align 8 %0, i8* align 8 %1, i64 24, i1 false)
; call <proc_macro2::imp::TokenStream as core::iter::traits::collect::Extend<proc_macro2::TokenTree>>::extend
  call void @"_ZN115_$LT$proc_macro2..imp..TokenStream$u20$as$u20$core..iter..traits..collect..Extend$LT$proc_macro2..TokenTree$GT$$GT$6extend17h82e332e398788a9fE"(%"proc_macro2::imp::TokenStream"* align 8 dereferenceable(40) %_4, %"__private::push_lifetime_spanned::Lifetime"* noalias nocapture dereferenceable(24) %_5)
  br label %bb1

bb1:                                              ; preds = %start
  ret void
}

; <proc_macro2::TokenStream as core::iter::traits::collect::Extend<proc_macro2::TokenTree>>::extend
; Function Attrs: nonlazybind uwtable
define void @"_ZN110_$LT$proc_macro2..TokenStream$u20$as$u20$core..iter..traits..collect..Extend$LT$proc_macro2..TokenTree$GT$$GT$6extend17h9967294d0ac136eeE"(%"proc_macro2::TokenStream"* align 8 dereferenceable(40) %self, %"core::iter::sources::once::Once<proc_macro2::TokenTree>"* noalias nocapture dereferenceable(48) %streams) unnamed_addr #1 {
start:
  %_5 = alloca %"core::iter::sources::once::Once<proc_macro2::TokenTree>", align 8
  %_4 = bitcast %"proc_macro2::TokenStream"* %self to %"proc_macro2::imp::TokenStream"*
  %0 = bitcast %"core::iter::sources::once::Once<proc_macro2::TokenTree>"* %_5 to i8*
  %1 = bitcast %"core::iter::sources::once::Once<proc_macro2::TokenTree>"* %streams to i8*
  call void @llvm.memcpy.p0i8.p0i8.i64(i8* align 8 %0, i8* align 8 %1, i64 48, i1 false)
; call <proc_macro2::imp::TokenStream as core::iter::traits::collect::Extend<proc_macro2::TokenTree>>::extend
  call void @"_ZN115_$LT$proc_macro2..imp..TokenStream$u20$as$u20$core..iter..traits..collect..Extend$LT$proc_macro2..TokenTree$GT$$GT$6extend17h92158a569e0aeb07E"(%"proc_macro2::imp::TokenStream"* align 8 dereferenceable(40) %_4, %"core::iter::sources::once::Once<proc_macro2::TokenTree>"* noalias nocapture dereferenceable(48) %_5)
  br label %bb1

bb1:                                              ; preds = %start
  ret void
}

; <proc_macro2::TokenStream as core::iter::traits::collect::Extend<proc_macro2::TokenTree>>::extend
; Function Attrs: nonlazybind uwtable
define void @"_ZN110_$LT$proc_macro2..TokenStream$u20$as$u20$core..iter..traits..collect..Extend$LT$proc_macro2..TokenTree$GT$$GT$6extend17hcdcf295c20346fedE"(%"proc_macro2::TokenStream"* align 8 dereferenceable(40) %self, %"__private::push_lifetime::Lifetime"* noalias nocapture dereferenceable(24) %streams) unnamed_addr #1 {
start:
  %_5 = alloca %"__private::push_lifetime::Lifetime", align 8
  %_4 = bitcast %"proc_macro2::TokenStream"* %self to %"proc_macro2::imp::TokenStream"*
  %0 = bitcast %"__private::push_lifetime::Lifetime"* %_5 to i8*
  %1 = bitcast %"__private::push_lifetime::Lifetime"* %streams to i8*
  call void @llvm.memcpy.p0i8.p0i8.i64(i8* align 8 %0, i8* align 8 %1, i64 24, i1 false)
; call <proc_macro2::imp::TokenStream as core::iter::traits::collect::Extend<proc_macro2::TokenTree>>::extend
  call void @"_ZN115_$LT$proc_macro2..imp..TokenStream$u20$as$u20$core..iter..traits..collect..Extend$LT$proc_macro2..TokenTree$GT$$GT$6extend17h8744ab9ab7ea7ee3E"(%"proc_macro2::imp::TokenStream"* align 8 dereferenceable(40) %_4, %"__private::push_lifetime::Lifetime"* noalias nocapture dereferenceable(24) %_5)
  br label %bb1

bb1:                                              ; preds = %start
  ret void
}

; <proc_macro2::TokenStream as core::iter::traits::collect::Extend<proc_macro2::TokenStream>>::extend
; Function Attrs: nonlazybind uwtable
define void @"_ZN112_$LT$proc_macro2..TokenStream$u20$as$u20$core..iter..traits..collect..Extend$LT$proc_macro2..TokenStream$GT$$GT$6extend17hfb0ea1aeb72a10bdE"(%"proc_macro2::TokenStream"* align 8 dereferenceable(40) %self, %"core::iter::sources::once::Once<proc_macro2::TokenStream>"* noalias nocapture dereferenceable(40) %streams) unnamed_addr #1 {
start:
  %_7 = alloca %"core::iter::sources::once::Once<proc_macro2::TokenStream>", align 8
  %_6 = alloca %"core::iter::sources::once::Once<proc_macro2::TokenStream>", align 8
  %_5 = alloca %"core::iter::adapters::map::Map<core::iter::sources::once::Once<proc_macro2::TokenStream>, [closure@<proc_macro2::TokenStream as core::iter::traits::collect::Extend<proc_macro2::TokenStream>>::extend<core::iter::sources::once::Once<proc_macro2::TokenStream>>::{closure#0}]>", align 8
  %_4 = bitcast %"proc_macro2::TokenStream"* %self to %"proc_macro2::imp::TokenStream"*
  %0 = bitcast %"core::iter::sources::once::Once<proc_macro2::TokenStream>"* %_7 to i8*
  %1 = bitcast %"core::iter::sources::once::Once<proc_macro2::TokenStream>"* %streams to i8*
  call void @llvm.memcpy.p0i8.p0i8.i64(i8* align 8 %0, i8* align 8 %1, i64 40, i1 false)
; call <I as core::iter::traits::collect::IntoIterator>::into_iter
  call void @"_ZN63_$LT$I$u20$as$u20$core..iter..traits..collect..IntoIterator$GT$9into_iter17h6a48d12c36aaecb8E"(%"core::iter::sources::once::Once<proc_macro2::TokenStream>"* noalias nocapture sret(%"core::iter::sources::once::Once<proc_macro2::TokenStream>") dereferenceable(40) %_6, %"core::iter::sources::once::Once<proc_macro2::TokenStream>"* noalias nocapture dereferenceable(40) %_7)
  br label %bb1

bb1:                                              ; preds = %start
; call core::iter::traits::iterator::Iterator::map
  call void @_ZN4core4iter6traits8iterator8Iterator3map17haa82b3cf64f29a2fE(%"core::iter::adapters::map::Map<core::iter::sources::once::Once<proc_macro2::TokenStream>, [closure@<proc_macro2::TokenStream as core::iter::traits::collect::Extend<proc_macro2::TokenStream>>::extend<core::iter::sources::once::Once<proc_macro2::TokenStream>>::{closure#0}]>"* noalias nocapture sret(%"core::iter::adapters::map::Map<core::iter::sources::once::Once<proc_macro2::TokenStream>, [closure@<proc_macro2::TokenStream as core::iter::traits::collect::Extend<proc_macro2::TokenStream>>::extend<core::iter::sources::once::Once<proc_macro2::TokenStream>>::{closure#0}]>") dereferenceable(40) %_5, %"core::iter::sources::once::Once<proc_macro2::TokenStream>"* noalias nocapture dereferenceable(40) %_6)
  br label %bb2

bb2:                                              ; preds = %bb1
; call <proc_macro2::imp::TokenStream as core::iter::traits::collect::Extend<proc_macro2::imp::TokenStream>>::extend
  call void @"_ZN122_$LT$proc_macro2..imp..TokenStream$u20$as$u20$core..iter..traits..collect..Extend$LT$proc_macro2..imp..TokenStream$GT$$GT$6extend17h852333d718687424E"(%"proc_macro2::imp::TokenStream"* align 8 dereferenceable(40) %_4, %"core::iter::adapters::map::Map<core::iter::sources::once::Once<proc_macro2::TokenStream>, [closure@<proc_macro2::TokenStream as core::iter::traits::collect::Extend<proc_macro2::TokenStream>>::extend<core::iter::sources::once::Once<proc_macro2::TokenStream>>::{closure#0}]>"* noalias nocapture dereferenceable(40) %_5)
  br label %bb3

bb3:                                              ; preds = %bb2
  ret void
}

; <proc_macro2::TokenStream as core::iter::traits::collect::Extend<proc_macro2::TokenStream>>::extend::{{closure}}
; Function Attrs: inlinehint nonlazybind uwtable
define void @"_ZN112_$LT$proc_macro2..TokenStream$u20$as$u20$core..iter..traits..collect..Extend$LT$proc_macro2..TokenStream$GT$$GT$6extend28_$u7b$$u7b$closure$u7d$$u7d$17hcc57fc85d5d6d648E"(%"proc_macro2::imp::TokenStream"* noalias nocapture sret(%"proc_macro2::imp::TokenStream") dereferenceable(40) %0, %"[closure@<proc_macro2::TokenStream as core::iter::traits::collect::Extend<proc_macro2::TokenStream>>::extend<core::iter::sources::once::Once<proc_macro2::TokenStream>>::{closure#0}]"* nonnull align 1 %_1, %"proc_macro2::TokenStream"* noalias nocapture dereferenceable(40) %stream) unnamed_addr #0 {
start:
  %1 = bitcast %"proc_macro2::TokenStream"* %stream to %"proc_macro2::imp::TokenStream"*
  %2 = bitcast %"proc_macro2::imp::TokenStream"* %0 to i8*
  %3 = bitcast %"proc_macro2::imp::TokenStream"* %1 to i8*
  call void @llvm.memcpy.p0i8.p0i8.i64(i8* align 8 %2, i8* align 8 %3, i64 40, i1 false)
  ret void
}

; <alloc::string::String as core::ops::index::Index<core::ops::range::RangeFrom<usize>>>::index
; Function Attrs: inlinehint nonlazybind uwtable
define internal { [0 x i8]*, i64 } @"_ZN113_$LT$alloc..string..String$u20$as$u20$core..ops..index..Index$LT$core..ops..range..RangeFrom$LT$usize$GT$$GT$$GT$5index17h23dc56c62d4bc248E"(%"alloc::string::String"* align 8 dereferenceable(24) %self, i64 %index, %"core::panic::location::Location"* align 8 dereferenceable(24) %0) unnamed_addr #0 {
start:
; call <alloc::string::String as core::ops::index::Index<core::ops::range::RangeFull>>::index
  %1 = call { [0 x i8]*, i64 } @"_ZN100_$LT$alloc..string..String$u20$as$u20$core..ops..index..Index$LT$core..ops..range..RangeFull$GT$$GT$5index17ha9890531b1063fd1E"(%"alloc::string::String"* align 8 dereferenceable(24) %self, %"core::panic::location::Location"* align 8 dereferenceable(24) %0)
  %_5.0 = extractvalue { [0 x i8]*, i64 } %1, 0
  %_5.1 = extractvalue { [0 x i8]*, i64 } %1, 1
  br label %bb1

bb1:                                              ; preds = %start
; call core::str::traits::<impl core::ops::index::Index<I> for str>::index
  %2 = call { [0 x i8]*, i64 } @"_ZN4core3str6traits66_$LT$impl$u20$core..ops..index..Index$LT$I$GT$$u20$for$u20$str$GT$5index17ha5dfc76fbe8f171dE"([0 x i8]* nonnull align 1 %_5.0, i64 %_5.1, i64 %index, %"core::panic::location::Location"* align 8 dereferenceable(24) %0)
  %_3.0 = extractvalue { [0 x i8]*, i64 } %2, 0
  %_3.1 = extractvalue { [0 x i8]*, i64 } %2, 1
  br label %bb2

bb2:                                              ; preds = %bb1
  %3 = insertvalue { [0 x i8]*, i64 } undef, [0 x i8]* %_3.0, 0
  %4 = insertvalue { [0 x i8]*, i64 } %3, i64 %_3.1, 1
  ret { [0 x i8]*, i64 } %4
}

; <proc_macro::TokenStream as core::iter::traits::collect::FromIterator<proc_macro::TokenTree>>::from_iter
; Function Attrs: nonlazybind uwtable
define i32 @"_ZN114_$LT$proc_macro..TokenStream$u20$as$u20$core..iter..traits..collect..FromIterator$LT$proc_macro..TokenTree$GT$$GT$9from_iter17h5a99ba98b6ade4a0E"(%"core::iter::adapters::map::Map<core::iter::adapters::map::Map<proc_macro2::token_stream::IntoIter, [closure@/home/cj/.cargo/registry/src/github.com-1ecc6299db9ec823/quote-1.0.15/src/runtime.rs:197:22: 197:60]>, fn(proc_macro2::TokenTree) -> proc_macro::TokenTree {proc_macro2::imp::into_compiler_token}>"* noalias nocapture dereferenceable(48) %trees) unnamed_addr #1 {
start:
  %0 = alloca i32, align 4
  %_4 = alloca %"core::iter::adapters::map::Map<core::iter::adapters::map::Map<proc_macro2::token_stream::IntoIter, [closure@/home/cj/.cargo/registry/src/github.com-1ecc6299db9ec823/quote-1.0.15/src/runtime.rs:197:22: 197:60]>, fn(proc_macro2::TokenTree) -> proc_macro::TokenTree {proc_macro2::imp::into_compiler_token}>", align 8
  %_3 = alloca %"core::iter::adapters::map::Map<core::iter::adapters::map::Map<proc_macro2::token_stream::IntoIter, [closure@/home/cj/.cargo/registry/src/github.com-1ecc6299db9ec823/quote-1.0.15/src/runtime.rs:197:22: 197:60]>, fn(proc_macro2::TokenTree) -> proc_macro::TokenTree {proc_macro2::imp::into_compiler_token}>", align 8
  %_2 = alloca %"core::iter::adapters::map::Map<core::iter::adapters::map::Map<core::iter::adapters::map::Map<proc_macro2::token_stream::IntoIter, [closure@/home/cj/.cargo/registry/src/github.com-1ecc6299db9ec823/quote-1.0.15/src/runtime.rs:197:22: 197:60]>, fn(proc_macro2::TokenTree) -> proc_macro::TokenTree {proc_macro2::imp::into_compiler_token}>, fn(proc_macro::TokenTree) -> proc_macro::TokenStream {<proc_macro::TokenStream as core::convert::From<proc_macro::TokenTree>>::from}>", align 8
  %1 = alloca %"proc_macro::TokenStream", align 4
  %2 = bitcast %"core::iter::adapters::map::Map<core::iter::adapters::map::Map<proc_macro2::token_stream::IntoIter, [closure@/home/cj/.cargo/registry/src/github.com-1ecc6299db9ec823/quote-1.0.15/src/runtime.rs:197:22: 197:60]>, fn(proc_macro2::TokenTree) -> proc_macro::TokenTree {proc_macro2::imp::into_compiler_token}>"* %_4 to i8*
  %3 = bitcast %"core::iter::adapters::map::Map<core::iter::adapters::map::Map<proc_macro2::token_stream::IntoIter, [closure@/home/cj/.cargo/registry/src/github.com-1ecc6299db9ec823/quote-1.0.15/src/runtime.rs:197:22: 197:60]>, fn(proc_macro2::TokenTree) -> proc_macro::TokenTree {proc_macro2::imp::into_compiler_token}>"* %trees to i8*
  call void @llvm.memcpy.p0i8.p0i8.i64(i8* align 8 %2, i8* align 8 %3, i64 48, i1 false)
; call <I as core::iter::traits::collect::IntoIterator>::into_iter
  call void @"_ZN63_$LT$I$u20$as$u20$core..iter..traits..collect..IntoIterator$GT$9into_iter17h2d522b7c6fd92a92E"(%"core::iter::adapters::map::Map<core::iter::adapters::map::Map<proc_macro2::token_stream::IntoIter, [closure@/home/cj/.cargo/registry/src/github.com-1ecc6299db9ec823/quote-1.0.15/src/runtime.rs:197:22: 197:60]>, fn(proc_macro2::TokenTree) -> proc_macro::TokenTree {proc_macro2::imp::into_compiler_token}>"* noalias nocapture sret(%"core::iter::adapters::map::Map<core::iter::adapters::map::Map<proc_macro2::token_stream::IntoIter, [closure@/home/cj/.cargo/registry/src/github.com-1ecc6299db9ec823/quote-1.0.15/src/runtime.rs:197:22: 197:60]>, fn(proc_macro2::TokenTree) -> proc_macro::TokenTree {proc_macro2::imp::into_compiler_token}>") dereferenceable(48) %_3, %"core::iter::adapters::map::Map<core::iter::adapters::map::Map<proc_macro2::token_stream::IntoIter, [closure@/home/cj/.cargo/registry/src/github.com-1ecc6299db9ec823/quote-1.0.15/src/runtime.rs:197:22: 197:60]>, fn(proc_macro2::TokenTree) -> proc_macro::TokenTree {proc_macro2::imp::into_compiler_token}>"* noalias nocapture dereferenceable(48) %_4)
  br label %bb1

bb1:                                              ; preds = %start
; call core::iter::traits::iterator::Iterator::map
  call void @_ZN4core4iter6traits8iterator8Iterator3map17ha58682c88051efc2E(%"core::iter::adapters::map::Map<core::iter::adapters::map::Map<core::iter::adapters::map::Map<proc_macro2::token_stream::IntoIter, [closure@/home/cj/.cargo/registry/src/github.com-1ecc6299db9ec823/quote-1.0.15/src/runtime.rs:197:22: 197:60]>, fn(proc_macro2::TokenTree) -> proc_macro::TokenTree {proc_macro2::imp::into_compiler_token}>, fn(proc_macro::TokenTree) -> proc_macro::TokenStream {<proc_macro::TokenStream as core::convert::From<proc_macro::TokenTree>>::from}>"* noalias nocapture sret(%"core::iter::adapters::map::Map<core::iter::adapters::map::Map<core::iter::adapters::map::Map<proc_macro2::token_stream::IntoIter, [closure@/home/cj/.cargo/registry/src/github.com-1ecc6299db9ec823/quote-1.0.15/src/runtime.rs:197:22: 197:60]>, fn(proc_macro2::TokenTree) -> proc_macro::TokenTree {proc_macro2::imp::into_compiler_token}>, fn(proc_macro::TokenTree) -> proc_macro::TokenStream {<proc_macro::TokenStream as core::convert::From<proc_macro::TokenTree>>::from}>") dereferenceable(48) %_2, %"core::iter::adapters::map::Map<core::iter::adapters::map::Map<proc_macro2::token_stream::IntoIter, [closure@/home/cj/.cargo/registry/src/github.com-1ecc6299db9ec823/quote-1.0.15/src/runtime.rs:197:22: 197:60]>, fn(proc_macro2::TokenTree) -> proc_macro::TokenTree {proc_macro2::imp::into_compiler_token}>"* noalias nocapture dereferenceable(48) %_3)
  br label %bb2

bb2:                                              ; preds = %bb1
; call core::iter::traits::iterator::Iterator::collect
  %4 = call i32 @_ZN4core4iter6traits8iterator8Iterator7collect17h9552461f726b2234E(%"core::iter::adapters::map::Map<core::iter::adapters::map::Map<core::iter::adapters::map::Map<proc_macro2::token_stream::IntoIter, [closure@/home/cj/.cargo/registry/src/github.com-1ecc6299db9ec823/quote-1.0.15/src/runtime.rs:197:22: 197:60]>, fn(proc_macro2::TokenTree) -> proc_macro::TokenTree {proc_macro2::imp::into_compiler_token}>, fn(proc_macro::TokenTree) -> proc_macro::TokenStream {<proc_macro::TokenStream as core::convert::From<proc_macro::TokenTree>>::from}>"* noalias nocapture dereferenceable(48) %_2)
  store i32 %4, i32* %0, align 4
  %5 = bitcast %"proc_macro::TokenStream"* %1 to i8*
  %6 = bitcast i32* %0 to i8*
  call void @llvm.memcpy.p0i8.p0i8.i64(i8* align 4 %5, i8* align 4 %6, i64 4, i1 false)
  br label %bb3

bb3:                                              ; preds = %bb2
  %7 = bitcast %"proc_macro::TokenStream"* %1 to i32*
  %8 = load i32, i32* %7, align 4
  ret i32 %8
}

; <core::iter::adapters::filter_map::FilterMap<I,F> as core::iter::traits::iterator::Iterator>::fold
; Function Attrs: inlinehint nonlazybind uwtable
define i64 @"_ZN115_$LT$core..iter..adapters..filter_map..FilterMap$LT$I$C$F$GT$$u20$as$u20$core..iter..traits..iterator..Iterator$GT$4fold17hf6d99e310d5bad15E"(%"core::iter::adapters::filter_map::FilterMap<proc_macro2::token_stream::IntoIter, [closure@/home/cj/.cargo/registry/src/github.com-1ecc6299db9ec823/quote-1.0.15/src/spanned.rs:21:50: 32:6]>"* noalias nocapture dereferenceable(40) %self, i64 %0) unnamed_addr #0 personality i32 (i32, i32, i64, %"unwind::libunwind::_Unwind_Exception"*, %"unwind::libunwind::_Unwind_Context"*)* @rust_eh_personality {
start:
  %1 = alloca i64, align 8
  %2 = alloca { i8*, i32 }, align 8
  %_10 = alloca i8, align 1
  %_9 = alloca i8, align 1
  %_5 = alloca %"core::option::Option<proc_macro2::Span>", align 4
  %_4 = alloca %"proc_macro2::token_stream::IntoIter", align 8
  %3 = alloca %"core::option::Option<proc_macro2::Span>", align 4
  %4 = alloca i64, align 8
  %init = alloca %"core::option::Option<proc_macro2::Span>", align 4
  store i64 %0, i64* %4, align 8
  %5 = bitcast %"core::option::Option<proc_macro2::Span>"* %init to i8*
  %6 = bitcast i64* %4 to i8*
  call void @llvm.memcpy.p0i8.p0i8.i64(i8* align 4 %5, i8* align 8 %6, i64 8, i1 false)
  store i8 0, i8* %_10, align 1
  store i8 0, i8* %_9, align 1
  store i8 1, i8* %_10, align 1
  %7 = bitcast %"core::iter::adapters::filter_map::FilterMap<proc_macro2::token_stream::IntoIter, [closure@/home/cj/.cargo/registry/src/github.com-1ecc6299db9ec823/quote-1.0.15/src/spanned.rs:21:50: 32:6]>"* %self to %"proc_macro2::token_stream::IntoIter"*
  %8 = bitcast %"proc_macro2::token_stream::IntoIter"* %_4 to i8*
  %9 = bitcast %"proc_macro2::token_stream::IntoIter"* %7 to i8*
  call void @llvm.memcpy.p0i8.p0i8.i64(i8* align 8 %8, i8* align 8 %9, i64 40, i1 false)
  store i8 1, i8* %_9, align 1
  %10 = bitcast %"core::option::Option<proc_macro2::Span>"* %_5 to i8*
  %11 = bitcast %"core::option::Option<proc_macro2::Span>"* %init to i8*
  call void @llvm.memcpy.p0i8.p0i8.i64(i8* align 4 %10, i8* align 4 %11, i64 8, i1 false)
; invoke core::iter::adapters::filter_map::filter_map_fold
  invoke void @_ZN4core4iter8adapters10filter_map15filter_map_fold17ha0deae15a2704c1bE()
          to label %bb1 unwind label %cleanup

bb1:                                              ; preds = %start
  store i8 0, i8* %_10, align 1
  store i8 0, i8* %_9, align 1
  %12 = bitcast %"core::option::Option<proc_macro2::Span>"* %_5 to i64*
  %13 = load i64, i64* %12, align 4
; invoke core::iter::traits::iterator::Iterator::fold
  %14 = invoke i64 @_ZN4core4iter6traits8iterator8Iterator4fold17h0f9a7033515189deE(%"proc_macro2::token_stream::IntoIter"* noalias nocapture dereferenceable(40) %_4, i64 %13)
          to label %bb2 unwind label %cleanup

bb6:                                              ; preds = %cleanup
  %15 = load i8, i8* %_9, align 1, !range !4
  %16 = trunc i8 %15 to i1
  br i1 %16, label %bb5, label %bb3

cleanup:                                          ; preds = %bb1, %start
  %17 = landingpad { i8*, i32 }
          cleanup
  %18 = extractvalue { i8*, i32 } %17, 0
  %19 = extractvalue { i8*, i32 } %17, 1
  %20 = getelementptr inbounds { i8*, i32 }, { i8*, i32 }* %2, i32 0, i32 0
  store i8* %18, i8** %20, align 8
  %21 = getelementptr inbounds { i8*, i32 }, { i8*, i32 }* %2, i32 0, i32 1
  store i32 %19, i32* %21, align 8
  br label %bb6

bb2:                                              ; preds = %bb1
  store i64 %14, i64* %1, align 8
  %22 = bitcast %"core::option::Option<proc_macro2::Span>"* %3 to i8*
  %23 = bitcast i64* %1 to i8*
  call void @llvm.memcpy.p0i8.p0i8.i64(i8* align 4 %22, i8* align 8 %23, i64 8, i1 false)
  store i8 0, i8* %_9, align 1
  store i8 0, i8* %_10, align 1
  %24 = bitcast %"core::option::Option<proc_macro2::Span>"* %3 to i64*
  %25 = load i64, i64* %24, align 4
  ret i64 %25

bb3:                                              ; preds = %bb5, %bb6
  %26 = load i8, i8* %_10, align 1, !range !4
  %27 = trunc i8 %26 to i1
  br i1 %27, label %bb7, label %bb4

bb5:                                              ; preds = %bb6
  br label %bb3

bb4:                                              ; preds = %bb7, %bb3
  %28 = bitcast { i8*, i32 }* %2 to i8**
  %29 = load i8*, i8** %28, align 8
  %30 = getelementptr inbounds { i8*, i32 }, { i8*, i32 }* %2, i32 0, i32 1
  %31 = load i32, i32* %30, align 8
  %32 = insertvalue { i8*, i32 } undef, i8* %29, 0
  %33 = insertvalue { i8*, i32 } %32, i32 %31, 1
  resume { i8*, i32 } %33

bb7:                                              ; preds = %bb3
; call core::ptr::drop_in_place<proc_macro2::token_stream::IntoIter>
  call void @"_ZN4core3ptr56drop_in_place$LT$proc_macro2..token_stream..IntoIter$GT$17hc7b945121286a1fbE"(%"proc_macro2::token_stream::IntoIter"* %_4) #10
  br label %bb4
}

; <core::iter::adapters::filter_map::FilterMap<I,F> as core::iter::traits::iterator::Iterator>::next
; Function Attrs: inlinehint nonlazybind uwtable
define i64 @"_ZN115_$LT$core..iter..adapters..filter_map..FilterMap$LT$I$C$F$GT$$u20$as$u20$core..iter..traits..iterator..Iterator$GT$4next17haefc88913e8d74bfE"(%"core::iter::adapters::filter_map::FilterMap<proc_macro2::token_stream::IntoIter, [closure@/home/cj/.cargo/registry/src/github.com-1ecc6299db9ec823/quote-1.0.15/src/spanned.rs:21:50: 32:6]>"* align 8 dereferenceable(40) %self) unnamed_addr #0 {
start:
  %0 = alloca i64, align 8
  %1 = alloca %"core::option::Option<proc_macro2::Span>", align 4
  %_2 = bitcast %"core::iter::adapters::filter_map::FilterMap<proc_macro2::token_stream::IntoIter, [closure@/home/cj/.cargo/registry/src/github.com-1ecc6299db9ec823/quote-1.0.15/src/spanned.rs:21:50: 32:6]>"* %self to %"proc_macro2::token_stream::IntoIter"*
  %_3 = bitcast %"core::iter::adapters::filter_map::FilterMap<proc_macro2::token_stream::IntoIter, [closure@/home/cj/.cargo/registry/src/github.com-1ecc6299db9ec823/quote-1.0.15/src/spanned.rs:21:50: 32:6]>"* %self to %"[closure@/home/cj/.cargo/registry/src/github.com-1ecc6299db9ec823/quote-1.0.15/src/spanned.rs:21:50: 32:6]"*
; call core::iter::traits::iterator::Iterator::find_map
  %2 = call i64 @_ZN4core4iter6traits8iterator8Iterator8find_map17h91c70111ea3b9728E(%"proc_macro2::token_stream::IntoIter"* align 8 dereferenceable(40) %_2, %"[closure@/home/cj/.cargo/registry/src/github.com-1ecc6299db9ec823/quote-1.0.15/src/spanned.rs:21:50: 32:6]"* nonnull align 1 %_3)
  store i64 %2, i64* %0, align 8
  %3 = bitcast %"core::option::Option<proc_macro2::Span>"* %1 to i8*
  %4 = bitcast i64* %0 to i8*
  call void @llvm.memcpy.p0i8.p0i8.i64(i8* align 4 %3, i8* align 8 %4, i64 8, i1 false)
  br label %bb1

bb1:                                              ; preds = %start
  %5 = bitcast %"core::option::Option<proc_macro2::Span>"* %1 to i64*
  %6 = load i64, i64* %5, align 4
  ret i64 %6
}

; <proc_macro2::imp::TokenStream as core::iter::traits::collect::Extend<proc_macro2::TokenTree>>::extend
; Function Attrs: nonlazybind uwtable
define void @"_ZN115_$LT$proc_macro2..imp..TokenStream$u20$as$u20$core..iter..traits..collect..Extend$LT$proc_macro2..TokenTree$GT$$GT$6extend17h663dcc6e98f23b7cE"(%"proc_macro2::imp::TokenStream"* align 8 dereferenceable(40) %self, %"core::iter::adapters::map::Map<proc_macro2::token_stream::IntoIter, [closure@/home/cj/.cargo/registry/src/github.com-1ecc6299db9ec823/quote-1.0.15/src/runtime.rs:187:37: 187:67]>"* noalias nocapture dereferenceable(48) %stream) unnamed_addr #1 personality i32 (i32, i32, i64, %"unwind::libunwind::_Unwind_Exception"*, %"unwind::libunwind::_Unwind_Context"*)* @rust_eh_personality {
start:
  %0 = alloca i64, align 8
  %1 = alloca { i8*, i32 }, align 8
  %_19 = alloca %"core::iter::adapters::map::Map<proc_macro2::token_stream::IntoIter, [closure@/home/cj/.cargo/registry/src/github.com-1ecc6299db9ec823/quote-1.0.15/src/runtime.rs:187:37: 187:67]>", align 8
  %_16 = alloca %"proc_macro2::TokenTree", align 8
  %_15 = alloca %"proc_macro::TokenTree", align 4
  %token = alloca %"proc_macro2::TokenTree", align 8
  %_8 = alloca %"core::option::Option<proc_macro2::TokenTree>", align 8
  %iter = alloca %"core::iter::adapters::map::Map<proc_macro2::token_stream::IntoIter, [closure@/home/cj/.cargo/registry/src/github.com-1ecc6299db9ec823/quote-1.0.15/src/runtime.rs:187:37: 187:67]>", align 8
  %_6 = alloca %"core::iter::adapters::map::Map<proc_macro2::token_stream::IntoIter, [closure@/home/cj/.cargo/registry/src/github.com-1ecc6299db9ec823/quote-1.0.15/src/runtime.rs:187:37: 187:67]>", align 8
  %_5 = alloca %"core::iter::adapters::map::Map<proc_macro2::token_stream::IntoIter, [closure@/home/cj/.cargo/registry/src/github.com-1ecc6299db9ec823/quote-1.0.15/src/runtime.rs:187:37: 187:67]>", align 8
  %2 = bitcast %"proc_macro2::imp::TokenStream"* %self to i64*
  %_3 = load i64, i64* %2, align 8, !range !3
  switch i64 %_3, label %bb2 [
    i64 0, label %bb3
    i64 1, label %bb1
  ]

bb2:                                              ; preds = %start
  unreachable

bb3:                                              ; preds = %start
  %3 = bitcast %"proc_macro2::imp::TokenStream"* %self to %"proc_macro2::imp::TokenStream::Compiler"*
  %tts1 = getelementptr inbounds %"proc_macro2::imp::TokenStream::Compiler", %"proc_macro2::imp::TokenStream::Compiler"* %3, i32 0, i32 1
  %4 = bitcast %"core::iter::adapters::map::Map<proc_macro2::token_stream::IntoIter, [closure@/home/cj/.cargo/registry/src/github.com-1ecc6299db9ec823/quote-1.0.15/src/runtime.rs:187:37: 187:67]>"* %_6 to i8*
  %5 = bitcast %"core::iter::adapters::map::Map<proc_macro2::token_stream::IntoIter, [closure@/home/cj/.cargo/registry/src/github.com-1ecc6299db9ec823/quote-1.0.15/src/runtime.rs:187:37: 187:67]>"* %stream to i8*
  call void @llvm.memcpy.p0i8.p0i8.i64(i8* align 8 %4, i8* align 8 %5, i64 48, i1 false)
; call <I as core::iter::traits::collect::IntoIterator>::into_iter
  call void @"_ZN63_$LT$I$u20$as$u20$core..iter..traits..collect..IntoIterator$GT$9into_iter17h792e173954773df8E"(%"core::iter::adapters::map::Map<proc_macro2::token_stream::IntoIter, [closure@/home/cj/.cargo/registry/src/github.com-1ecc6299db9ec823/quote-1.0.15/src/runtime.rs:187:37: 187:67]>"* noalias nocapture sret(%"core::iter::adapters::map::Map<proc_macro2::token_stream::IntoIter, [closure@/home/cj/.cargo/registry/src/github.com-1ecc6299db9ec823/quote-1.0.15/src/runtime.rs:187:37: 187:67]>") dereferenceable(48) %_5, %"core::iter::adapters::map::Map<proc_macro2::token_stream::IntoIter, [closure@/home/cj/.cargo/registry/src/github.com-1ecc6299db9ec823/quote-1.0.15/src/runtime.rs:187:37: 187:67]>"* noalias nocapture dereferenceable(48) %_6)
  br label %bb4

bb1:                                              ; preds = %start
  %6 = bitcast %"proc_macro2::imp::TokenStream"* %self to %"proc_macro2::imp::TokenStream::Fallback"*
  %tts = getelementptr inbounds %"proc_macro2::imp::TokenStream::Fallback", %"proc_macro2::imp::TokenStream::Fallback"* %6, i32 0, i32 1
  %7 = bitcast %"core::iter::adapters::map::Map<proc_macro2::token_stream::IntoIter, [closure@/home/cj/.cargo/registry/src/github.com-1ecc6299db9ec823/quote-1.0.15/src/runtime.rs:187:37: 187:67]>"* %_19 to i8*
  %8 = bitcast %"core::iter::adapters::map::Map<proc_macro2::token_stream::IntoIter, [closure@/home/cj/.cargo/registry/src/github.com-1ecc6299db9ec823/quote-1.0.15/src/runtime.rs:187:37: 187:67]>"* %stream to i8*
  call void @llvm.memcpy.p0i8.p0i8.i64(i8* align 8 %7, i8* align 8 %8, i64 48, i1 false)
; call <proc_macro2::fallback::TokenStream as core::iter::traits::collect::Extend<proc_macro2::TokenTree>>::extend
  call void @"_ZN120_$LT$proc_macro2..fallback..TokenStream$u20$as$u20$core..iter..traits..collect..Extend$LT$proc_macro2..TokenTree$GT$$GT$6extend17h96ba077c6aa6490bE"(%"proc_macro2::fallback::TokenStream"* align 8 dereferenceable(24) %tts, %"core::iter::adapters::map::Map<proc_macro2::token_stream::IntoIter, [closure@/home/cj/.cargo/registry/src/github.com-1ecc6299db9ec823/quote-1.0.15/src/runtime.rs:187:37: 187:67]>"* noalias nocapture dereferenceable(48) %_19)
  br label %bb12

bb12:                                             ; preds = %bb9, %bb1
  ret void

bb4:                                              ; preds = %bb3
  %9 = bitcast %"core::iter::adapters::map::Map<proc_macro2::token_stream::IntoIter, [closure@/home/cj/.cargo/registry/src/github.com-1ecc6299db9ec823/quote-1.0.15/src/runtime.rs:187:37: 187:67]>"* %iter to i8*
  %10 = bitcast %"core::iter::adapters::map::Map<proc_macro2::token_stream::IntoIter, [closure@/home/cj/.cargo/registry/src/github.com-1ecc6299db9ec823/quote-1.0.15/src/runtime.rs:187:37: 187:67]>"* %_5 to i8*
  call void @llvm.memcpy.p0i8.p0i8.i64(i8* align 8 %9, i8* align 8 %10, i64 48, i1 false)
  br label %bb5

bb5:                                              ; preds = %bb11, %bb4
; invoke <core::iter::adapters::map::Map<I,F> as core::iter::traits::iterator::Iterator>::next
  invoke void @"_ZN102_$LT$core..iter..adapters..map..Map$LT$I$C$F$GT$$u20$as$u20$core..iter..traits..iterator..Iterator$GT$4next17hb1ff85e676a06c88E"(%"core::option::Option<proc_macro2::TokenTree>"* noalias nocapture sret(%"core::option::Option<proc_macro2::TokenTree>") dereferenceable(48) %_8, %"core::iter::adapters::map::Map<proc_macro2::token_stream::IntoIter, [closure@/home/cj/.cargo/registry/src/github.com-1ecc6299db9ec823/quote-1.0.15/src/runtime.rs:187:37: 187:67]>"* align 8 dereferenceable(48) %iter)
          to label %bb6 unwind label %cleanup

bb6:                                              ; preds = %bb5
  %11 = bitcast %"core::option::Option<proc_macro2::TokenTree>"* %_8 to i32*
  %12 = load i32, i32* %11, align 8, !range !7
  %13 = sub i32 %12, 4
  %14 = icmp eq i32 %13, 0
  %_11 = select i1 %14, i64 0, i64 1
  switch i64 %_11, label %bb8 [
    i64 0, label %bb9
    i64 1, label %bb7
  ]

bb13:                                             ; preds = %bb15, %cleanup
; call core::ptr::drop_in_place<core::iter::adapters::map::Map<proc_macro2::token_stream::IntoIter,quote::__private::parse_spanned::{{closure}}>>
  call void @"_ZN4core3ptr157drop_in_place$LT$core..iter..adapters..map..Map$LT$proc_macro2..token_stream..IntoIter$C$quote..__private..parse_spanned..$u7b$$u7b$closure$u7d$$u7d$$GT$$GT$17h32b77429e968630eE"(%"core::iter::adapters::map::Map<proc_macro2::token_stream::IntoIter, [closure@/home/cj/.cargo/registry/src/github.com-1ecc6299db9ec823/quote-1.0.15/src/runtime.rs:187:37: 187:67]>"* %iter) #10
  br label %bb14

cleanup:                                          ; preds = %bb5
  %15 = landingpad { i8*, i32 }
          cleanup
  %16 = extractvalue { i8*, i32 } %15, 0
  %17 = extractvalue { i8*, i32 } %15, 1
  %18 = getelementptr inbounds { i8*, i32 }, { i8*, i32 }* %1, i32 0, i32 0
  store i8* %16, i8** %18, align 8
  %19 = getelementptr inbounds { i8*, i32 }, { i8*, i32 }* %1, i32 0, i32 1
  store i32 %17, i32* %19, align 8
  br label %bb13

bb8:                                              ; preds = %bb6
  unreachable

bb9:                                              ; preds = %bb6
; call core::ptr::drop_in_place<core::iter::adapters::map::Map<proc_macro2::token_stream::IntoIter,quote::__private::parse_spanned::{{closure}}>>
  call void @"_ZN4core3ptr157drop_in_place$LT$core..iter..adapters..map..Map$LT$proc_macro2..token_stream..IntoIter$C$quote..__private..parse_spanned..$u7b$$u7b$closure$u7d$$u7d$$GT$$GT$17h32b77429e968630eE"(%"core::iter::adapters::map::Map<proc_macro2::token_stream::IntoIter, [closure@/home/cj/.cargo/registry/src/github.com-1ecc6299db9ec823/quote-1.0.15/src/runtime.rs:187:37: 187:67]>"* %iter)
  br label %bb12

bb7:                                              ; preds = %bb6
  %20 = bitcast %"core::option::Option<proc_macro2::TokenTree>"* %_8 to %"core::option::Option<proc_macro2::TokenTree>::Some"*
  %21 = bitcast %"core::option::Option<proc_macro2::TokenTree>::Some"* %20 to %"proc_macro2::TokenTree"*
  %22 = bitcast %"proc_macro2::TokenTree"* %token to i8*
  %23 = bitcast %"proc_macro2::TokenTree"* %21 to i8*
  call void @llvm.memcpy.p0i8.p0i8.i64(i8* align 8 %22, i8* align 8 %23, i64 48, i1 false)
  %_14 = bitcast %"proc_macro2::imp::DeferredTokenStream"* %tts1 to %"alloc::vec::Vec<proc_macro::TokenTree>"*
  %24 = bitcast %"proc_macro2::TokenTree"* %_16 to i8*
  %25 = bitcast %"proc_macro2::TokenTree"* %token to i8*
  call void @llvm.memcpy.p0i8.p0i8.i64(i8* align 8 %24, i8* align 8 %25, i64 48, i1 false)
; invoke proc_macro2::imp::into_compiler_token
  %26 = invoke i64 @_ZN11proc_macro23imp19into_compiler_token17h368fd4a54b3bd84dE(%"proc_macro2::TokenTree"* noalias nocapture dereferenceable(48) %_16)
          to label %bb10 unwind label %cleanup2

bb10:                                             ; preds = %bb7
  store i64 %26, i64* %0, align 8
  %27 = bitcast %"proc_macro::TokenTree"* %_15 to i8*
  %28 = bitcast i64* %0 to i8*
  call void @llvm.memcpy.p0i8.p0i8.i64(i8* align 4 %27, i8* align 8 %28, i64 8, i1 false)
  %29 = bitcast %"proc_macro::TokenTree"* %_15 to i64*
  %30 = load i64, i64* %29, align 4
; invoke alloc::vec::Vec<T,A>::push
  invoke void @"_ZN5alloc3vec16Vec$LT$T$C$A$GT$4push17hf09c316c891ae082E"(%"alloc::vec::Vec<proc_macro::TokenTree>"* align 8 dereferenceable(24) %_14, i64 %30)
          to label %bb11 unwind label %cleanup2

bb15:                                             ; preds = %cleanup2
  br label %bb13

cleanup2:                                         ; preds = %bb10, %bb7
  %31 = landingpad { i8*, i32 }
          cleanup
  %32 = extractvalue { i8*, i32 } %31, 0
  %33 = extractvalue { i8*, i32 } %31, 1
  %34 = getelementptr inbounds { i8*, i32 }, { i8*, i32 }* %1, i32 0, i32 0
  store i8* %32, i8** %34, align 8
  %35 = getelementptr inbounds { i8*, i32 }, { i8*, i32 }* %1, i32 0, i32 1
  store i32 %33, i32* %35, align 8
  br label %bb15

bb11:                                             ; preds = %bb10
  br label %bb5

bb14:                                             ; preds = %bb13
  %36 = bitcast { i8*, i32 }* %1 to i8**
  %37 = load i8*, i8** %36, align 8
  %38 = getelementptr inbounds { i8*, i32 }, { i8*, i32 }* %1, i32 0, i32 1
  %39 = load i32, i32* %38, align 8
  %40 = insertvalue { i8*, i32 } undef, i8* %37, 0
  %41 = insertvalue { i8*, i32 } %40, i32 %39, 1
  resume { i8*, i32 } %41
}

; <proc_macro2::imp::TokenStream as core::iter::traits::collect::Extend<proc_macro2::TokenTree>>::extend
; Function Attrs: nonlazybind uwtable
define void @"_ZN115_$LT$proc_macro2..imp..TokenStream$u20$as$u20$core..iter..traits..collect..Extend$LT$proc_macro2..TokenTree$GT$$GT$6extend17h82e332e398788a9fE"(%"proc_macro2::imp::TokenStream"* align 8 dereferenceable(40) %self, %"__private::push_lifetime_spanned::Lifetime"* noalias nocapture dereferenceable(24) %stream) unnamed_addr #1 personality i32 (i32, i32, i64, %"unwind::libunwind::_Unwind_Exception"*, %"unwind::libunwind::_Unwind_Context"*)* @rust_eh_personality {
start:
  %0 = alloca i64, align 8
  %1 = alloca { i8*, i32 }, align 8
  %_19 = alloca %"__private::push_lifetime_spanned::Lifetime", align 8
  %_16 = alloca %"proc_macro2::TokenTree", align 8
  %_15 = alloca %"proc_macro::TokenTree", align 4
  %token = alloca %"proc_macro2::TokenTree", align 8
  %_8 = alloca %"core::option::Option<proc_macro2::TokenTree>", align 8
  %iter = alloca %"__private::push_lifetime_spanned::Lifetime", align 8
  %_6 = alloca %"__private::push_lifetime_spanned::Lifetime", align 8
  %_5 = alloca %"__private::push_lifetime_spanned::Lifetime", align 8
  %2 = bitcast %"proc_macro2::imp::TokenStream"* %self to i64*
  %_3 = load i64, i64* %2, align 8, !range !3
  switch i64 %_3, label %bb2 [
    i64 0, label %bb3
    i64 1, label %bb1
  ]

bb2:                                              ; preds = %start
  unreachable

bb3:                                              ; preds = %start
  %3 = bitcast %"proc_macro2::imp::TokenStream"* %self to %"proc_macro2::imp::TokenStream::Compiler"*
  %tts1 = getelementptr inbounds %"proc_macro2::imp::TokenStream::Compiler", %"proc_macro2::imp::TokenStream::Compiler"* %3, i32 0, i32 1
  %4 = bitcast %"__private::push_lifetime_spanned::Lifetime"* %_6 to i8*
  %5 = bitcast %"__private::push_lifetime_spanned::Lifetime"* %stream to i8*
  call void @llvm.memcpy.p0i8.p0i8.i64(i8* align 8 %4, i8* align 8 %5, i64 24, i1 false)
; call <I as core::iter::traits::collect::IntoIterator>::into_iter
  call void @"_ZN63_$LT$I$u20$as$u20$core..iter..traits..collect..IntoIterator$GT$9into_iter17h89d5f548476ef6e8E"(%"__private::push_lifetime_spanned::Lifetime"* noalias nocapture sret(%"__private::push_lifetime_spanned::Lifetime") dereferenceable(24) %_5, %"__private::push_lifetime_spanned::Lifetime"* noalias nocapture dereferenceable(24) %_6)
  br label %bb4

bb1:                                              ; preds = %start
  %6 = bitcast %"proc_macro2::imp::TokenStream"* %self to %"proc_macro2::imp::TokenStream::Fallback"*
  %tts = getelementptr inbounds %"proc_macro2::imp::TokenStream::Fallback", %"proc_macro2::imp::TokenStream::Fallback"* %6, i32 0, i32 1
  %7 = bitcast %"__private::push_lifetime_spanned::Lifetime"* %_19 to i8*
  %8 = bitcast %"__private::push_lifetime_spanned::Lifetime"* %stream to i8*
  call void @llvm.memcpy.p0i8.p0i8.i64(i8* align 8 %7, i8* align 8 %8, i64 24, i1 false)
; call <proc_macro2::fallback::TokenStream as core::iter::traits::collect::Extend<proc_macro2::TokenTree>>::extend
  call void @"_ZN120_$LT$proc_macro2..fallback..TokenStream$u20$as$u20$core..iter..traits..collect..Extend$LT$proc_macro2..TokenTree$GT$$GT$6extend17hc4df8d9c5a091701E"(%"proc_macro2::fallback::TokenStream"* align 8 dereferenceable(24) %tts, %"__private::push_lifetime_spanned::Lifetime"* noalias nocapture dereferenceable(24) %_19)
  br label %bb12

bb12:                                             ; preds = %bb9, %bb1
  ret void

bb4:                                              ; preds = %bb3
  %9 = bitcast %"__private::push_lifetime_spanned::Lifetime"* %iter to i8*
  %10 = bitcast %"__private::push_lifetime_spanned::Lifetime"* %_5 to i8*
  call void @llvm.memcpy.p0i8.p0i8.i64(i8* align 8 %9, i8* align 8 %10, i64 24, i1 false)
  br label %bb5

bb5:                                              ; preds = %bb11, %bb4
; invoke <quote::__private::push_lifetime_spanned::Lifetime as core::iter::traits::iterator::Iterator>::next
  invoke void @"_ZN108_$LT$quote..__private..push_lifetime_spanned..Lifetime$u20$as$u20$core..iter..traits..iterator..Iterator$GT$4next17h1b37a73579cf5a56E"(%"core::option::Option<proc_macro2::TokenTree>"* noalias nocapture sret(%"core::option::Option<proc_macro2::TokenTree>") dereferenceable(48) %_8, %"__private::push_lifetime_spanned::Lifetime"* align 8 dereferenceable(24) %iter)
          to label %bb6 unwind label %cleanup

bb6:                                              ; preds = %bb5
  %11 = bitcast %"core::option::Option<proc_macro2::TokenTree>"* %_8 to i32*
  %12 = load i32, i32* %11, align 8, !range !7
  %13 = sub i32 %12, 4
  %14 = icmp eq i32 %13, 0
  %_11 = select i1 %14, i64 0, i64 1
  switch i64 %_11, label %bb8 [
    i64 0, label %bb9
    i64 1, label %bb7
  ]

bb13:                                             ; preds = %bb15, %cleanup
  br label %bb14

cleanup:                                          ; preds = %bb5
  %15 = landingpad { i8*, i32 }
          cleanup
  %16 = extractvalue { i8*, i32 } %15, 0
  %17 = extractvalue { i8*, i32 } %15, 1
  %18 = getelementptr inbounds { i8*, i32 }, { i8*, i32 }* %1, i32 0, i32 0
  store i8* %16, i8** %18, align 8
  %19 = getelementptr inbounds { i8*, i32 }, { i8*, i32 }* %1, i32 0, i32 1
  store i32 %17, i32* %19, align 8
  br label %bb13

bb8:                                              ; preds = %bb6
  unreachable

bb9:                                              ; preds = %bb6
  br label %bb12

bb7:                                              ; preds = %bb6
  %20 = bitcast %"core::option::Option<proc_macro2::TokenTree>"* %_8 to %"core::option::Option<proc_macro2::TokenTree>::Some"*
  %21 = bitcast %"core::option::Option<proc_macro2::TokenTree>::Some"* %20 to %"proc_macro2::TokenTree"*
  %22 = bitcast %"proc_macro2::TokenTree"* %token to i8*
  %23 = bitcast %"proc_macro2::TokenTree"* %21 to i8*
  call void @llvm.memcpy.p0i8.p0i8.i64(i8* align 8 %22, i8* align 8 %23, i64 48, i1 false)
  %_14 = bitcast %"proc_macro2::imp::DeferredTokenStream"* %tts1 to %"alloc::vec::Vec<proc_macro::TokenTree>"*
  %24 = bitcast %"proc_macro2::TokenTree"* %_16 to i8*
  %25 = bitcast %"proc_macro2::TokenTree"* %token to i8*
  call void @llvm.memcpy.p0i8.p0i8.i64(i8* align 8 %24, i8* align 8 %25, i64 48, i1 false)
; invoke proc_macro2::imp::into_compiler_token
  %26 = invoke i64 @_ZN11proc_macro23imp19into_compiler_token17h368fd4a54b3bd84dE(%"proc_macro2::TokenTree"* noalias nocapture dereferenceable(48) %_16)
          to label %bb10 unwind label %cleanup2

bb10:                                             ; preds = %bb7
  store i64 %26, i64* %0, align 8
  %27 = bitcast %"proc_macro::TokenTree"* %_15 to i8*
  %28 = bitcast i64* %0 to i8*
  call void @llvm.memcpy.p0i8.p0i8.i64(i8* align 4 %27, i8* align 8 %28, i64 8, i1 false)
  %29 = bitcast %"proc_macro::TokenTree"* %_15 to i64*
  %30 = load i64, i64* %29, align 4
; invoke alloc::vec::Vec<T,A>::push
  invoke void @"_ZN5alloc3vec16Vec$LT$T$C$A$GT$4push17hf09c316c891ae082E"(%"alloc::vec::Vec<proc_macro::TokenTree>"* align 8 dereferenceable(24) %_14, i64 %30)
          to label %bb11 unwind label %cleanup2

bb15:                                             ; preds = %cleanup2
  br label %bb13

cleanup2:                                         ; preds = %bb10, %bb7
  %31 = landingpad { i8*, i32 }
          cleanup
  %32 = extractvalue { i8*, i32 } %31, 0
  %33 = extractvalue { i8*, i32 } %31, 1
  %34 = getelementptr inbounds { i8*, i32 }, { i8*, i32 }* %1, i32 0, i32 0
  store i8* %32, i8** %34, align 8
  %35 = getelementptr inbounds { i8*, i32 }, { i8*, i32 }* %1, i32 0, i32 1
  store i32 %33, i32* %35, align 8
  br label %bb15

bb11:                                             ; preds = %bb10
  br label %bb5

bb14:                                             ; preds = %bb13
  %36 = bitcast { i8*, i32 }* %1 to i8**
  %37 = load i8*, i8** %36, align 8
  %38 = getelementptr inbounds { i8*, i32 }, { i8*, i32 }* %1, i32 0, i32 1
  %39 = load i32, i32* %38, align 8
  %40 = insertvalue { i8*, i32 } undef, i8* %37, 0
  %41 = insertvalue { i8*, i32 } %40, i32 %39, 1
  resume { i8*, i32 } %41
}

; <proc_macro2::imp::TokenStream as core::iter::traits::collect::Extend<proc_macro2::TokenTree>>::extend
; Function Attrs: nonlazybind uwtable
define void @"_ZN115_$LT$proc_macro2..imp..TokenStream$u20$as$u20$core..iter..traits..collect..Extend$LT$proc_macro2..TokenTree$GT$$GT$6extend17h8744ab9ab7ea7ee3E"(%"proc_macro2::imp::TokenStream"* align 8 dereferenceable(40) %self, %"__private::push_lifetime::Lifetime"* noalias nocapture dereferenceable(24) %stream) unnamed_addr #1 personality i32 (i32, i32, i64, %"unwind::libunwind::_Unwind_Exception"*, %"unwind::libunwind::_Unwind_Context"*)* @rust_eh_personality {
start:
  %0 = alloca i64, align 8
  %1 = alloca { i8*, i32 }, align 8
  %_19 = alloca %"__private::push_lifetime::Lifetime", align 8
  %_16 = alloca %"proc_macro2::TokenTree", align 8
  %_15 = alloca %"proc_macro::TokenTree", align 4
  %token = alloca %"proc_macro2::TokenTree", align 8
  %_8 = alloca %"core::option::Option<proc_macro2::TokenTree>", align 8
  %iter = alloca %"__private::push_lifetime::Lifetime", align 8
  %_6 = alloca %"__private::push_lifetime::Lifetime", align 8
  %_5 = alloca %"__private::push_lifetime::Lifetime", align 8
  %2 = bitcast %"proc_macro2::imp::TokenStream"* %self to i64*
  %_3 = load i64, i64* %2, align 8, !range !3
  switch i64 %_3, label %bb2 [
    i64 0, label %bb3
    i64 1, label %bb1
  ]

bb2:                                              ; preds = %start
  unreachable

bb3:                                              ; preds = %start
  %3 = bitcast %"proc_macro2::imp::TokenStream"* %self to %"proc_macro2::imp::TokenStream::Compiler"*
  %tts1 = getelementptr inbounds %"proc_macro2::imp::TokenStream::Compiler", %"proc_macro2::imp::TokenStream::Compiler"* %3, i32 0, i32 1
  %4 = bitcast %"__private::push_lifetime::Lifetime"* %_6 to i8*
  %5 = bitcast %"__private::push_lifetime::Lifetime"* %stream to i8*
  call void @llvm.memcpy.p0i8.p0i8.i64(i8* align 8 %4, i8* align 8 %5, i64 24, i1 false)
; call <I as core::iter::traits::collect::IntoIterator>::into_iter
  call void @"_ZN63_$LT$I$u20$as$u20$core..iter..traits..collect..IntoIterator$GT$9into_iter17h11dd611fdb382074E"(%"__private::push_lifetime::Lifetime"* noalias nocapture sret(%"__private::push_lifetime::Lifetime") dereferenceable(24) %_5, %"__private::push_lifetime::Lifetime"* noalias nocapture dereferenceable(24) %_6)
  br label %bb4

bb1:                                              ; preds = %start
  %6 = bitcast %"proc_macro2::imp::TokenStream"* %self to %"proc_macro2::imp::TokenStream::Fallback"*
  %tts = getelementptr inbounds %"proc_macro2::imp::TokenStream::Fallback", %"proc_macro2::imp::TokenStream::Fallback"* %6, i32 0, i32 1
  %7 = bitcast %"__private::push_lifetime::Lifetime"* %_19 to i8*
  %8 = bitcast %"__private::push_lifetime::Lifetime"* %stream to i8*
  call void @llvm.memcpy.p0i8.p0i8.i64(i8* align 8 %7, i8* align 8 %8, i64 24, i1 false)
; call <proc_macro2::fallback::TokenStream as core::iter::traits::collect::Extend<proc_macro2::TokenTree>>::extend
  call void @"_ZN120_$LT$proc_macro2..fallback..TokenStream$u20$as$u20$core..iter..traits..collect..Extend$LT$proc_macro2..TokenTree$GT$$GT$6extend17h04e9baba91abd9acE"(%"proc_macro2::fallback::TokenStream"* align 8 dereferenceable(24) %tts, %"__private::push_lifetime::Lifetime"* noalias nocapture dereferenceable(24) %_19)
  br label %bb12

bb12:                                             ; preds = %bb9, %bb1
  ret void

bb4:                                              ; preds = %bb3
  %9 = bitcast %"__private::push_lifetime::Lifetime"* %iter to i8*
  %10 = bitcast %"__private::push_lifetime::Lifetime"* %_5 to i8*
  call void @llvm.memcpy.p0i8.p0i8.i64(i8* align 8 %9, i8* align 8 %10, i64 24, i1 false)
  br label %bb5

bb5:                                              ; preds = %bb11, %bb4
; invoke <quote::__private::push_lifetime::Lifetime as core::iter::traits::iterator::Iterator>::next
  invoke void @"_ZN100_$LT$quote..__private..push_lifetime..Lifetime$u20$as$u20$core..iter..traits..iterator..Iterator$GT$4next17hb81079e094749d32E"(%"core::option::Option<proc_macro2::TokenTree>"* noalias nocapture sret(%"core::option::Option<proc_macro2::TokenTree>") dereferenceable(48) %_8, %"__private::push_lifetime::Lifetime"* align 8 dereferenceable(24) %iter)
          to label %bb6 unwind label %cleanup

bb6:                                              ; preds = %bb5
  %11 = bitcast %"core::option::Option<proc_macro2::TokenTree>"* %_8 to i32*
  %12 = load i32, i32* %11, align 8, !range !7
  %13 = sub i32 %12, 4
  %14 = icmp eq i32 %13, 0
  %_11 = select i1 %14, i64 0, i64 1
  switch i64 %_11, label %bb8 [
    i64 0, label %bb9
    i64 1, label %bb7
  ]

bb13:                                             ; preds = %bb15, %cleanup
  br label %bb14

cleanup:                                          ; preds = %bb5
  %15 = landingpad { i8*, i32 }
          cleanup
  %16 = extractvalue { i8*, i32 } %15, 0
  %17 = extractvalue { i8*, i32 } %15, 1
  %18 = getelementptr inbounds { i8*, i32 }, { i8*, i32 }* %1, i32 0, i32 0
  store i8* %16, i8** %18, align 8
  %19 = getelementptr inbounds { i8*, i32 }, { i8*, i32 }* %1, i32 0, i32 1
  store i32 %17, i32* %19, align 8
  br label %bb13

bb8:                                              ; preds = %bb6
  unreachable

bb9:                                              ; preds = %bb6
  br label %bb12

bb7:                                              ; preds = %bb6
  %20 = bitcast %"core::option::Option<proc_macro2::TokenTree>"* %_8 to %"core::option::Option<proc_macro2::TokenTree>::Some"*
  %21 = bitcast %"core::option::Option<proc_macro2::TokenTree>::Some"* %20 to %"proc_macro2::TokenTree"*
  %22 = bitcast %"proc_macro2::TokenTree"* %token to i8*
  %23 = bitcast %"proc_macro2::TokenTree"* %21 to i8*
  call void @llvm.memcpy.p0i8.p0i8.i64(i8* align 8 %22, i8* align 8 %23, i64 48, i1 false)
  %_14 = bitcast %"proc_macro2::imp::DeferredTokenStream"* %tts1 to %"alloc::vec::Vec<proc_macro::TokenTree>"*
  %24 = bitcast %"proc_macro2::TokenTree"* %_16 to i8*
  %25 = bitcast %"proc_macro2::TokenTree"* %token to i8*
  call void @llvm.memcpy.p0i8.p0i8.i64(i8* align 8 %24, i8* align 8 %25, i64 48, i1 false)
; invoke proc_macro2::imp::into_compiler_token
  %26 = invoke i64 @_ZN11proc_macro23imp19into_compiler_token17h368fd4a54b3bd84dE(%"proc_macro2::TokenTree"* noalias nocapture dereferenceable(48) %_16)
          to label %bb10 unwind label %cleanup2

bb10:                                             ; preds = %bb7
  store i64 %26, i64* %0, align 8
  %27 = bitcast %"proc_macro::TokenTree"* %_15 to i8*
  %28 = bitcast i64* %0 to i8*
  call void @llvm.memcpy.p0i8.p0i8.i64(i8* align 4 %27, i8* align 8 %28, i64 8, i1 false)
  %29 = bitcast %"proc_macro::TokenTree"* %_15 to i64*
  %30 = load i64, i64* %29, align 4
; invoke alloc::vec::Vec<T,A>::push
  invoke void @"_ZN5alloc3vec16Vec$LT$T$C$A$GT$4push17hf09c316c891ae082E"(%"alloc::vec::Vec<proc_macro::TokenTree>"* align 8 dereferenceable(24) %_14, i64 %30)
          to label %bb11 unwind label %cleanup2

bb15:                                             ; preds = %cleanup2
  br label %bb13

cleanup2:                                         ; preds = %bb10, %bb7
  %31 = landingpad { i8*, i32 }
          cleanup
  %32 = extractvalue { i8*, i32 } %31, 0
  %33 = extractvalue { i8*, i32 } %31, 1
  %34 = getelementptr inbounds { i8*, i32 }, { i8*, i32 }* %1, i32 0, i32 0
  store i8* %32, i8** %34, align 8
  %35 = getelementptr inbounds { i8*, i32 }, { i8*, i32 }* %1, i32 0, i32 1
  store i32 %33, i32* %35, align 8
  br label %bb15

bb11:                                             ; preds = %bb10
  br label %bb5

bb14:                                             ; preds = %bb13
  %36 = bitcast { i8*, i32 }* %1 to i8**
  %37 = load i8*, i8** %36, align 8
  %38 = getelementptr inbounds { i8*, i32 }, { i8*, i32 }* %1, i32 0, i32 1
  %39 = load i32, i32* %38, align 8
  %40 = insertvalue { i8*, i32 } undef, i8* %37, 0
  %41 = insertvalue { i8*, i32 } %40, i32 %39, 1
  resume { i8*, i32 } %41
}

; <proc_macro2::imp::TokenStream as core::iter::traits::collect::Extend<proc_macro2::TokenTree>>::extend
; Function Attrs: nonlazybind uwtable
define void @"_ZN115_$LT$proc_macro2..imp..TokenStream$u20$as$u20$core..iter..traits..collect..Extend$LT$proc_macro2..TokenTree$GT$$GT$6extend17h92158a569e0aeb07E"(%"proc_macro2::imp::TokenStream"* align 8 dereferenceable(40) %self, %"core::iter::sources::once::Once<proc_macro2::TokenTree>"* noalias nocapture dereferenceable(48) %stream) unnamed_addr #1 personality i32 (i32, i32, i64, %"unwind::libunwind::_Unwind_Exception"*, %"unwind::libunwind::_Unwind_Context"*)* @rust_eh_personality {
start:
  %0 = alloca i64, align 8
  %1 = alloca { i8*, i32 }, align 8
  %_19 = alloca %"core::iter::sources::once::Once<proc_macro2::TokenTree>", align 8
  %_16 = alloca %"proc_macro2::TokenTree", align 8
  %_15 = alloca %"proc_macro::TokenTree", align 4
  %token = alloca %"proc_macro2::TokenTree", align 8
  %_8 = alloca %"core::option::Option<proc_macro2::TokenTree>", align 8
  %iter = alloca %"core::iter::sources::once::Once<proc_macro2::TokenTree>", align 8
  %_6 = alloca %"core::iter::sources::once::Once<proc_macro2::TokenTree>", align 8
  %_5 = alloca %"core::iter::sources::once::Once<proc_macro2::TokenTree>", align 8
  %2 = bitcast %"proc_macro2::imp::TokenStream"* %self to i64*
  %_3 = load i64, i64* %2, align 8, !range !3
  switch i64 %_3, label %bb2 [
    i64 0, label %bb3
    i64 1, label %bb1
  ]

bb2:                                              ; preds = %start
  unreachable

bb3:                                              ; preds = %start
  %3 = bitcast %"proc_macro2::imp::TokenStream"* %self to %"proc_macro2::imp::TokenStream::Compiler"*
  %tts1 = getelementptr inbounds %"proc_macro2::imp::TokenStream::Compiler", %"proc_macro2::imp::TokenStream::Compiler"* %3, i32 0, i32 1
  %4 = bitcast %"core::iter::sources::once::Once<proc_macro2::TokenTree>"* %_6 to i8*
  %5 = bitcast %"core::iter::sources::once::Once<proc_macro2::TokenTree>"* %stream to i8*
  call void @llvm.memcpy.p0i8.p0i8.i64(i8* align 8 %4, i8* align 8 %5, i64 48, i1 false)
; call <I as core::iter::traits::collect::IntoIterator>::into_iter
  call void @"_ZN63_$LT$I$u20$as$u20$core..iter..traits..collect..IntoIterator$GT$9into_iter17hc06d4541d4fa128aE"(%"core::iter::sources::once::Once<proc_macro2::TokenTree>"* noalias nocapture sret(%"core::iter::sources::once::Once<proc_macro2::TokenTree>") dereferenceable(48) %_5, %"core::iter::sources::once::Once<proc_macro2::TokenTree>"* noalias nocapture dereferenceable(48) %_6)
  br label %bb4

bb1:                                              ; preds = %start
  %6 = bitcast %"proc_macro2::imp::TokenStream"* %self to %"proc_macro2::imp::TokenStream::Fallback"*
  %tts = getelementptr inbounds %"proc_macro2::imp::TokenStream::Fallback", %"proc_macro2::imp::TokenStream::Fallback"* %6, i32 0, i32 1
  %7 = bitcast %"core::iter::sources::once::Once<proc_macro2::TokenTree>"* %_19 to i8*
  %8 = bitcast %"core::iter::sources::once::Once<proc_macro2::TokenTree>"* %stream to i8*
  call void @llvm.memcpy.p0i8.p0i8.i64(i8* align 8 %7, i8* align 8 %8, i64 48, i1 false)
; call <proc_macro2::fallback::TokenStream as core::iter::traits::collect::Extend<proc_macro2::TokenTree>>::extend
  call void @"_ZN120_$LT$proc_macro2..fallback..TokenStream$u20$as$u20$core..iter..traits..collect..Extend$LT$proc_macro2..TokenTree$GT$$GT$6extend17heea96e09bcc83233E"(%"proc_macro2::fallback::TokenStream"* align 8 dereferenceable(24) %tts, %"core::iter::sources::once::Once<proc_macro2::TokenTree>"* noalias nocapture dereferenceable(48) %_19)
  br label %bb12

bb12:                                             ; preds = %bb9, %bb1
  ret void

bb4:                                              ; preds = %bb3
  %9 = bitcast %"core::iter::sources::once::Once<proc_macro2::TokenTree>"* %iter to i8*
  %10 = bitcast %"core::iter::sources::once::Once<proc_macro2::TokenTree>"* %_5 to i8*
  call void @llvm.memcpy.p0i8.p0i8.i64(i8* align 8 %9, i8* align 8 %10, i64 48, i1 false)
  br label %bb5

bb5:                                              ; preds = %bb11, %bb4
; invoke <core::iter::sources::once::Once<T> as core::iter::traits::iterator::Iterator>::next
  invoke void @"_ZN99_$LT$core..iter..sources..once..Once$LT$T$GT$$u20$as$u20$core..iter..traits..iterator..Iterator$GT$4next17h45e23ac9c078845dE"(%"core::option::Option<proc_macro2::TokenTree>"* noalias nocapture sret(%"core::option::Option<proc_macro2::TokenTree>") dereferenceable(48) %_8, %"core::iter::sources::once::Once<proc_macro2::TokenTree>"* align 8 dereferenceable(48) %iter)
          to label %bb6 unwind label %cleanup

bb6:                                              ; preds = %bb5
  %11 = bitcast %"core::option::Option<proc_macro2::TokenTree>"* %_8 to i32*
  %12 = load i32, i32* %11, align 8, !range !7
  %13 = sub i32 %12, 4
  %14 = icmp eq i32 %13, 0
  %_11 = select i1 %14, i64 0, i64 1
  switch i64 %_11, label %bb8 [
    i64 0, label %bb9
    i64 1, label %bb7
  ]

bb13:                                             ; preds = %bb15, %cleanup
; call core::ptr::drop_in_place<core::iter::sources::once::Once<proc_macro2::TokenTree>>
  call void @"_ZN4core3ptr82drop_in_place$LT$core..iter..sources..once..Once$LT$proc_macro2..TokenTree$GT$$GT$17hcbec68089246a5ddE"(%"core::iter::sources::once::Once<proc_macro2::TokenTree>"* %iter) #10
  br label %bb14

cleanup:                                          ; preds = %bb5
  %15 = landingpad { i8*, i32 }
          cleanup
  %16 = extractvalue { i8*, i32 } %15, 0
  %17 = extractvalue { i8*, i32 } %15, 1
  %18 = getelementptr inbounds { i8*, i32 }, { i8*, i32 }* %1, i32 0, i32 0
  store i8* %16, i8** %18, align 8
  %19 = getelementptr inbounds { i8*, i32 }, { i8*, i32 }* %1, i32 0, i32 1
  store i32 %17, i32* %19, align 8
  br label %bb13

bb8:                                              ; preds = %bb6
  unreachable

bb9:                                              ; preds = %bb6
; call core::ptr::drop_in_place<core::iter::sources::once::Once<proc_macro2::TokenTree>>
  call void @"_ZN4core3ptr82drop_in_place$LT$core..iter..sources..once..Once$LT$proc_macro2..TokenTree$GT$$GT$17hcbec68089246a5ddE"(%"core::iter::sources::once::Once<proc_macro2::TokenTree>"* %iter)
  br label %bb12

bb7:                                              ; preds = %bb6
  %20 = bitcast %"core::option::Option<proc_macro2::TokenTree>"* %_8 to %"core::option::Option<proc_macro2::TokenTree>::Some"*
  %21 = bitcast %"core::option::Option<proc_macro2::TokenTree>::Some"* %20 to %"proc_macro2::TokenTree"*
  %22 = bitcast %"proc_macro2::TokenTree"* %token to i8*
  %23 = bitcast %"proc_macro2::TokenTree"* %21 to i8*
  call void @llvm.memcpy.p0i8.p0i8.i64(i8* align 8 %22, i8* align 8 %23, i64 48, i1 false)
  %_14 = bitcast %"proc_macro2::imp::DeferredTokenStream"* %tts1 to %"alloc::vec::Vec<proc_macro::TokenTree>"*
  %24 = bitcast %"proc_macro2::TokenTree"* %_16 to i8*
  %25 = bitcast %"proc_macro2::TokenTree"* %token to i8*
  call void @llvm.memcpy.p0i8.p0i8.i64(i8* align 8 %24, i8* align 8 %25, i64 48, i1 false)
; invoke proc_macro2::imp::into_compiler_token
  %26 = invoke i64 @_ZN11proc_macro23imp19into_compiler_token17h368fd4a54b3bd84dE(%"proc_macro2::TokenTree"* noalias nocapture dereferenceable(48) %_16)
          to label %bb10 unwind label %cleanup2

bb10:                                             ; preds = %bb7
  store i64 %26, i64* %0, align 8
  %27 = bitcast %"proc_macro::TokenTree"* %_15 to i8*
  %28 = bitcast i64* %0 to i8*
  call void @llvm.memcpy.p0i8.p0i8.i64(i8* align 4 %27, i8* align 8 %28, i64 8, i1 false)
  %29 = bitcast %"proc_macro::TokenTree"* %_15 to i64*
  %30 = load i64, i64* %29, align 4
; invoke alloc::vec::Vec<T,A>::push
  invoke void @"_ZN5alloc3vec16Vec$LT$T$C$A$GT$4push17hf09c316c891ae082E"(%"alloc::vec::Vec<proc_macro::TokenTree>"* align 8 dereferenceable(24) %_14, i64 %30)
          to label %bb11 unwind label %cleanup2

bb15:                                             ; preds = %cleanup2
  br label %bb13

cleanup2:                                         ; preds = %bb10, %bb7
  %31 = landingpad { i8*, i32 }
          cleanup
  %32 = extractvalue { i8*, i32 } %31, 0
  %33 = extractvalue { i8*, i32 } %31, 1
  %34 = getelementptr inbounds { i8*, i32 }, { i8*, i32 }* %1, i32 0, i32 0
  store i8* %32, i8** %34, align 8
  %35 = getelementptr inbounds { i8*, i32 }, { i8*, i32 }* %1, i32 0, i32 1
  store i32 %33, i32* %35, align 8
  br label %bb15

bb11:                                             ; preds = %bb10
  br label %bb5

bb14:                                             ; preds = %bb13
  %36 = bitcast { i8*, i32 }* %1 to i8**
  %37 = load i8*, i8** %36, align 8
  %38 = getelementptr inbounds { i8*, i32 }, { i8*, i32 }* %1, i32 0, i32 1
  %39 = load i32, i32* %38, align 8
  %40 = insertvalue { i8*, i32 } undef, i8* %37, 0
  %41 = insertvalue { i8*, i32 } %40, i32 %39, 1
  resume { i8*, i32 } %41
}

; <core::iter::adapters::flatten::FlattenCompat<I,U> as core::iter::traits::iterator::Iterator>::next
; Function Attrs: inlinehint nonlazybind uwtable
define void @"_ZN116_$LT$core..iter..adapters..flatten..FlattenCompat$LT$I$C$U$GT$$u20$as$u20$core..iter..traits..iterator..Iterator$GT$4next17h5e6fc043195880f2E"(%"core::option::Option<proc_macro2::TokenTree>"* noalias nocapture sret(%"core::option::Option<proc_macro2::TokenTree>") dereferenceable(48) %0, %"core::iter::adapters::flatten::FlattenCompat<core::iter::adapters::map::Map<core::iter::adapters::map::Map<core::iter::sources::once::Once<proc_macro2::TokenStream>, [closure@<proc_macro2::TokenStream as core::iter::traits::collect::Extend<proc_macro2::TokenStream>>::extend<core::iter::sources::once::Once<proc_macro2::TokenStream>>::{closure#0}]>, fn(proc_macro2::imp::TokenStream) -> proc_macro2::fallback::TokenStream {proc_macro2::imp::TokenStream::unwrap_stable}>, alloc::vec::into_iter::IntoIter<proc_macro2::TokenTree>>"* align 8 dereferenceable(104) %self) unnamed_addr #0 personality i32 (i32, i32, i64, %"unwind::libunwind::_Unwind_Exception"*, %"unwind::libunwind::_Unwind_Context"*)* @rust_eh_personality {
start:
  %1 = alloca { i8*, i32 }, align 8
  %_29 = alloca i8, align 1
  %_28 = alloca %"proc_macro2::fallback::TokenStream", align 8
  %_27 = alloca %"alloc::vec::into_iter::IntoIter<proc_macro2::TokenTree>", align 8
  %_26 = alloca %"core::option::Option<alloc::vec::into_iter::IntoIter<proc_macro2::TokenTree>>", align 8
  %inner = alloca %"proc_macro2::fallback::TokenStream", align 8
  %elt1 = alloca %"core::option::Option<proc_macro2::TokenTree>", align 8
  %_23 = alloca %"core::option::Option<alloc::vec::into_iter::IntoIter<proc_macro2::TokenTree>>", align 8
  %_15 = alloca i64*, align 8
  %_12 = alloca %"core::option::Option<proc_macro2::TokenTree>", align 8
  %_9 = alloca %"core::option::Option<proc_macro2::fallback::TokenStream>", align 8
  %elt = alloca %"core::option::Option<proc_macro2::TokenTree>", align 8
  %_7 = alloca %"core::option::Option<alloc::vec::into_iter::IntoIter<proc_macro2::TokenTree>>", align 8
  %_4 = alloca %"core::option::Option<proc_macro2::TokenTree>", align 8
  store i8 0, i8* %_29, align 1
  br label %bb1

bb1:                                              ; preds = %bb32, %start
  %2 = getelementptr inbounds %"core::iter::adapters::flatten::FlattenCompat<core::iter::adapters::map::Map<core::iter::adapters::map::Map<core::iter::sources::once::Once<proc_macro2::TokenStream>, [closure@<proc_macro2::TokenStream as core::iter::traits::collect::Extend<proc_macro2::TokenStream>>::extend<core::iter::sources::once::Once<proc_macro2::TokenStream>>::{closure#0}]>, fn(proc_macro2::imp::TokenStream) -> proc_macro2::fallback::TokenStream {proc_macro2::imp::TokenStream::unwrap_stable}>, alloc::vec::into_iter::IntoIter<proc_macro2::TokenTree>>", %"core::iter::adapters::flatten::FlattenCompat<core::iter::adapters::map::Map<core::iter::adapters::map::Map<core::iter::sources::once::Once<proc_macro2::TokenStream>, [closure@<proc_macro2::TokenStream as core::iter::traits::collect::Extend<proc_macro2::TokenStream>>::extend<core::iter::sources::once::Once<proc_macro2::TokenStream>>::{closure#0}]>, fn(proc_macro2::imp::TokenStream) -> proc_macro2::fallback::TokenStream {proc_macro2::imp::TokenStream::unwrap_stable}>, alloc::vec::into_iter::IntoIter<proc_macro2::TokenTree>>"* %self, i32 0, i32 1
  %3 = bitcast %"core::option::Option<alloc::vec::into_iter::IntoIter<proc_macro2::TokenTree>>"* %2 to {}**
  %4 = load {}*, {}** %3, align 8
  %5 = icmp eq {}* %4, null
  %_2 = select i1 %5, i64 0, i64 1
  %6 = icmp eq i64 %_2, 1
  br i1 %6, label %bb2, label %bb8

bb2:                                              ; preds = %bb1
  %7 = getelementptr inbounds %"core::iter::adapters::flatten::FlattenCompat<core::iter::adapters::map::Map<core::iter::adapters::map::Map<core::iter::sources::once::Once<proc_macro2::TokenStream>, [closure@<proc_macro2::TokenStream as core::iter::traits::collect::Extend<proc_macro2::TokenStream>>::extend<core::iter::sources::once::Once<proc_macro2::TokenStream>>::{closure#0}]>, fn(proc_macro2::imp::TokenStream) -> proc_macro2::fallback::TokenStream {proc_macro2::imp::TokenStream::unwrap_stable}>, alloc::vec::into_iter::IntoIter<proc_macro2::TokenTree>>", %"core::iter::adapters::flatten::FlattenCompat<core::iter::adapters::map::Map<core::iter::adapters::map::Map<core::iter::sources::once::Once<proc_macro2::TokenStream>, [closure@<proc_macro2::TokenStream as core::iter::traits::collect::Extend<proc_macro2::TokenStream>>::extend<core::iter::sources::once::Once<proc_macro2::TokenStream>>::{closure#0}]>, fn(proc_macro2::imp::TokenStream) -> proc_macro2::fallback::TokenStream {proc_macro2::imp::TokenStream::unwrap_stable}>, alloc::vec::into_iter::IntoIter<proc_macro2::TokenTree>>"* %self, i32 0, i32 1
  %8 = bitcast %"core::option::Option<alloc::vec::into_iter::IntoIter<proc_macro2::TokenTree>>"* %7 to %"core::option::Option<alloc::vec::into_iter::IntoIter<proc_macro2::TokenTree>>::Some"*
  %inner2 = bitcast %"core::option::Option<alloc::vec::into_iter::IntoIter<proc_macro2::TokenTree>>::Some"* %8 to %"alloc::vec::into_iter::IntoIter<proc_macro2::TokenTree>"*
; call <alloc::vec::into_iter::IntoIter<T,A> as core::iter::traits::iterator::Iterator>::next
  call void @"_ZN103_$LT$alloc..vec..into_iter..IntoIter$LT$T$C$A$GT$$u20$as$u20$core..iter..traits..iterator..Iterator$GT$4next17h70a5125afbb54fe8E"(%"core::option::Option<proc_macro2::TokenTree>"* noalias nocapture sret(%"core::option::Option<proc_macro2::TokenTree>") dereferenceable(48) %_4, %"alloc::vec::into_iter::IntoIter<proc_macro2::TokenTree>"* align 8 dereferenceable(32) %inner2)
  br label %bb3

bb8:                                              ; preds = %bb7, %bb1
  %_10 = bitcast %"core::iter::adapters::flatten::FlattenCompat<core::iter::adapters::map::Map<core::iter::adapters::map::Map<core::iter::sources::once::Once<proc_macro2::TokenStream>, [closure@<proc_macro2::TokenStream as core::iter::traits::collect::Extend<proc_macro2::TokenStream>>::extend<core::iter::sources::once::Once<proc_macro2::TokenStream>>::{closure#0}]>, fn(proc_macro2::imp::TokenStream) -> proc_macro2::fallback::TokenStream {proc_macro2::imp::TokenStream::unwrap_stable}>, alloc::vec::into_iter::IntoIter<proc_macro2::TokenTree>>"* %self to %"core::iter::adapters::fuse::Fuse<core::iter::adapters::map::Map<core::iter::adapters::map::Map<core::iter::sources::once::Once<proc_macro2::TokenStream>, [closure@<proc_macro2::TokenStream as core::iter::traits::collect::Extend<proc_macro2::TokenStream>>::extend<core::iter::sources::once::Once<proc_macro2::TokenStream>>::{closure#0}]>, fn(proc_macro2::imp::TokenStream) -> proc_macro2::fallback::TokenStream {proc_macro2::imp::TokenStream::unwrap_stable}>>"*
; call <core::iter::adapters::fuse::Fuse<I> as core::iter::traits::iterator::Iterator>::next
  call void @"_ZN100_$LT$core..iter..adapters..fuse..Fuse$LT$I$GT$$u20$as$u20$core..iter..traits..iterator..Iterator$GT$4next17hce9180c678db89ddE"(%"core::option::Option<proc_macro2::fallback::TokenStream>"* noalias nocapture sret(%"core::option::Option<proc_macro2::fallback::TokenStream>") dereferenceable(24) %_9, %"core::iter::adapters::fuse::Fuse<core::iter::adapters::map::Map<core::iter::adapters::map::Map<core::iter::sources::once::Once<proc_macro2::TokenStream>, [closure@<proc_macro2::TokenStream as core::iter::traits::collect::Extend<proc_macro2::TokenStream>>::extend<core::iter::sources::once::Once<proc_macro2::TokenStream>>::{closure#0}]>, fn(proc_macro2::imp::TokenStream) -> proc_macro2::fallback::TokenStream {proc_macro2::imp::TokenStream::unwrap_stable}>>"* align 8 dereferenceable(40) %_10)
  br label %bb9

bb3:                                              ; preds = %bb2
  %9 = bitcast %"core::option::Option<proc_macro2::TokenTree>"* %_4 to i32*
  %10 = load i32, i32* %9, align 8, !range !7
  %11 = sub i32 %10, 4
  %12 = icmp eq i32 %11, 0
  %_6 = select i1 %12, i64 0, i64 1
  switch i64 %_6, label %bb5 [
    i64 0, label %bb6
    i64 1, label %bb4
  ]

bb5:                                              ; preds = %bb3
  unreachable

bb6:                                              ; preds = %bb3
  %13 = bitcast %"core::option::Option<alloc::vec::into_iter::IntoIter<proc_macro2::TokenTree>>"* %_7 to {}**
  store {}* null, {}** %13, align 8
  %14 = getelementptr inbounds %"core::iter::adapters::flatten::FlattenCompat<core::iter::adapters::map::Map<core::iter::adapters::map::Map<core::iter::sources::once::Once<proc_macro2::TokenStream>, [closure@<proc_macro2::TokenStream as core::iter::traits::collect::Extend<proc_macro2::TokenStream>>::extend<core::iter::sources::once::Once<proc_macro2::TokenStream>>::{closure#0}]>, fn(proc_macro2::imp::TokenStream) -> proc_macro2::fallback::TokenStream {proc_macro2::imp::TokenStream::unwrap_stable}>, alloc::vec::into_iter::IntoIter<proc_macro2::TokenTree>>", %"core::iter::adapters::flatten::FlattenCompat<core::iter::adapters::map::Map<core::iter::adapters::map::Map<core::iter::sources::once::Once<proc_macro2::TokenStream>, [closure@<proc_macro2::TokenStream as core::iter::traits::collect::Extend<proc_macro2::TokenStream>>::extend<core::iter::sources::once::Once<proc_macro2::TokenStream>>::{closure#0}]>, fn(proc_macro2::imp::TokenStream) -> proc_macro2::fallback::TokenStream {proc_macro2::imp::TokenStream::unwrap_stable}>, alloc::vec::into_iter::IntoIter<proc_macro2::TokenTree>>"* %self, i32 0, i32 1
; invoke core::ptr::drop_in_place<core::option::Option<alloc::vec::into_iter::IntoIter<proc_macro2::TokenTree>>>
  invoke void @"_ZN4core3ptr110drop_in_place$LT$core..option..Option$LT$alloc..vec..into_iter..IntoIter$LT$proc_macro2..TokenTree$GT$$GT$$GT$17hc6df28f9c87034e8E"(%"core::option::Option<alloc::vec::into_iter::IntoIter<proc_macro2::TokenTree>>"* %14)
          to label %bb28 unwind label %cleanup

bb4:                                              ; preds = %bb3
  %15 = bitcast %"core::option::Option<proc_macro2::TokenTree>"* %elt to i8*
  %16 = bitcast %"core::option::Option<proc_macro2::TokenTree>"* %_4 to i8*
  call void @llvm.memcpy.p0i8.p0i8.i64(i8* align 8 %15, i8* align 8 %16, i64 48, i1 false)
  %17 = bitcast %"core::option::Option<proc_macro2::TokenTree>"* %0 to i8*
  %18 = bitcast %"core::option::Option<proc_macro2::TokenTree>"* %elt to i8*
  call void @llvm.memcpy.p0i8.p0i8.i64(i8* align 8 %17, i8* align 8 %18, i64 48, i1 false)
  br label %bb25

bb25:                                             ; preds = %bb24, %bb4
  ret void

bb28:                                             ; preds = %bb6
  %19 = getelementptr inbounds %"core::iter::adapters::flatten::FlattenCompat<core::iter::adapters::map::Map<core::iter::adapters::map::Map<core::iter::sources::once::Once<proc_macro2::TokenStream>, [closure@<proc_macro2::TokenStream as core::iter::traits::collect::Extend<proc_macro2::TokenStream>>::extend<core::iter::sources::once::Once<proc_macro2::TokenStream>>::{closure#0}]>, fn(proc_macro2::imp::TokenStream) -> proc_macro2::fallback::TokenStream {proc_macro2::imp::TokenStream::unwrap_stable}>, alloc::vec::into_iter::IntoIter<proc_macro2::TokenTree>>", %"core::iter::adapters::flatten::FlattenCompat<core::iter::adapters::map::Map<core::iter::adapters::map::Map<core::iter::sources::once::Once<proc_macro2::TokenStream>, [closure@<proc_macro2::TokenStream as core::iter::traits::collect::Extend<proc_macro2::TokenStream>>::extend<core::iter::sources::once::Once<proc_macro2::TokenStream>>::{closure#0}]>, fn(proc_macro2::imp::TokenStream) -> proc_macro2::fallback::TokenStream {proc_macro2::imp::TokenStream::unwrap_stable}>, alloc::vec::into_iter::IntoIter<proc_macro2::TokenTree>>"* %self, i32 0, i32 1
  %20 = bitcast %"core::option::Option<alloc::vec::into_iter::IntoIter<proc_macro2::TokenTree>>"* %19 to i8*
  %21 = bitcast %"core::option::Option<alloc::vec::into_iter::IntoIter<proc_macro2::TokenTree>>"* %_7 to i8*
  call void @llvm.memcpy.p0i8.p0i8.i64(i8* align 8 %20, i8* align 8 %21, i64 32, i1 false)
; call core::ptr::drop_in_place<core::option::Option<proc_macro2::TokenTree>>
  call void @"_ZN4core3ptr71drop_in_place$LT$core..option..Option$LT$proc_macro2..TokenTree$GT$$GT$17h8c6a5948268c77d1E"(%"core::option::Option<proc_macro2::TokenTree>"* %_4)
  br label %bb7

bb27:                                             ; preds = %cleanup
  %22 = getelementptr inbounds %"core::iter::adapters::flatten::FlattenCompat<core::iter::adapters::map::Map<core::iter::adapters::map::Map<core::iter::sources::once::Once<proc_macro2::TokenStream>, [closure@<proc_macro2::TokenStream as core::iter::traits::collect::Extend<proc_macro2::TokenStream>>::extend<core::iter::sources::once::Once<proc_macro2::TokenStream>>::{closure#0}]>, fn(proc_macro2::imp::TokenStream) -> proc_macro2::fallback::TokenStream {proc_macro2::imp::TokenStream::unwrap_stable}>, alloc::vec::into_iter::IntoIter<proc_macro2::TokenTree>>", %"core::iter::adapters::flatten::FlattenCompat<core::iter::adapters::map::Map<core::iter::adapters::map::Map<core::iter::sources::once::Once<proc_macro2::TokenStream>, [closure@<proc_macro2::TokenStream as core::iter::traits::collect::Extend<proc_macro2::TokenStream>>::extend<core::iter::sources::once::Once<proc_macro2::TokenStream>>::{closure#0}]>, fn(proc_macro2::imp::TokenStream) -> proc_macro2::fallback::TokenStream {proc_macro2::imp::TokenStream::unwrap_stable}>, alloc::vec::into_iter::IntoIter<proc_macro2::TokenTree>>"* %self, i32 0, i32 1
  %23 = bitcast %"core::option::Option<alloc::vec::into_iter::IntoIter<proc_macro2::TokenTree>>"* %22 to i8*
  %24 = bitcast %"core::option::Option<alloc::vec::into_iter::IntoIter<proc_macro2::TokenTree>>"* %_7 to i8*
  call void @llvm.memcpy.p0i8.p0i8.i64(i8* align 8 %23, i8* align 8 %24, i64 32, i1 false)
; call core::ptr::drop_in_place<core::option::Option<proc_macro2::TokenTree>>
  call void @"_ZN4core3ptr71drop_in_place$LT$core..option..Option$LT$proc_macro2..TokenTree$GT$$GT$17h8c6a5948268c77d1E"(%"core::option::Option<proc_macro2::TokenTree>"* %_4) #10
  br label %bb26

cleanup:                                          ; preds = %bb6
  %25 = landingpad { i8*, i32 }
          cleanup
  %26 = extractvalue { i8*, i32 } %25, 0
  %27 = extractvalue { i8*, i32 } %25, 1
  %28 = getelementptr inbounds { i8*, i32 }, { i8*, i32 }* %1, i32 0, i32 0
  store i8* %26, i8** %28, align 8
  %29 = getelementptr inbounds { i8*, i32 }, { i8*, i32 }* %1, i32 0, i32 1
  store i32 %27, i32* %29, align 8
  br label %bb27

bb26:                                             ; preds = %bb29, %bb31, %bb27
  %30 = bitcast { i8*, i32 }* %1 to i8**
  %31 = load i8*, i8** %30, align 8
  %32 = getelementptr inbounds { i8*, i32 }, { i8*, i32 }* %1, i32 0, i32 1
  %33 = load i32, i32* %32, align 8
  %34 = insertvalue { i8*, i32 } undef, i8* %31, 0
  %35 = insertvalue { i8*, i32 } %34, i32 %33, 1
  resume { i8*, i32 } %35

bb7:                                              ; preds = %bb28
  br label %bb8

bb9:                                              ; preds = %bb8
  %36 = bitcast %"core::option::Option<proc_macro2::fallback::TokenStream>"* %_9 to {}**
  %37 = load {}*, {}** %36, align 8
  %38 = icmp eq {}* %37, null
  %_11 = select i1 %38, i64 0, i64 1
  switch i64 %_11, label %bb11 [
    i64 0, label %bb12
    i64 1, label %bb10
  ]

bb11:                                             ; preds = %bb9
  unreachable

bb12:                                             ; preds = %bb9
  %_17 = getelementptr inbounds %"core::iter::adapters::flatten::FlattenCompat<core::iter::adapters::map::Map<core::iter::adapters::map::Map<core::iter::sources::once::Once<proc_macro2::TokenStream>, [closure@<proc_macro2::TokenStream as core::iter::traits::collect::Extend<proc_macro2::TokenStream>>::extend<core::iter::sources::once::Once<proc_macro2::TokenStream>>::{closure#0}]>, fn(proc_macro2::imp::TokenStream) -> proc_macro2::fallback::TokenStream {proc_macro2::imp::TokenStream::unwrap_stable}>, alloc::vec::into_iter::IntoIter<proc_macro2::TokenTree>>", %"core::iter::adapters::flatten::FlattenCompat<core::iter::adapters::map::Map<core::iter::adapters::map::Map<core::iter::sources::once::Once<proc_macro2::TokenStream>, [closure@<proc_macro2::TokenStream as core::iter::traits::collect::Extend<proc_macro2::TokenStream>>::extend<core::iter::sources::once::Once<proc_macro2::TokenStream>>::{closure#0}]>, fn(proc_macro2::imp::TokenStream) -> proc_macro2::fallback::TokenStream {proc_macro2::imp::TokenStream::unwrap_stable}>, alloc::vec::into_iter::IntoIter<proc_macro2::TokenTree>>"* %self, i32 0, i32 2
; call core::option::Option<T>::as_mut
  %_16 = call align 8 dereferenceable_or_null(32) i64* @"_ZN4core6option15Option$LT$T$GT$6as_mut17hda62bdbc1c68cb6bE"(%"core::option::Option<alloc::vec::into_iter::IntoIter<proc_macro2::TokenTree>>"* align 8 dereferenceable(32) %_17)
  br label %bb13

bb10:                                             ; preds = %bb9
  %39 = bitcast %"core::option::Option<proc_macro2::fallback::TokenStream>"* %_9 to %"core::option::Option<proc_macro2::fallback::TokenStream>::Some"*
  %40 = bitcast %"core::option::Option<proc_macro2::fallback::TokenStream>::Some"* %39 to %"proc_macro2::fallback::TokenStream"*
  %41 = bitcast %"proc_macro2::fallback::TokenStream"* %inner to i8*
  %42 = bitcast %"proc_macro2::fallback::TokenStream"* %40 to i8*
  call void @llvm.memcpy.p0i8.p0i8.i64(i8* align 8 %41, i8* align 8 %42, i64 24, i1 false)
  %43 = bitcast %"proc_macro2::fallback::TokenStream"* %_28 to i8*
  %44 = bitcast %"proc_macro2::fallback::TokenStream"* %inner to i8*
  call void @llvm.memcpy.p0i8.p0i8.i64(i8* align 8 %43, i8* align 8 %44, i64 24, i1 false)
; call <proc_macro2::fallback::TokenStream as core::iter::traits::collect::IntoIterator>::into_iter
  call void @"_ZN96_$LT$proc_macro2..fallback..TokenStream$u20$as$u20$core..iter..traits..collect..IntoIterator$GT$9into_iter17h647f703566f6b801E"(%"alloc::vec::into_iter::IntoIter<proc_macro2::TokenTree>"* noalias nocapture sret(%"alloc::vec::into_iter::IntoIter<proc_macro2::TokenTree>") dereferenceable(32) %_27, %"proc_macro2::fallback::TokenStream"* noalias nocapture dereferenceable(24) %_28)
  br label %bb23

bb23:                                             ; preds = %bb10
  %45 = bitcast %"core::option::Option<alloc::vec::into_iter::IntoIter<proc_macro2::TokenTree>>"* %_26 to %"core::option::Option<alloc::vec::into_iter::IntoIter<proc_macro2::TokenTree>>::Some"*
  %46 = bitcast %"core::option::Option<alloc::vec::into_iter::IntoIter<proc_macro2::TokenTree>>::Some"* %45 to %"alloc::vec::into_iter::IntoIter<proc_macro2::TokenTree>"*
  %47 = bitcast %"alloc::vec::into_iter::IntoIter<proc_macro2::TokenTree>"* %46 to i8*
  %48 = bitcast %"alloc::vec::into_iter::IntoIter<proc_macro2::TokenTree>"* %_27 to i8*
  call void @llvm.memcpy.p0i8.p0i8.i64(i8* align 8 %47, i8* align 8 %48, i64 32, i1 false)
  %49 = getelementptr inbounds %"core::iter::adapters::flatten::FlattenCompat<core::iter::adapters::map::Map<core::iter::adapters::map::Map<core::iter::sources::once::Once<proc_macro2::TokenStream>, [closure@<proc_macro2::TokenStream as core::iter::traits::collect::Extend<proc_macro2::TokenStream>>::extend<core::iter::sources::once::Once<proc_macro2::TokenStream>>::{closure#0}]>, fn(proc_macro2::imp::TokenStream) -> proc_macro2::fallback::TokenStream {proc_macro2::imp::TokenStream::unwrap_stable}>, alloc::vec::into_iter::IntoIter<proc_macro2::TokenTree>>", %"core::iter::adapters::flatten::FlattenCompat<core::iter::adapters::map::Map<core::iter::adapters::map::Map<core::iter::sources::once::Once<proc_macro2::TokenStream>, [closure@<proc_macro2::TokenStream as core::iter::traits::collect::Extend<proc_macro2::TokenStream>>::extend<core::iter::sources::once::Once<proc_macro2::TokenStream>>::{closure#0}]>, fn(proc_macro2::imp::TokenStream) -> proc_macro2::fallback::TokenStream {proc_macro2::imp::TokenStream::unwrap_stable}>, alloc::vec::into_iter::IntoIter<proc_macro2::TokenTree>>"* %self, i32 0, i32 1
; invoke core::ptr::drop_in_place<core::option::Option<alloc::vec::into_iter::IntoIter<proc_macro2::TokenTree>>>
  invoke void @"_ZN4core3ptr110drop_in_place$LT$core..option..Option$LT$alloc..vec..into_iter..IntoIter$LT$proc_macro2..TokenTree$GT$$GT$$GT$17hc6df28f9c87034e8E"(%"core::option::Option<alloc::vec::into_iter::IntoIter<proc_macro2::TokenTree>>"* %49)
          to label %bb32 unwind label %cleanup3

bb32:                                             ; preds = %bb23
  %50 = getelementptr inbounds %"core::iter::adapters::flatten::FlattenCompat<core::iter::adapters::map::Map<core::iter::adapters::map::Map<core::iter::sources::once::Once<proc_macro2::TokenStream>, [closure@<proc_macro2::TokenStream as core::iter::traits::collect::Extend<proc_macro2::TokenStream>>::extend<core::iter::sources::once::Once<proc_macro2::TokenStream>>::{closure#0}]>, fn(proc_macro2::imp::TokenStream) -> proc_macro2::fallback::TokenStream {proc_macro2::imp::TokenStream::unwrap_stable}>, alloc::vec::into_iter::IntoIter<proc_macro2::TokenTree>>", %"core::iter::adapters::flatten::FlattenCompat<core::iter::adapters::map::Map<core::iter::adapters::map::Map<core::iter::sources::once::Once<proc_macro2::TokenStream>, [closure@<proc_macro2::TokenStream as core::iter::traits::collect::Extend<proc_macro2::TokenStream>>::extend<core::iter::sources::once::Once<proc_macro2::TokenStream>>::{closure#0}]>, fn(proc_macro2::imp::TokenStream) -> proc_macro2::fallback::TokenStream {proc_macro2::imp::TokenStream::unwrap_stable}>, alloc::vec::into_iter::IntoIter<proc_macro2::TokenTree>>"* %self, i32 0, i32 1
  %51 = bitcast %"core::option::Option<alloc::vec::into_iter::IntoIter<proc_macro2::TokenTree>>"* %50 to i8*
  %52 = bitcast %"core::option::Option<alloc::vec::into_iter::IntoIter<proc_macro2::TokenTree>>"* %_26 to i8*
  call void @llvm.memcpy.p0i8.p0i8.i64(i8* align 8 %51, i8* align 8 %52, i64 32, i1 false)
  br label %bb1

bb31:                                             ; preds = %cleanup3
  %53 = getelementptr inbounds %"core::iter::adapters::flatten::FlattenCompat<core::iter::adapters::map::Map<core::iter::adapters::map::Map<core::iter::sources::once::Once<proc_macro2::TokenStream>, [closure@<proc_macro2::TokenStream as core::iter::traits::collect::Extend<proc_macro2::TokenStream>>::extend<core::iter::sources::once::Once<proc_macro2::TokenStream>>::{closure#0}]>, fn(proc_macro2::imp::TokenStream) -> proc_macro2::fallback::TokenStream {proc_macro2::imp::TokenStream::unwrap_stable}>, alloc::vec::into_iter::IntoIter<proc_macro2::TokenTree>>", %"core::iter::adapters::flatten::FlattenCompat<core::iter::adapters::map::Map<core::iter::adapters::map::Map<core::iter::sources::once::Once<proc_macro2::TokenStream>, [closure@<proc_macro2::TokenStream as core::iter::traits::collect::Extend<proc_macro2::TokenStream>>::extend<core::iter::sources::once::Once<proc_macro2::TokenStream>>::{closure#0}]>, fn(proc_macro2::imp::TokenStream) -> proc_macro2::fallback::TokenStream {proc_macro2::imp::TokenStream::unwrap_stable}>, alloc::vec::into_iter::IntoIter<proc_macro2::TokenTree>>"* %self, i32 0, i32 1
  %54 = bitcast %"core::option::Option<alloc::vec::into_iter::IntoIter<proc_macro2::TokenTree>>"* %53 to i8*
  %55 = bitcast %"core::option::Option<alloc::vec::into_iter::IntoIter<proc_macro2::TokenTree>>"* %_26 to i8*
  call void @llvm.memcpy.p0i8.p0i8.i64(i8* align 8 %54, i8* align 8 %55, i64 32, i1 false)
  br label %bb26

cleanup3:                                         ; preds = %bb23
  %56 = landingpad { i8*, i32 }
          cleanup
  %57 = extractvalue { i8*, i32 } %56, 0
  %58 = extractvalue { i8*, i32 } %56, 1
  %59 = getelementptr inbounds { i8*, i32 }, { i8*, i32 }* %1, i32 0, i32 0
  store i8* %57, i8** %59, align 8
  %60 = getelementptr inbounds { i8*, i32 }, { i8*, i32 }* %1, i32 0, i32 1
  store i32 %58, i32* %60, align 8
  br label %bb31

bb13:                                             ; preds = %bb12
; call <core::option::Option<T> as core::ops::try_trait::Try>::branch
  %61 = call align 8 dereferenceable_or_null(32) i64* @"_ZN75_$LT$core..option..Option$LT$T$GT$$u20$as$u20$core..ops..try_trait..Try$GT$6branch17h79c40e09573af3c5E"(i64* align 8 dereferenceable_or_null(32) %_16)
  store i64* %61, i64** %_15, align 8
  br label %bb14

bb14:                                             ; preds = %bb13
  %62 = bitcast i64** %_15 to {}**
  %63 = load {}*, {}** %62, align 8
  %64 = icmp eq {}* %63, null
  %_18 = select i1 %64, i64 1, i64 0
  switch i64 %_18, label %bb16 [
    i64 0, label %bb15
    i64 1, label %bb17
  ]

bb16:                                             ; preds = %bb14
  unreachable

bb15:                                             ; preds = %bb14
  %65 = bitcast i64** %_15 to %"alloc::vec::into_iter::IntoIter<proc_macro2::TokenTree>"**
  %val = load %"alloc::vec::into_iter::IntoIter<proc_macro2::TokenTree>"*, %"alloc::vec::into_iter::IntoIter<proc_macro2::TokenTree>"** %65, align 8, !nonnull !5
  store i8 1, i8* %_29, align 1
; call <alloc::vec::into_iter::IntoIter<T,A> as core::iter::traits::iterator::Iterator>::next
  call void @"_ZN103_$LT$alloc..vec..into_iter..IntoIter$LT$T$C$A$GT$$u20$as$u20$core..iter..traits..iterator..Iterator$GT$4next17h70a5125afbb54fe8E"(%"core::option::Option<proc_macro2::TokenTree>"* noalias nocapture sret(%"core::option::Option<proc_macro2::TokenTree>") dereferenceable(48) %_12, %"alloc::vec::into_iter::IntoIter<proc_macro2::TokenTree>"* align 8 dereferenceable(32) %val)
  br label %bb19

bb17:                                             ; preds = %bb14
; call <core::option::Option<T> as core::ops::try_trait::FromResidual>::from_residual
  call void @"_ZN84_$LT$core..option..Option$LT$T$GT$$u20$as$u20$core..ops..try_trait..FromResidual$GT$13from_residual17h01f1ed782db96195E"(%"core::option::Option<proc_macro2::TokenTree>"* noalias nocapture sret(%"core::option::Option<proc_macro2::TokenTree>") dereferenceable(48) %0)
  br label %bb18

bb18:                                             ; preds = %bb17
  br label %bb24

bb24:                                             ; preds = %bb33, %bb34, %bb18
  store i8 0, i8* %_29, align 1
  br label %bb25

bb19:                                             ; preds = %bb15
  %66 = bitcast %"core::option::Option<proc_macro2::TokenTree>"* %_12 to i32*
  %67 = load i32, i32* %66, align 8, !range !7
  %68 = sub i32 %67, 4
  %69 = icmp eq i32 %68, 0
  %_22 = select i1 %69, i64 0, i64 1
  switch i64 %_22, label %bb21 [
    i64 0, label %bb22
    i64 1, label %bb20
  ]

bb21:                                             ; preds = %bb19
  unreachable

bb22:                                             ; preds = %bb19
  %70 = bitcast %"core::option::Option<alloc::vec::into_iter::IntoIter<proc_macro2::TokenTree>>"* %_23 to {}**
  store {}* null, {}** %70, align 8
