; ModuleID = 'unicode_xid.b665dc65-cgu.0'
source_filename = "unicode_xid.b665dc65-cgu.0"
target datalayout = "e-m:e-p270:32:32-p271:32:32-p272:64:64-i64:64-f80:128-n8:16:32:64-S128"
target triple = "x86_64-unknown-linux-gnu"

%"core::result::Result<usize, usize>::Err" = type { [1 x i64], i64 }
%"core::result::Result<usize, usize>::Ok" = type { [1 x i64], i64 }
%"core::ptr::metadata::PtrRepr<[(char, char)]>" = type { [2 x i64] }

@alloc1389 = private unnamed_addr constant <{ [1 x i8] }> <{ [1 x i8] c"\FF" }>, align 1
@alloc1391 = private unnamed_addr constant <{ [1 x i8] }> <{ [1 x i8] c"\01" }>, align 1
@alloc742 = private unnamed_addr constant <{ [5896 x i8] }> <{ [5896 x i8] c"0\00\00\009\00\00\00A\00\00\00Z\00\00\00_\00\00\00_\00\00\00a\00\00\00z\00\00\00\AA\00\00\00\AA\00\00\00\B5\00\00\00\B5\00\00\00\B7\00\00\00\B7\00\00\00\BA\00\00\00\BA\00\00\00\C0\00\00\00\D6\00\00\00\D8\00\00\00\F6\00\00\00\F8\00\00\00\C1\02\00\00\C6\02\00\00\D1\02\00\00\E0\02\00\00\E4\02\00\00\EC\02\00\00\EC\02\00\00\EE\02\00\00\EE\02\00\00\00\03\00\00t\03\00\00v\03\00\00w\03\00\00{\03\00\00}\03\00\00\7F\03\00\00\7F\03\00\00\86\03\00\00\8A\03\00\00\8C\03\00\00\8C\03\00\00\8E\03\00\00\A1\03\00\00\A3\03\00\00\F5\03\00\00\F7\03\00\00\81\04\00\00\83\04\00\00\87\04\00\00\8A\04\00\00/\05\00\001\05\00\00V\05\00\00Y\05\00\00Y\05\00\00`\05\00\00\88\05\00\00\91\05\00\00\BD\05\00\00\BF\05\00\00\BF\05\00\00\C1\05\00\00\C2\05\00\00\C4\05\00\00\C5\05\00\00\C7\05\00\00\C7\05\00\00\D0\05\00\00\EA\05\00\00\EF\05\00\00\F2\05\00\00\10\06\00\00\1A\06\00\00 \06\00\00i\06\00\00n\06\00\00\D3\06\00\00\D5\06\00\00\DC\06\00\00\DF\06\00\00\E8\06\00\00\EA\06\00\00\FC\06\00\00\FF\06\00\00\FF\06\00\00\10\07\00\00J\07\00\00M\07\00\00\B1\07\00\00\C0\07\00\00\F5\07\00\00\FA\07\00\00\FA\07\00\00\FD\07\00\00\FD\07\00\00\00\08\00\00-\08\00\00@\08\00\00[\08\00\00`\08\00\00j\08\00\00\A0\08\00\00\B4\08\00\00\B6\08\00\00\C7\08\00\00\D3\08\00\00\E1\08\00\00\E3\08\00\00c\09\00\00f\09\00\00o\09\00\00q\09\00\00\83\09\00\00\85\09\00\00\8C\09\00\00\8F\09\00\00\90\09\00\00\93\09\00\00\A8\09\00\00\AA\09\00\00\B0\09\00\00\B2\09\00\00\B2\09\00\00\B6\09\00\00\B9\09\00\00\BC\09\00\00\C4\09\00\00\C7\09\00\00\C8\09\00\00\CB\09\00\00\CE\09\00\00\D7\09\00\00\D7\09\00\00\DC\09\00\00\DD\09\00\00\DF\09\00\00\E3\09\00\00\E6\09\00\00\F1\09\00\00\FC\09\00\00\FC\09\00\00\FE\09\00\00\FE\09\00\00\01\0A\00\00\03\0A\00\00\05\0A\00\00\0A\0A\00\00\0F\0A\00\00\10\0A\00\00\13\0A\00\00(\0A\00\00*\0A\00\000\0A\00\002\0A\00\003\0A\00\005\0A\00\006\0A\00\008\0A\00\009\0A\00\00<\0A\00\00<\0A\00\00>\0A\00\00B\0A\00\00G\0A\00\00H\0A\00\00K\0A\00\00M\0A\00\00Q\0A\00\00Q\0A\00\00Y\0A\00\00\\\0A\00\00^\0A\00\00^\0A\00\00f\0A\00\00u\0A\00\00\81\0A\00\00\83\0A\00\00\85\0A\00\00\8D\0A\00\00\8F\0A\00\00\91\0A\00\00\93\0A\00\00\A8\0A\00\00\AA\0A\00\00\B0\0A\00\00\B2\0A\00\00\B3\0A\00\00\B5\0A\00\00\B9\0A\00\00\BC\0A\00\00\C5\0A\00\00\C7\0A\00\00\C9\0A\00\00\CB\0A\00\00\CD\0A\00\00\D0\0A\00\00\D0\0A\00\00\E0\0A\00\00\E3\0A\00\00\E6\0A\00\00\EF\0A\00\00\F9\0A\00\00\FF\0A\00\00\01\0B\00\00\03\0B\00\00\05\0B\00\00\0C\0B\00\00\0F\0B\00\00\10\0B\00\00\13\0B\00\00(\0B\00\00*\0B\00\000\0B\00\002\0B\00\003\0B\00\005\0B\00\009\0B\00\00<\0B\00\00D\0B\00\00G\0B\00\00H\0B\00\00K\0B\00\00M\0B\00\00U\0B\00\00W\0B\00\00\\\0B\00\00]\0B\00\00_\0B\00\00c\0B\00\00f\0B\00\00o\0B\00\00q\0B\00\00q\0B\00\00\82\0B\00\00\83\0B\00\00\85\0B\00\00\8A\0B\00\00\8E\0B\00\00\90\0B\00\00\92\0B\00\00\95\0B\00\00\99\0B\00\00\9A\0B\00\00\9C\0B\00\00\9C\0B\00\00\9E\0B\00\00\9F\0B\00\00\A3\0B\00\00\A4\0B\00\00\A8\0B\00\00\AA\0B\00\00\AE\0B\00\00\B9\0B\00\00\BE\0B\00\00\C2\0B\00\00\C6\0B\00\00\C8\0B\00\00\CA\0B\00\00\CD\0B\00\00\D0\0B\00\00\D0\0B\00\00\D7\0B\00\00\D7\0B\00\00\E6\0B\00\00\EF\0B\00\00\00\0C\00\00\0C\0C\00\00\0E\0C\00\00\10\0C\00\00\12\0C\00\00(\0C\00\00*\0C\00\009\0C\00\00=\0C\00\00D\0C\00\00F\0C\00\00H\0C\00\00J\0C\00\00M\0C\00\00U\0C\00\00V\0C\00\00X\0C\00\00Z\0C\00\00`\0C\00\00c\0C\00\00f\0C\00\00o\0C\00\00\80\0C\00\00\83\0C\00\00\85\0C\00\00\8C\0C\00\00\8E\0C\00\00\90\0C\00\00\92\0C\00\00\A8\0C\00\00\AA\0C\00\00\B3\0C\00\00\B5\0C\00\00\B9\0C\00\00\BC\0C\00\00\C4\0C\00\00\C6\0C\00\00\C8\0C\00\00\CA\0C\00\00\CD\0C\00\00\D5\0C\00\00\D6\0C\00\00\DE\0C\00\00\DE\0C\00\00\E0\0C\00\00\E3\0C\00\00\E6\0C\00\00\EF\0C\00\00\F1\0C\00\00\F2\0C\00\00\00\0D\00\00\0C\0D\00\00\0E\0D\00\00\10\0D\00\00\12\0D\00\00D\0D\00\00F\0D\00\00H\0D\00\00J\0D\00\00N\0D\00\00T\0D\00\00W\0D\00\00_\0D\00\00c\0D\00\00f\0D\00\00o\0D\00\00z\0D\00\00\7F\0D\00\00\81\0D\00\00\83\0D\00\00\85\0D\00\00\96\0D\00\00\9A\0D\00\00\B1\0D\00\00\B3\0D\00\00\BB\0D\00\00\BD\0D\00\00\BD\0D\00\00\C0\0D\00\00\C6\0D\00\00\CA\0D\00\00\CA\0D\00\00\CF\0D\00\00\D4\0D\00\00\D6\0D\00\00\D6\0D\00\00\D8\0D\00\00\DF\0D\00\00\E6\0D\00\00\EF\0D\00\00\F2\0D\00\00\F3\0D\00\00\01\0E\00\00:\0E\00\00@\0E\00\00N\0E\00\00P\0E\00\00Y\0E\00\00\81\0E\00\00\82\0E\00\00\84\0E\00\00\84\0E\00\00\86\0E\00\00\8A\0E\00\00\8C\0E\00\00\A3\0E\00\00\A5\0E\00\00\A5\0E\00\00\A7\0E\00\00\BD\0E\00\00\C0\0E\00\00\C4\0E\00\00\C6\0E\00\00\C6\0E\00\00\C8\0E\00\00\CD\0E\00\00\D0\0E\00\00\D9\0E\00\00\DC\0E\00\00\DF\0E\00\00\00\0F\00\00\00\0F\00\00\18\0F\00\00\19\0F\00\00 \0F\00\00)\0F\00\005\0F\00\005\0F\00\007\0F\00\007\0F\00\009\0F\00\009\0F\00\00>\0F\00\00G\0F\00\00I\0F\00\00l\0F\00\00q\0F\00\00\84\0F\00\00\86\0F\00\00\97\0F\00\00\99\0F\00\00\BC\0F\00\00\C6\0F\00\00\C6\0F\00\00\00\10\00\00I\10\00\00P\10\00\00\9D\10\00\00\A0\10\00\00\C5\10\00\00\C7\10\00\00\C7\10\00\00\CD\10\00\00\CD\10\00\00\D0\10\00\00\FA\10\00\00\FC\10\00\00H\12\00\00J\12\00\00M\12\00\00P\12\00\00V\12\00\00X\12\00\00X\12\00\00Z\12\00\00]\12\00\00`\12\00\00\88\12\00\00\8A\12\00\00\8D\12\00\00\90\12\00\00\B0\12\00\00\B2\12\00\00\B5\12\00\00\B8\12\00\00\BE\12\00\00\C0\12\00\00\C0\12\00\00\C2\12\00\00\C5\12\00\00\C8\12\00\00\D6\12\00\00\D8\12\00\00\10\13\00\00\12\13\00\00\15\13\00\00\18\13\00\00Z\13\00\00]\13\00\00_\13\00\00i\13\00\00q\13\00\00\80\13\00\00\8F\13\00\00\A0\13\00\00\F5\13\00\00\F8\13\00\00\FD\13\00\00\01\14\00\00l\16\00\00o\16\00\00\7F\16\00\00\81\16\00\00\9A\16\00\00\A0\16\00\00\EA\16\00\00\EE\16\00\00\F8\16\00\00\00\17\00\00\0C\17\00\00\0E\17\00\00\14\17\00\00 \17\00\004\17\00\00@\17\00\00S\17\00\00`\17\00\00l\17\00\00n\17\00\00p\17\00\00r\17\00\00s\17\00\00\80\17\00\00\D3\17\00\00\D7\17\00\00\D7\17\00\00\DC\17\00\00\DD\17\00\00\E0\17\00\00\E9\17\00\00\0B\18\00\00\0D\18\00\00\10\18\00\00\19\18\00\00 \18\00\00x\18\00\00\80\18\00\00\AA\18\00\00\B0\18\00\00\F5\18\00\00\00\19\00\00\1E\19\00\00 \19\00\00+\19\00\000\19\00\00;\19\00\00F\19\00\00m\19\00\00p\19\00\00t\19\00\00\80\19\00\00\AB\19\00\00\B0\19\00\00\C9\19\00\00\D0\19\00\00\DA\19\00\00\00\1A\00\00\1B\1A\00\00 \1A\00\00^\1A\00\00`\1A\00\00|\1A\00\00\7F\1A\00\00\89\1A\00\00\90\1A\00\00\99\1A\00\00\A7\1A\00\00\A7\1A\00\00\B0\1A\00\00\BD\1A\00\00\BF\1A\00\00\C0\1A\00\00\00\1B\00\00K\1B\00\00P\1B\00\00Y\1B\00\00k\1B\00\00s\1B\00\00\80\1B\00\00\F3\1B\00\00\00\1C\00\007\1C\00\00@\1C\00\00I\1C\00\00M\1C\00\00}\1C\00\00\80\1C\00\00\88\1C\00\00\90\1C\00\00\BA\1C\00\00\BD\1C\00\00\BF\1C\00\00\D0\1C\00\00\D2\1C\00\00\D4\1C\00\00\FA\1C\00\00\00\1D\00\00\F9\1D\00\00\FB\1D\00\00\15\1F\00\00\18\1F\00\00\1D\1F\00\00 \1F\00\00E\1F\00\00H\1F\00\00M\1F\00\00P\1F\00\00W\1F\00\00Y\1F\00\00Y\1F\00\00[\1F\00\00[\1F\00\00]\1F\00\00]\1F\00\00_\1F\00\00}\1F\00\00\80\1F\00\00\B4\1F\00\00\B6\1F\00\00\BC\1F\00\00\BE\1F\00\00\BE\1F\00\00\C2\1F\00\00\C4\1F\00\00\C6\1F\00\00\CC\1F\00\00\D0\1F\00\00\D3\1F\00\00\D6\1F\00\00\DB\1F\00\00\E0\1F\00\00\EC\1F\00\00\F2\1F\00\00\F4\1F\00\00\F6\1F\00\00\FC\1F\00\00? \00\00@ \00\00T \00\00T \00\00q \00\00q \00\00\7F \00\00\7F \00\00\90 \00\00\9C \00\00\D0 \00\00\DC \00\00\E1 \00\00\E1 \00\00\E5 \00\00\F0 \00\00\02!\00\00\02!\00\00\07!\00\00\07!\00\00\0A!\00\00\13!\00\00\15!\00\00\15!\00\00\18!\00\00\1D!\00\00$!\00\00$!\00\00&!\00\00&!\00\00(!\00\00(!\00\00*!\00\009!\00\00<!\00\00?!\00\00E!\00\00I!\00\00N!\00\00N!\00\00`!\00\00\88!\00\00\00,\00\00.,\00\000,\00\00^,\00\00`,\00\00\E4,\00\00\EB,\00\00\F3,\00\00\00-\00\00%-\00\00'-\00\00'-\00\00--\00\00--\00\000-\00\00g-\00\00o-\00\00o-\00\00\7F-\00\00\96-\00\00\A0-\00\00\A6-\00\00\A8-\00\00\AE-\00\00\B0-\00\00\B6-\00\00\B8-\00\00\BE-\00\00\C0-\00\00\C6-\00\00\C8-\00\00\CE-\00\00\D0-\00\00\D6-\00\00\D8-\00\00\DE-\00\00\E0-\00\00\FF-\00\00\050\00\00\070\00\00!0\00\00/0\00\0010\00\0050\00\0080\00\00<0\00\00A0\00\00\960\00\00\990\00\00\9A0\00\00\9D0\00\00\9F0\00\00\A10\00\00\FA0\00\00\FC0\00\00\FF0\00\00\051\00\00/1\00\0011\00\00\8E1\00\00\A01\00\00\BF1\00\00\F01\00\00\FF1\00\00\004\00\00\BFM\00\00\00N\00\00\FC\9F\00\00\00\A0\00\00\8C\A4\00\00\D0\A4\00\00\FD\A4\00\00\00\A5\00\00\0C\A6\00\00\10\A6\00\00+\A6\00\00@\A6\00\00o\A6\00\00t\A6\00\00}\A6\00\00\7F\A6\00\00\F1\A6\00\00\17\A7\00\00\1F\A7\00\00\22\A7\00\00\88\A7\00\00\8B\A7\00\00\BF\A7\00\00\C2\A7\00\00\CA\A7\00\00\F5\A7\00\00'\A8\00\00,\A8\00\00,\A8\00\00@\A8\00\00s\A8\00\00\80\A8\00\00\C5\A8\00\00\D0\A8\00\00\D9\A8\00\00\E0\A8\00\00\F7\A8\00\00\FB\A8\00\00\FB\A8\00\00\FD\A8\00\00-\A9\00\000\A9\00\00S\A9\00\00`\A9\00\00|\A9\00\00\80\A9\00\00\C0\A9\00\00\CF\A9\00\00\D9\A9\00\00\E0\A9\00\00\FE\A9\00\00\00\AA\00\006\AA\00\00@\AA\00\00M\AA\00\00P\AA\00\00Y\AA\00\00`\AA\00\00v\AA\00\00z\AA\00\00\C2\AA\00\00\DB\AA\00\00\DD\AA\00\00\E0\AA\00\00\EF\AA\00\00\F2\AA\00\00\F6\AA\00\00\01\AB\00\00\06\AB\00\00\09\AB\00\00\0E\AB\00\00\11\AB\00\00\16\AB\00\00 \AB\00\00&\AB\00\00(\AB\00\00.\AB\00\000\AB\00\00Z\AB\00\00\\\AB\00\00i\AB\00\00p\AB\00\00\EA\AB\00\00\EC\AB\00\00\ED\AB\00\00\F0\AB\00\00\F9\AB\00\00\00\AC\00\00\A3\D7\00\00\B0\D7\00\00\C6\D7\00\00\CB\D7\00\00\FB\D7\00\00\00\F9\00\00m\FA\00\00p\FA\00\00\D9\FA\00\00\00\FB\00\00\06\FB\00\00\13\FB\00\00\17\FB\00\00\1D\FB\00\00(\FB\00\00*\FB\00\006\FB\00\008\FB\00\00<\FB\00\00>\FB\00\00>\FB\00\00@\FB\00\00A\FB\00\00C\FB\00\00D\FB\00\00F\FB\00\00\B1\FB\00\00\D3\FB\00\00]\FC\00\00d\FC\00\00=\FD\00\00P\FD\00\00\8F\FD\00\00\92\FD\00\00\C7\FD\00\00\F0\FD\00\00\F9\FD\00\00\00\FE\00\00\0F\FE\00\00 \FE\00\00/\FE\00\003\FE\00\004\FE\00\00M\FE\00\00O\FE\00\00q\FE\00\00q\FE\00\00s\FE\00\00s\FE\00\00w\FE\00\00w\FE\00\00y\FE\00\00y\FE\00\00{\FE\00\00{\FE\00\00}\FE\00\00}\FE\00\00\7F\FE\00\00\FC\FE\00\00\10\FF\00\00\19\FF\00\00!\FF\00\00:\FF\00\00?\FF\00\00?\FF\00\00A\FF\00\00Z\FF\00\00f\FF\00\00\BE\FF\00\00\C2\FF\00\00\C7\FF\00\00\CA\FF\00\00\CF\FF\00\00\D2\FF\00\00\D7\FF\00\00\DA\FF\00\00\DC\FF\00\00\00\00\01\00\0B\00\01\00\0D\00\01\00&\00\01\00(\00\01\00:\00\01\00<\00\01\00=\00\01\00?\00\01\00M\00\01\00P\00\01\00]\00\01\00\80\00\01\00\FA\00\01\00@\01\01\00t\01\01\00\FD\01\01\00\FD\01\01\00\80\02\01\00\9C\02\01\00\A0\02\01\00\D0\02\01\00\E0\02\01\00\E0\02\01\00\00\03\01\00\1F\03\01\00-\03\01\00J\03\01\00P\03\01\00z\03\01\00\80\03\01\00\9D\03\01\00\A0\03\01\00\C3\03\01\00\C8\03\01\00\CF\03\01\00\D1\03\01\00\D5\03\01\00\00\04\01\00\9D\04\01\00\A0\04\01\00\A9\04\01\00\B0\04\01\00\D3\04\01\00\D8\04\01\00\FB\04\01\00\00\05\01\00'\05\01\000\05\01\00c\05\01\00\00\06\01\006\07\01\00@\07\01\00U\07\01\00`\07\01\00g\07\01\00\00\08\01\00\05\08\01\00\08\08\01\00\08\08\01\00\0A\08\01\005\08\01\007\08\01\008\08\01\00<\08\01\00<\08\01\00?\08\01\00U\08\01\00`\08\01\00v\08\01\00\80\08\01\00\9E\08\01\00\E0\08\01\00\F2\08\01\00\F4\08\01\00\F5\08\01\00\00\09\01\00\15\09\01\00 \09\01\009\09\01\00\80\09\01\00\B7\09\01\00\BE\09\01\00\BF\09\01\00\00\0A\01\00\03\0A\01\00\05\0A\01\00\06\0A\01\00\0C\0A\01\00\13\0A\01\00\15\0A\01\00\17\0A\01\00\19\0A\01\005\0A\01\008\0A\01\00:\0A\01\00?\0A\01\00?\0A\01\00`\0A\01\00|\0A\01\00\80\0A\01\00\9C\0A\01\00\C0\0A\01\00\C7\0A\01\00\C9\0A\01\00\E6\0A\01\00\00\0B\01\005\0B\01\00@\0B\01\00U\0B\01\00`\0B\01\00r\0B\01\00\80\0B\01\00\91\0B\01\00\00\0C\01\00H\0C\01\00\80\0C\01\00\B2\0C\01\00\C0\0C\01\00\F2\0C\01\00\00\0D\01\00'\0D\01\000\0D\01\009\0D\01\00\80\0E\01\00\A9\0E\01\00\AB\0E\01\00\AC\0E\01\00\B0\0E\01\00\B1\0E\01\00\00\0F\01\00\1C\0F\01\00'\0F\01\00'\0F\01\000\0F\01\00P\0F\01\00\B0\0F\01\00\C4\0F\01\00\E0\0F\01\00\F6\0F\01\00\00\10\01\00F\10\01\00f\10\01\00o\10\01\00\7F\10\01\00\BA\10\01\00\D0\10\01\00\E8\10\01\00\F0\10\01\00\F9\10\01\00\00\11\01\004\11\01\006\11\01\00?\11\01\00D\11\01\00G\11\01\00P\11\01\00s\11\01\00v\11\01\00v\11\01\00\80\11\01\00\C4\11\01\00\C9\11\01\00\CC\11\01\00\CE\11\01\00\DA\11\01\00\DC\11\01\00\DC\11\01\00\00\12\01\00\11\12\01\00\13\12\01\007\12\01\00>\12\01\00>\12\01\00\80\12\01\00\86\12\01\00\88\12\01\00\88\12\01\00\8A\12\01\00\8D\12\01\00\8F\12\01\00\9D\12\01\00\9F\12\01\00\A8\12\01\00\B0\12\01\00\EA\12\01\00\F0\12\01\00\F9\12\01\00\00\13\01\00\03\13\01\00\05\13\01\00\0C\13\01\00\0F\13\01\00\10\13\01\00\13\13\01\00(\13\01\00*\13\01\000\13\01\002\13\01\003\13\01\005\13\01\009\13\01\00;\13\01\00D\13\01\00G\13\01\00H\13\01\00K\13\01\00M\13\01\00P\13\01\00P\13\01\00W\13\01\00W\13\01\00]\13\01\00c\13\01\00f\13\01\00l\13\01\00p\13\01\00t\13\01\00\00\14\01\00J\14\01\00P\14\01\00Y\14\01\00^\14\01\00a\14\01\00\80\14\01\00\C5\14\01\00\C7\14\01\00\C7\14\01\00\D0\14\01\00\D9\14\01\00\80\15\01\00\B5\15\01\00\B8\15\01\00\C0\15\01\00\D8\15\01\00\DD\15\01\00\00\16\01\00@\16\01\00D\16\01\00D\16\01\00P\16\01\00Y\16\01\00\80\16\01\00\B8\16\01\00\C0\16\01\00\C9\16\01\00\00\17\01\00\1A\17\01\00\1D\17\01\00+\17\01\000\17\01\009\17\01\00\00\18\01\00:\18\01\00\A0\18\01\00\E9\18\01\00\FF\18\01\00\06\19\01\00\09\19\01\00\09\19\01\00\0C\19\01\00\13\19\01\00\15\19\01\00\16\19\01\00\18\19\01\005\19\01\007\19\01\008\19\01\00;\19\01\00C\19\01\00P\19\01\00Y\19\01\00\A0\19\01\00\A7\19\01\00\AA\19\01\00\D7\19\01\00\DA\19\01\00\E1\19\01\00\E3\19\01\00\E4\19\01\00\00\1A\01\00>\1A\01\00G\1A\01\00G\1A\01\00P\1A\01\00\99\1A\01\00\9D\1A\01\00\9D\1A\01\00\C0\1A\01\00\F8\1A\01\00\00\1C\01\00\08\1C\01\00\0A\1C\01\006\1C\01\008\1C\01\00@\1C\01\00P\1C\01\00Y\1C\01\00r\1C\01\00\8F\1C\01\00\92\1C\01\00\A7\1C\01\00\A9\1C\01\00\B6\1C\01\00\00\1D\01\00\06\1D\01\00\08\1D\01\00\09\1D\01\00\0B\1D\01\006\1D\01\00:\1D\01\00:\1D\01\00<\1D\01\00=\1D\01\00?\1D\01\00G\1D\01\00P\1D\01\00Y\1D\01\00`\1D\01\00e\1D\01\00g\1D\01\00h\1D\01\00j\1D\01\00\8E\1D\01\00\90\1D\01\00\91\1D\01\00\93\1D\01\00\98\1D\01\00\A0\1D\01\00\A9\1D\01\00\E0\1E\01\00\F6\1E\01\00\B0\1F\01\00\B0\1F\01\00\00 \01\00\99#\01\00\00$\01\00n$\01\00\80$\01\00C%\01\00\000\01\00.4\01\00\00D\01\00FF\01\00\00h\01\008j\01\00@j\01\00^j\01\00`j\01\00ij\01\00\D0j\01\00\EDj\01\00\F0j\01\00\F4j\01\00\00k\01\006k\01\00@k\01\00Ck\01\00Pk\01\00Yk\01\00ck\01\00wk\01\00}k\01\00\8Fk\01\00@n\01\00\7Fn\01\00\00o\01\00Jo\01\00Oo\01\00\87o\01\00\8Fo\01\00\9Fo\01\00\E0o\01\00\E1o\01\00\E3o\01\00\E4o\01\00\F0o\01\00\F1o\01\00\00p\01\00\F7\87\01\00\00\88\01\00\D5\8C\01\00\00\8D\01\00\08\8D\01\00\00\B0\01\00\1E\B1\01\00P\B1\01\00R\B1\01\00d\B1\01\00g\B1\01\00p\B1\01\00\FB\B2\01\00\00\BC\01\00j\BC\01\00p\BC\01\00|\BC\01\00\80\BC\01\00\88\BC\01\00\90\BC\01\00\99\BC\01\00\9D\BC\01\00\9E\BC\01\00e\D1\01\00i\D1\01\00m\D1\01\00r\D1\01\00{\D1\01\00\82\D1\01\00\85\D1\01\00\8B\D1\01\00\AA\D1\01\00\AD\D1\01\00B\D2\01\00D\D2\01\00\00\D4\01\00T\D4\01\00V\D4\01\00\9C\D4\01\00\9E\D4\01\00\9F\D4\01\00\A2\D4\01\00\A2\D4\01\00\A5\D4\01\00\A6\D4\01\00\A9\D4\01\00\AC\D4\01\00\AE\D4\01\00\B9\D4\01\00\BB\D4\01\00\BB\D4\01\00\BD\D4\01\00\C3\D4\01\00\C5\D4\01\00\05\D5\01\00\07\D5\01\00\0A\D5\01\00\0D\D5\01\00\14\D5\01\00\16\D5\01\00\1C\D5\01\00\1E\D5\01\009\D5\01\00;\D5\01\00>\D5\01\00@\D5\01\00D\D5\01\00F\D5\01\00F\D5\01\00J\D5\01\00P\D5\01\00R\D5\01\00\A5\D6\01\00\A8\D6\01\00\C0\D6\01\00\C2\D6\01\00\DA\D6\01\00\DC\D6\01\00\FA\D6\01\00\FC\D6\01\00\14\D7\01\00\16\D7\01\004\D7\01\006\D7\01\00N\D7\01\00P\D7\01\00n\D7\01\00p\D7\01\00\88\D7\01\00\8A\D7\01\00\A8\D7\01\00\AA\D7\01\00\C2\D7\01\00\C4\D7\01\00\CB\D7\01\00\CE\D7\01\00\FF\D7\01\00\00\DA\01\006\DA\01\00;\DA\01\00l\DA\01\00u\DA\01\00u\DA\01\00\84\DA\01\00\84\DA\01\00\9B\DA\01\00\9F\DA\01\00\A1\DA\01\00\AF\DA\01\00\00\E0\01\00\06\E0\01\00\08\E0\01\00\18\E0\01\00\1B\E0\01\00!\E0\01\00#\E0\01\00$\E0\01\00&\E0\01\00*\E0\01\00\00\E1\01\00,\E1\01\000\E1\01\00=\E1\01\00@\E1\01\00I\E1\01\00N\E1\01\00N\E1\01\00\C0\E2\01\00\F9\E2\01\00\00\E8\01\00\C4\E8\01\00\D0\E8\01\00\D6\E8\01\00\00\E9\01\00K\E9\01\00P\E9\01\00Y\E9\01\00\00\EE\01\00\03\EE\01\00\05\EE\01\00\1F\EE\01\00!\EE\01\00\22\EE\01\00$\EE\01\00$\EE\01\00'\EE\01\00'\EE\01\00)\EE\01\002\EE\01\004\EE\01\007\EE\01\009\EE\01\009\EE\01\00;\EE\01\00;\EE\01\00B\EE\01\00B\EE\01\00G\EE\01\00G\EE\01\00I\EE\01\00I\EE\01\00K\EE\01\00K\EE\01\00M\EE\01\00O\EE\01\00Q\EE\01\00R\EE\01\00T\EE\01\00T\EE\01\00W\EE\01\00W\EE\01\00Y\EE\01\00Y\EE\01\00[\EE\01\00[\EE\01\00]\EE\01\00]\EE\01\00_\EE\01\00_\EE\01\00a\EE\01\00b\EE\01\00d\EE\01\00d\EE\01\00g\EE\01\00j\EE\01\00l\EE\01\00r\EE\01\00t\EE\01\00w\EE\01\00y\EE\01\00|\EE\01\00~\EE\01\00~\EE\01\00\80\EE\01\00\89\EE\01\00\8B\EE\01\00\9B\EE\01\00\A1\EE\01\00\A3\EE\01\00\A5\EE\01\00\A9\EE\01\00\AB\EE\01\00\BB\EE\01\00\F0\FB\01\00\F9\FB\01\00\00\00\02\00\DD\A6\02\00\00\A7\02\004\B7\02\00@\B7\02\00\1D\B8\02\00 \B8\02\00\A1\CE\02\00\B0\CE\02\00\E0\EB\02\00\00\F8\02\00\1D\FA\02\00\00\00\03\00J\13\03\00\00\01\0E\00\EF\01\0E\00" }>, align 4
@0 = private unnamed_addr constant <{ i8*, [8 x i8] }> <{ i8* getelementptr inbounds (<{ [5896 x i8] }>, <{ [5896 x i8] }>* @alloc742, i32 0, i32 0, i32 0), [8 x i8] c"\E1\02\00\00\00\00\00\00" }>, align 8
@alloc1374 = private unnamed_addr constant <{ [5032 x i8] }> <{ [5032 x i8] c"A\00\00\00Z\00\00\00a\00\00\00z\00\00\00\AA\00\00\00\AA\00\00\00\B5\00\00\00\B5\00\00\00\BA\00\00\00\BA\00\00\00\C0\00\00\00\D6\00\00\00\D8\00\00\00\F6\00\00\00\F8\00\00\00\C1\02\00\00\C6\02\00\00\D1\02\00\00\E0\02\00\00\E4\02\00\00\EC\02\00\00\EC\02\00\00\EE\02\00\00\EE\02\00\00p\03\00\00t\03\00\00v\03\00\00w\03\00\00{\03\00\00}\03\00\00\7F\03\00\00\7F\03\00\00\86\03\00\00\86\03\00\00\88\03\00\00\8A\03\00\00\8C\03\00\00\8C\03\00\00\8E\03\00\00\A1\03\00\00\A3\03\00\00\F5\03\00\00\F7\03\00\00\81\04\00\00\8A\04\00\00/\05\00\001\05\00\00V\05\00\00Y\05\00\00Y\05\00\00`\05\00\00\88\05\00\00\D0\05\00\00\EA\05\00\00\EF\05\00\00\F2\05\00\00 \06\00\00J\06\00\00n\06\00\00o\06\00\00q\06\00\00\D3\06\00\00\D5\06\00\00\D5\06\00\00\E5\06\00\00\E6\06\00\00\EE\06\00\00\EF\06\00\00\FA\06\00\00\FC\06\00\00\FF\06\00\00\FF\06\00\00\10\07\00\00\10\07\00\00\12\07\00\00/\07\00\00M\07\00\00\A5\07\00\00\B1\07\00\00\B1\07\00\00\CA\07\00\00\EA\07\00\00\F4\07\00\00\F5\07\00\00\FA\07\00\00\FA\07\00\00\00\08\00\00\15\08\00\00\1A\08\00\00\1A\08\00\00$\08\00\00$\08\00\00(\08\00\00(\08\00\00@\08\00\00X\08\00\00`\08\00\00j\08\00\00\A0\08\00\00\B4\08\00\00\B6\08\00\00\C7\08\00\00\04\09\00\009\09\00\00=\09\00\00=\09\00\00P\09\00\00P\09\00\00X\09\00\00a\09\00\00q\09\00\00\80\09\00\00\85\09\00\00\8C\09\00\00\8F\09\00\00\90\09\00\00\93\09\00\00\A8\09\00\00\AA\09\00\00\B0\09\00\00\B2\09\00\00\B2\09\00\00\B6\09\00\00\B9\09\00\00\BD\09\00\00\BD\09\00\00\CE\09\00\00\CE\09\00\00\DC\09\00\00\DD\09\00\00\DF\09\00\00\E1\09\00\00\F0\09\00\00\F1\09\00\00\FC\09\00\00\FC\09\00\00\05\0A\00\00\0A\0A\00\00\0F\0A\00\00\10\0A\00\00\13\0A\00\00(\0A\00\00*\0A\00\000\0A\00\002\0A\00\003\0A\00\005\0A\00\006\0A\00\008\0A\00\009\0A\00\00Y\0A\00\00\\\0A\00\00^\0A\00\00^\0A\00\00r\0A\00\00t\0A\00\00\85\0A\00\00\8D\0A\00\00\8F\0A\00\00\91\0A\00\00\93\0A\00\00\A8\0A\00\00\AA\0A\00\00\B0\0A\00\00\B2\0A\00\00\B3\0A\00\00\B5\0A\00\00\B9\0A\00\00\BD\0A\00\00\BD\0A\00\00\D0\0A\00\00\D0\0A\00\00\E0\0A\00\00\E1\0A\00\00\F9\0A\00\00\F9\0A\00\00\05\0B\00\00\0C\0B\00\00\0F\0B\00\00\10\0B\00\00\13\0B\00\00(\0B\00\00*\0B\00\000\0B\00\002\0B\00\003\0B\00\005\0B\00\009\0B\00\00=\0B\00\00=\0B\00\00\\\0B\00\00]\0B\00\00_\0B\00\00a\0B\00\00q\0B\00\00q\0B\00\00\83\0B\00\00\83\0B\00\00\85\0B\00\00\8A\0B\00\00\8E\0B\00\00\90\0B\00\00\92\0B\00\00\95\0B\00\00\99\0B\00\00\9A\0B\00\00\9C\0B\00\00\9C\0B\00\00\9E\0B\00\00\9F\0B\00\00\A3\0B\00\00\A4\0B\00\00\A8\0B\00\00\AA\0B\00\00\AE\0B\00\00\B9\0B\00\00\D0\0B\00\00\D0\0B\00\00\05\0C\00\00\0C\0C\00\00\0E\0C\00\00\10\0C\00\00\12\0C\00\00(\0C\00\00*\0C\00\009\0C\00\00=\0C\00\00=\0C\00\00X\0C\00\00Z\0C\00\00`\0C\00\00a\0C\00\00\80\0C\00\00\80\0C\00\00\85\0C\00\00\8C\0C\00\00\8E\0C\00\00\90\0C\00\00\92\0C\00\00\A8\0C\00\00\AA\0C\00\00\B3\0C\00\00\B5\0C\00\00\B9\0C\00\00\BD\0C\00\00\BD\0C\00\00\DE\0C\00\00\DE\0C\00\00\E0\0C\00\00\E1\0C\00\00\F1\0C\00\00\F2\0C\00\00\04\0D\00\00\0C\0D\00\00\0E\0D\00\00\10\0D\00\00\12\0D\00\00:\0D\00\00=\0D\00\00=\0D\00\00N\0D\00\00N\0D\00\00T\0D\00\00V\0D\00\00_\0D\00\00a\0D\00\00z\0D\00\00\7F\0D\00\00\85\0D\00\00\96\0D\00\00\9A\0D\00\00\B1\0D\00\00\B3\0D\00\00\BB\0D\00\00\BD\0D\00\00\BD\0D\00\00\C0\0D\00\00\C6\0D\00\00\01\0E\00\000\0E\00\002\0E\00\002\0E\00\00@\0E\00\00F\0E\00\00\81\0E\00\00\82\0E\00\00\84\0E\00\00\84\0E\00\00\86\0E\00\00\8A\0E\00\00\8C\0E\00\00\A3\0E\00\00\A5\0E\00\00\A5\0E\00\00\A7\0E\00\00\B0\0E\00\00\B2\0E\00\00\B2\0E\00\00\BD\0E\00\00\BD\0E\00\00\C0\0E\00\00\C4\0E\00\00\C6\0E\00\00\C6\0E\00\00\DC\0E\00\00\DF\0E\00\00\00\0F\00\00\00\0F\00\00@\0F\00\00G\0F\00\00I\0F\00\00l\0F\00\00\88\0F\00\00\8C\0F\00\00\00\10\00\00*\10\00\00?\10\00\00?\10\00\00P\10\00\00U\10\00\00Z\10\00\00]\10\00\00a\10\00\00a\10\00\00e\10\00\00f\10\00\00n\10\00\00p\10\00\00u\10\00\00\81\10\00\00\8E\10\00\00\8E\10\00\00\A0\10\00\00\C5\10\00\00\C7\10\00\00\C7\10\00\00\CD\10\00\00\CD\10\00\00\D0\10\00\00\FA\10\00\00\FC\10\00\00H\12\00\00J\12\00\00M\12\00\00P\12\00\00V\12\00\00X\12\00\00X\12\00\00Z\12\00\00]\12\00\00`\12\00\00\88\12\00\00\8A\12\00\00\8D\12\00\00\90\12\00\00\B0\12\00\00\B2\12\00\00\B5\12\00\00\B8\12\00\00\BE\12\00\00\C0\12\00\00\C0\12\00\00\C2\12\00\00\C5\12\00\00\C8\12\00\00\D6\12\00\00\D8\12\00\00\10\13\00\00\12\13\00\00\15\13\00\00\18\13\00\00Z\13\00\00\80\13\00\00\8F\13\00\00\A0\13\00\00\F5\13\00\00\F8\13\00\00\FD\13\00\00\01\14\00\00l\16\00\00o\16\00\00\7F\16\00\00\81\16\00\00\9A\16\00\00\A0\16\00\00\EA\16\00\00\EE\16\00\00\F8\16\00\00\00\17\00\00\0C\17\00\00\0E\17\00\00\11\17\00\00 \17\00\001\17\00\00@\17\00\00Q\17\00\00`\17\00\00l\17\00\00n\17\00\00p\17\00\00\80\17\00\00\B3\17\00\00\D7\17\00\00\D7\17\00\00\DC\17\00\00\DC\17\00\00 \18\00\00x\18\00\00\80\18\00\00\A8\18\00\00\AA\18\00\00\AA\18\00\00\B0\18\00\00\F5\18\00\00\00\19\00\00\1E\19\00\00P\19\00\00m\19\00\00p\19\00\00t\19\00\00\80\19\00\00\AB\19\00\00\B0\19\00\00\C9\19\00\00\00\1A\00\00\16\1A\00\00 \1A\00\00T\1A\00\00\A7\1A\00\00\A7\1A\00\00\05\1B\00\003\1B\00\00E\1B\00\00K\1B\00\00\83\1B\00\00\A0\1B\00\00\AE\1B\00\00\AF\1B\00\00\BA\1B\00\00\E5\1B\00\00\00\1C\00\00#\1C\00\00M\1C\00\00O\1C\00\00Z\1C\00\00}\1C\00\00\80\1C\00\00\88\1C\00\00\90\1C\00\00\BA\1C\00\00\BD\1C\00\00\BF\1C\00\00\E9\1C\00\00\EC\1C\00\00\EE\1C\00\00\F3\1C\00\00\F5\1C\00\00\F6\1C\00\00\FA\1C\00\00\FA\1C\00\00\00\1D\00\00\BF\1D\00\00\00\1E\00\00\15\1F\00\00\18\1F\00\00\1D\1F\00\00 \1F\00\00E\1F\00\00H\1F\00\00M\1F\00\00P\1F\00\00W\1F\00\00Y\1F\00\00Y\1F\00\00[\1F\00\00[\1F\00\00]\1F\00\00]\1F\00\00_\1F\00\00}\1F\00\00\80\1F\00\00\B4\1F\00\00\B6\1F\00\00\BC\1F\00\00\BE\1F\00\00\BE\1F\00\00\C2\1F\00\00\C4\1F\00\00\C6\1F\00\00\CC\1F\00\00\D0\1F\00\00\D3\1F\00\00\D6\1F\00\00\DB\1F\00\00\E0\1F\00\00\EC\1F\00\00\F2\1F\00\00\F4\1F\00\00\F6\1F\00\00\FC\1F\00\00q \00\00q \00\00\7F \00\00\7F \00\00\90 \00\00\9C \00\00\02!\00\00\02!\00\00\07!\00\00\07!\00\00\0A!\00\00\13!\00\00\15!\00\00\15!\00\00\18!\00\00\1D!\00\00$!\00\00$!\00\00&!\00\00&!\00\00(!\00\00(!\00\00*!\00\009!\00\00<!\00\00?!\00\00E!\00\00I!\00\00N!\00\00N!\00\00`!\00\00\88!\00\00\00,\00\00.,\00\000,\00\00^,\00\00`,\00\00\E4,\00\00\EB,\00\00\EE,\00\00\F2,\00\00\F3,\00\00\00-\00\00%-\00\00'-\00\00'-\00\00--\00\00--\00\000-\00\00g-\00\00o-\00\00o-\00\00\80-\00\00\96-\00\00\A0-\00\00\A6-\00\00\A8-\00\00\AE-\00\00\B0-\00\00\B6-\00\00\B8-\00\00\BE-\00\00\C0-\00\00\C6-\00\00\C8-\00\00\CE-\00\00\D0-\00\00\D6-\00\00\D8-\00\00\DE-\00\00\050\00\00\070\00\00!0\00\00)0\00\0010\00\0050\00\0080\00\00<0\00\00A0\00\00\960\00\00\9D0\00\00\9F0\00\00\A10\00\00\FA0\00\00\FC0\00\00\FF0\00\00\051\00\00/1\00\0011\00\00\8E1\00\00\A01\00\00\BF1\00\00\F01\00\00\FF1\00\00\004\00\00\BFM\00\00\00N\00\00\FC\9F\00\00\00\A0\00\00\8C\A4\00\00\D0\A4\00\00\FD\A4\00\00\00\A5\00\00\0C\A6\00\00\10\A6\00\00\1F\A6\00\00*\A6\00\00+\A6\00\00@\A6\00\00n\A6\00\00\7F\A6\00\00\9D\A6\00\00\A0\A6\00\00\EF\A6\00\00\17\A7\00\00\1F\A7\00\00\22\A7\00\00\88\A7\00\00\8B\A7\00\00\BF\A7\00\00\C2\A7\00\00\CA\A7\00\00\F5\A7\00\00\01\A8\00\00\03\A8\00\00\05\A8\00\00\07\A8\00\00\0A\A8\00\00\0C\A8\00\00\22\A8\00\00@\A8\00\00s\A8\00\00\82\A8\00\00\B3\A8\00\00\F2\A8\00\00\F7\A8\00\00\FB\A8\00\00\FB\A8\00\00\FD\A8\00\00\FE\A8\00\00\0A\A9\00\00%\A9\00\000\A9\00\00F\A9\00\00`\A9\00\00|\A9\00\00\84\A9\00\00\B2\A9\00\00\CF\A9\00\00\CF\A9\00\00\E0\A9\00\00\E4\A9\00\00\E6\A9\00\00\EF\A9\00\00\FA\A9\00\00\FE\A9\00\00\00\AA\00\00(\AA\00\00@\AA\00\00B\AA\00\00D\AA\00\00K\AA\00\00`\AA\00\00v\AA\00\00z\AA\00\00z\AA\00\00~\AA\00\00\AF\AA\00\00\B1\AA\00\00\B1\AA\00\00\B5\AA\00\00\B6\AA\00\00\B9\AA\00\00\BD\AA\00\00\C0\AA\00\00\C0\AA\00\00\C2\AA\00\00\C2\AA\00\00\DB\AA\00\00\DD\AA\00\00\E0\AA\00\00\EA\AA\00\00\F2\AA\00\00\F4\AA\00\00\01\AB\00\00\06\AB\00\00\09\AB\00\00\0E\AB\00\00\11\AB\00\00\16\AB\00\00 \AB\00\00&\AB\00\00(\AB\00\00.\AB\00\000\AB\00\00Z\AB\00\00\\\AB\00\00i\AB\00\00p\AB\00\00\E2\AB\00\00\00\AC\00\00\A3\D7\00\00\B0\D7\00\00\C6\D7\00\00\CB\D7\00\00\FB\D7\00\00\00\F9\00\00m\FA\00\00p\FA\00\00\D9\FA\00\00\00\FB\00\00\06\FB\00\00\13\FB\00\00\17\FB\00\00\1D\FB\00\00\1D\FB\00\00\1F\FB\00\00(\FB\00\00*\FB\00\006\FB\00\008\FB\00\00<\FB\00\00>\FB\00\00>\FB\00\00@\FB\00\00A\FB\00\00C\FB\00\00D\FB\00\00F\FB\00\00\B1\FB\00\00\D3\FB\00\00]\FC\00\00d\FC\00\00=\FD\00\00P\FD\00\00\8F\FD\00\00\92\FD\00\00\C7\FD\00\00\F0\FD\00\00\F9\FD\00\00q\FE\00\00q\FE\00\00s\FE\00\00s\FE\00\00w\FE\00\00w\FE\00\00y\FE\00\00y\FE\00\00{\FE\00\00{\FE\00\00}\FE\00\00}\FE\00\00\7F\FE\00\00\FC\FE\00\00!\FF\00\00:\FF\00\00A\FF\00\00Z\FF\00\00f\FF\00\00\9D\FF\00\00\A0\FF\00\00\BE\FF\00\00\C2\FF\00\00\C7\FF\00\00\CA\FF\00\00\CF\FF\00\00\D2\FF\00\00\D7\FF\00\00\DA\FF\00\00\DC\FF\00\00\00\00\01\00\0B\00\01\00\0D\00\01\00&\00\01\00(\00\01\00:\00\01\00<\00\01\00=\00\01\00?\00\01\00M\00\01\00P\00\01\00]\00\01\00\80\00\01\00\FA\00\01\00@\01\01\00t\01\01\00\80\02\01\00\9C\02\01\00\A0\02\01\00\D0\02\01\00\00\03\01\00\1F\03\01\00-\03\01\00J\03\01\00P\03\01\00u\03\01\00\80\03\01\00\9D\03\01\00\A0\03\01\00\C3\03\01\00\C8\03\01\00\CF\03\01\00\D1\03\01\00\D5\03\01\00\00\04\01\00\9D\04\01\00\B0\04\01\00\D3\04\01\00\D8\04\01\00\FB\04\01\00\00\05\01\00'\05\01\000\05\01\00c\05\01\00\00\06\01\006\07\01\00@\07\01\00U\07\01\00`\07\01\00g\07\01\00\00\08\01\00\05\08\01\00\08\08\01\00\08\08\01\00\0A\08\01\005\08\01\007\08\01\008\08\01\00<\08\01\00<\08\01\00?\08\01\00U\08\01\00`\08\01\00v\08\01\00\80\08\01\00\9E\08\01\00\E0\08\01\00\F2\08\01\00\F4\08\01\00\F5\08\01\00\00\09\01\00\15\09\01\00 \09\01\009\09\01\00\80\09\01\00\B7\09\01\00\BE\09\01\00\BF\09\01\00\00\0A\01\00\00\0A\01\00\10\0A\01\00\13\0A\01\00\15\0A\01\00\17\0A\01\00\19\0A\01\005\0A\01\00`\0A\01\00|\0A\01\00\80\0A\01\00\9C\0A\01\00\C0\0A\01\00\C7\0A\01\00\C9\0A\01\00\E4\0A\01\00\00\0B\01\005\0B\01\00@\0B\01\00U\0B\01\00`\0B\01\00r\0B\01\00\80\0B\01\00\91\0B\01\00\00\0C\01\00H\0C\01\00\80\0C\01\00\B2\0C\01\00\C0\0C\01\00\F2\0C\01\00\00\0D\01\00#\0D\01\00\80\0E\01\00\A9\0E\01\00\B0\0E\01\00\B1\0E\01\00\00\0F\01\00\1C\0F\01\00'\0F\01\00'\0F\01\000\0F\01\00E\0F\01\00\B0\0F\01\00\C4\0F\01\00\E0\0F\01\00\F6\0F\01\00\03\10\01\007\10\01\00\83\10\01\00\AF\10\01\00\D0\10\01\00\E8\10\01\00\03\11\01\00&\11\01\00D\11\01\00D\11\01\00G\11\01\00G\11\01\00P\11\01\00r\11\01\00v\11\01\00v\11\01\00\83\11\01\00\B2\11\01\00\C1\11\01\00\C4\11\01\00\DA\11\01\00\DA\11\01\00\DC\11\01\00\DC\11\01\00\00\12\01\00\11\12\01\00\13\12\01\00+\12\01\00\80\12\01\00\86\12\01\00\88\12\01\00\88\12\01\00\8A\12\01\00\8D\12\01\00\8F\12\01\00\9D\12\01\00\9F\12\01\00\A8\12\01\00\B0\12\01\00\DE\12\01\00\05\13\01\00\0C\13\01\00\0F\13\01\00\10\13\01\00\13\13\01\00(\13\01\00*\13\01\000\13\01\002\13\01\003\13\01\005\13\01\009\13\01\00=\13\01\00=\13\01\00P\13\01\00P\13\01\00]\13\01\00a\13\01\00\00\14\01\004\14\01\00G\14\01\00J\14\01\00_\14\01\00a\14\01\00\80\14\01\00\AF\14\01\00\C4\14\01\00\C5\14\01\00\C7\14\01\00\C7\14\01\00\80\15\01\00\AE\15\01\00\D8\15\01\00\DB\15\01\00\00\16\01\00/\16\01\00D\16\01\00D\16\01\00\80\16\01\00\AA\16\01\00\B8\16\01\00\B8\16\01\00\00\17\01\00\1A\17\01\00\00\18\01\00+\18\01\00\A0\18\01\00\DF\18\01\00\FF\18\01\00\06\19\01\00\09\19\01\00\09\19\01\00\0C\19\01\00\13\19\01\00\15\19\01\00\16\19\01\00\18\19\01\00/\19\01\00?\19\01\00?\19\01\00A\19\01\00A\19\01\00\A0\19\01\00\A7\19\01\00\AA\19\01\00\D0\19\01\00\E1\19\01\00\E1\19\01\00\E3\19\01\00\E3\19\01\00\00\1A\01\00\00\1A\01\00\0B\1A\01\002\1A\01\00:\1A\01\00:\1A\01\00P\1A\01\00P\1A\01\00\\\1A\01\00\89\1A\01\00\9D\1A\01\00\9D\1A\01\00\C0\1A\01\00\F8\1A\01\00\00\1C\01\00\08\1C\01\00\0A\1C\01\00.\1C\01\00@\1C\01\00@\1C\01\00r\1C\01\00\8F\1C\01\00\00\1D\01\00\06\1D\01\00\08\1D\01\00\09\1D\01\00\0B\1D\01\000\1D\01\00F\1D\01\00F\1D\01\00`\1D\01\00e\1D\01\00g\1D\01\00h\1D\01\00j\1D\01\00\89\1D\01\00\98\1D\01\00\98\1D\01\00\E0\1E\01\00\F2\1E\01\00\B0\1F\01\00\B0\1F\01\00\00 \01\00\99#\01\00\00$\01\00n$\01\00\80$\01\00C%\01\00\000\01\00.4\01\00\00D\01\00FF\01\00\00h\01\008j\01\00@j\01\00^j\01\00\D0j\01\00\EDj\01\00\00k\01\00/k\01\00@k\01\00Ck\01\00ck\01\00wk\01\00}k\01\00\8Fk\01\00@n\01\00\7Fn\01\00\00o\01\00Jo\01\00Po\01\00Po\01\00\93o\01\00\9Fo\01\00\E0o\01\00\E1o\01\00\E3o\01\00\E3o\01\00\00p\01\00\F7\87\01\00\00\88\01\00\D5\8C\01\00\00\8D\01\00\08\8D\01\00\00\B0\01\00\1E\B1\01\00P\B1\01\00R\B1\01\00d\B1\01\00g\B1\01\00p\B1\01\00\FB\B2\01\00\00\BC\01\00j\BC\01\00p\BC\01\00|\BC\01\00\80\BC\01\00\88\BC\01\00\90\BC\01\00\99\BC\01\00\00\D4\01\00T\D4\01\00V\D4\01\00\9C\D4\01\00\9E\D4\01\00\9F\D4\01\00\A2\D4\01\00\A2\D4\01\00\A5\D4\01\00\A6\D4\01\00\A9\D4\01\00\AC\D4\01\00\AE\D4\01\00\B9\D4\01\00\BB\D4\01\00\BB\D4\01\00\BD\D4\01\00\C3\D4\01\00\C5\D4\01\00\05\D5\01\00\07\D5\01\00\0A\D5\01\00\0D\D5\01\00\14\D5\01\00\16\D5\01\00\1C\D5\01\00\1E\D5\01\009\D5\01\00;\D5\01\00>\D5\01\00@\D5\01\00D\D5\01\00F\D5\01\00F\D5\01\00J\D5\01\00P\D5\01\00R\D5\01\00\A5\D6\01\00\A8\D6\01\00\C0\D6\01\00\C2\D6\01\00\DA\D6\01\00\DC\D6\01\00\FA\D6\01\00\FC\D6\01\00\14\D7\01\00\16\D7\01\004\D7\01\006\D7\01\00N\D7\01\00P\D7\01\00n\D7\01\00p\D7\01\00\88\D7\01\00\8A\D7\01\00\A8\D7\01\00\AA\D7\01\00\C2\D7\01\00\C4\D7\01\00\CB\D7\01\00\00\E1\01\00,\E1\01\007\E1\01\00=\E1\01\00N\E1\01\00N\E1\01\00\C0\E2\01\00\EB\E2\01\00\00\E8\01\00\C4\E8\01\00\00\E9\01\00C\E9\01\00K\E9\01\00K\E9\01\00\00\EE\01\00\03\EE\01\00\05\EE\01\00\1F\EE\01\00!\EE\01\00\22\EE\01\00$\EE\01\00$\EE\01\00'\EE\01\00'\EE\01\00)\EE\01\002\EE\01\004\EE\01\007\EE\01\009\EE\01\009\EE\01\00;\EE\01\00;\EE\01\00B\EE\01\00B\EE\01\00G\EE\01\00G\EE\01\00I\EE\01\00I\EE\01\00K\EE\01\00K\EE\01\00M\EE\01\00O\EE\01\00Q\EE\01\00R\EE\01\00T\EE\01\00T\EE\01\00W\EE\01\00W\EE\01\00Y\EE\01\00Y\EE\01\00[\EE\01\00[\EE\01\00]\EE\01\00]\EE\01\00_\EE\01\00_\EE\01\00a\EE\01\00b\EE\01\00d\EE\01\00d\EE\01\00g\EE\01\00j\EE\01\00l\EE\01\00r\EE\01\00t\EE\01\00w\EE\01\00y\EE\01\00|\EE\01\00~\EE\01\00~\EE\01\00\80\EE\01\00\89\EE\01\00\8B\EE\01\00\9B\EE\01\00\A1\EE\01\00\A3\EE\01\00\A5\EE\01\00\A9\EE\01\00\AB\EE\01\00\BB\EE\01\00\00\00\02\00\DD\A6\02\00\00\A7\02\004\B7\02\00@\B7\02\00\1D\B8\02\00 \B8\02\00\A1\CE\02\00\B0\CE\02\00\E0\EB\02\00\00\F8\02\00\1D\FA\02\00\00\00\03\00J\13\03\00" }>, align 4
@1 = private unnamed_addr constant <{ i8*, [8 x i8] }> <{ i8* getelementptr inbounds (<{ [5032 x i8] }>, <{ [5032 x i8] }>* @alloc1374, i32 0, i32 0, i32 0), [8 x i8] c"u\02\00\00\00\00\00\00" }>, align 8

; core::ptr::const_ptr::<impl *const [T]>::as_ptr
; Function Attrs: inlinehint nonlazybind uwtable
define { i32, i32 }* @"_ZN4core3ptr9const_ptr43_$LT$impl$u20$$BP$const$u20$$u5b$T$u5d$$GT$6as_ptr17h4b758dcf3d29136cE"([0 x { i32, i32 }]* %self.0, i64 %self.1) unnamed_addr #0 {
start:
  %0 = bitcast [0 x { i32, i32 }]* %self.0 to { i32, i32 }*
  ret { i32, i32 }* %0
}

; core::slice::<impl [T]>::get_unchecked
; Function Attrs: inlinehint nonlazybind uwtable
define align 4 dereferenceable(8) { i32, i32 }* @"_ZN4core5slice29_$LT$impl$u20$$u5b$T$u5d$$GT$13get_unchecked17hc0028a25066c07f0E"([0 x { i32, i32 }]* nonnull align 4 %self.0, i64 %self.1, i64 %index) unnamed_addr #0 {
start:
; call <usize as core::slice::index::SliceIndex<[T]>>::get_unchecked
  %_3 = call { i32, i32 }* @"_ZN75_$LT$usize$u20$as$u20$core..slice..index..SliceIndex$LT$$u5b$T$u5d$$GT$$GT$13get_unchecked17hb492fa3ca8fa5dfaE"(i64 %index, [0 x { i32, i32 }]* %self.0, i64 %self.1)
  br label %bb1

bb1:                                              ; preds = %start
  ret { i32, i32 }* %_3
}

; core::slice::<impl [T]>::binary_search_by
; Function Attrs: inlinehint nonlazybind uwtable
define { i64, i64 } @"_ZN4core5slice29_$LT$impl$u20$$u5b$T$u5d$$GT$16binary_search_by17hf3b0eac80b28c58dE"([0 x { i32, i32 }]* nonnull align 4 %self.0, i64 %self.1, i32* align 4 dereferenceable(4) %0) unnamed_addr #0 personality i32 (...)* @rust_eh_personality {
start:
  %1 = alloca { i8*, i32 }, align 8
  %_16 = alloca i32*, align 8
  %cmp = alloca i8, align 1
  %right = alloca i64, align 8
  %left = alloca i64, align 8
  %size = alloca i64, align 8
  %2 = alloca { i64, i64 }, align 8
  %f = alloca i32*, align 8
  store i32* %0, i32** %f, align 8
; invoke core::slice::<impl [T]>::len
  %3 = invoke i64 @"_ZN4core5slice29_$LT$impl$u20$$u5b$T$u5d$$GT$3len17hdb0bc74846c812d4E"([0 x { i32, i32 }]* nonnull align 4 %self.0, i64 %self.1)
          to label %bb1 unwind label %cleanup

bb1:                                              ; preds = %start
  store i64 %3, i64* %size, align 8
  store i64 0, i64* %left, align 8
  %4 = load i64, i64* %size, align 8
  store i64 %4, i64* %right, align 8
  br label %bb2

bb17:                                             ; preds = %cleanup
  br label %bb18

cleanup:                                          ; preds = %bb11, %bb8, %bb5, %bb4, %bb3, %start
  %5 = landingpad { i8*, i32 }
          cleanup
  %6 = extractvalue { i8*, i32 } %5, 0
  %7 = extractvalue { i8*, i32 } %5, 1
  %8 = getelementptr inbounds { i8*, i32 }, { i8*, i32 }* %1, i32 0, i32 0
  store i8* %6, i8** %8, align 8
  %9 = getelementptr inbounds { i8*, i32 }, { i8*, i32 }* %1, i32 0, i32 1
  store i32 %7, i32* %9, align 8
  br label %bb17

bb2:                                              ; preds = %bb14, %bb1
  %_8 = load i64, i64* %left, align 8
  %_9 = load i64, i64* %right, align 8
  %_7 = icmp ult i64 %_8, %_9
  br i1 %_7, label %bb3, label %bb15

bb15:                                             ; preds = %bb2
  %_37 = load i64, i64* %left, align 8
  %10 = bitcast { i64, i64 }* %2 to %"core::result::Result<usize, usize>::Err"*
  %11 = getelementptr inbounds %"core::result::Result<usize, usize>::Err", %"core::result::Result<usize, usize>::Err"* %10, i32 0, i32 1
  store i64 %_37, i64* %11, align 8
  %12 = bitcast { i64, i64 }* %2 to i64*
  store i64 1, i64* %12, align 8
  br label %bb16

bb3:                                              ; preds = %bb2
  %_11 = load i64, i64* %left, align 8
  %_13 = load i64, i64* %size, align 8
  %_12 = udiv i64 %_13, 2
  %mid = add i64 %_11, %_12
; invoke core::slice::<impl [T]>::get_unchecked
  %_18 = invoke align 4 dereferenceable(8) { i32, i32 }* @"_ZN4core5slice29_$LT$impl$u20$$u5b$T$u5d$$GT$13get_unchecked17hc0028a25066c07f0E"([0 x { i32, i32 }]* nonnull align 4 %self.0, i64 %self.1, i64 %mid)
          to label %bb4 unwind label %cleanup

bb4:                                              ; preds = %bb3
  %13 = bitcast i32** %_16 to { i32, i32 }**
  store { i32, i32 }* %_18, { i32, i32 }** %13, align 8
  %14 = load i32*, i32** %_16, align 8, !nonnull !2
  %15 = bitcast i32* %14 to { i32, i32 }*
; invoke unicode_xid::tables::bsearch_range_table::{{closure}}
  %16 = invoke i8 @"_ZN11unicode_xid6tables19bsearch_range_table28_$u7b$$u7b$closure$u7d$$u7d$17h1fc0217698c663a3E"(i32** align 8 dereferenceable(8) %f, { i32, i32 }* align 4 dereferenceable(8) %15)
          to label %bb5 unwind label %cleanup, !range !3

bb5:                                              ; preds = %bb4
  store i8 %16, i8* %cmp, align 1
; invoke <core::cmp::Ordering as core::cmp::PartialEq>::eq
  %_21 = invoke zeroext i1 @"_ZN60_$LT$core..cmp..Ordering$u20$as$u20$core..cmp..PartialEq$GT$2eq17h51c04cacf29abd46E"(i8* align 1 dereferenceable(1) %cmp, i8* align 1 dereferenceable(1) getelementptr inbounds (<{ [1 x i8] }>, <{ [1 x i8] }>* @alloc1389, i32 0, i32 0, i32 0))
          to label %bb6 unwind label %cleanup

bb6:                                              ; preds = %bb5
  br i1 %_21, label %bb7, label %bb8

bb8:                                              ; preds = %bb6
; invoke <core::cmp::Ordering as core::cmp::PartialEq>::eq
  %_25 = invoke zeroext i1 @"_ZN60_$LT$core..cmp..Ordering$u20$as$u20$core..cmp..PartialEq$GT$2eq17h51c04cacf29abd46E"(i8* align 1 dereferenceable(1) %cmp, i8* align 1 dereferenceable(1) getelementptr inbounds (<{ [1 x i8] }>, <{ [1 x i8] }>* @alloc1391, i32 0, i32 0, i32 0))
          to label %bb9 unwind label %cleanup

bb7:                                              ; preds = %bb6
  %17 = add i64 %mid, 1
  store i64 %17, i64* %left, align 8
  br label %bb14

bb14:                                             ; preds = %bb10, %bb7
  %_35 = load i64, i64* %right, align 8
  %_36 = load i64, i64* %left, align 8
  %18 = sub i64 %_35, %_36
  store i64 %18, i64* %size, align 8
  br label %bb2

bb9:                                              ; preds = %bb8
  br i1 %_25, label %bb10, label %bb11

bb11:                                             ; preds = %bb9
; invoke core::slice::<impl [T]>::len
  %_32 = invoke i64 @"_ZN4core5slice29_$LT$impl$u20$$u5b$T$u5d$$GT$3len17hdb0bc74846c812d4E"([0 x { i32, i32 }]* nonnull align 4 %self.0, i64 %self.1)
          to label %bb12 unwind label %cleanup

bb10:                                             ; preds = %bb9
  store i64 %mid, i64* %right, align 8
  br label %bb14

bb12:                                             ; preds = %bb11
  %_30 = icmp ult i64 %mid, %_32
  call void @llvm.assume(i1 %_30)
  br label %bb13

bb18:                                             ; preds = %bb17
  %19 = bitcast { i8*, i32 }* %1 to i8**
  %20 = load i8*, i8** %19, align 8
  %21 = getelementptr inbounds { i8*, i32 }, { i8*, i32 }* %1, i32 0, i32 1
  %22 = load i32, i32* %21, align 8
  %23 = insertvalue { i8*, i32 } undef, i8* %20, 0
  %24 = insertvalue { i8*, i32 } %23, i32 %22, 1
  resume { i8*, i32 } %24

bb13:                                             ; preds = %bb12
  %25 = bitcast { i64, i64 }* %2 to %"core::result::Result<usize, usize>::Ok"*
  %26 = getelementptr inbounds %"core::result::Result<usize, usize>::Ok", %"core::result::Result<usize, usize>::Ok"* %25, i32 0, i32 1
  store i64 %mid, i64* %26, align 8
  %27 = bitcast { i64, i64 }* %2 to i64*
  store i64 0, i64* %27, align 8
  br label %bb16

bb16:                                             ; preds = %bb15, %bb13
  %28 = getelementptr inbounds { i64, i64 }, { i64, i64 }* %2, i32 0, i32 0
  %29 = load i64, i64* %28, align 8, !range !4
  %30 = getelementptr inbounds { i64, i64 }, { i64, i64 }* %2, i32 0, i32 1
  %31 = load i64, i64* %30, align 8
  %32 = insertvalue { i64, i64 } undef, i64 %29, 0
  %33 = insertvalue { i64, i64 } %32, i64 %31, 1
  ret { i64, i64 } %33
}

; core::slice::<impl [T]>::len
; Function Attrs: inlinehint nonlazybind uwtable
define i64 @"_ZN4core5slice29_$LT$impl$u20$$u5b$T$u5d$$GT$3len17hdb0bc74846c812d4E"([0 x { i32, i32 }]* nonnull align 4 %self.0, i64 %self.1) unnamed_addr #0 {
start:
  %_2 = alloca %"core::ptr::metadata::PtrRepr<[(char, char)]>", align 8
  %0 = bitcast %"core::ptr::metadata::PtrRepr<[(char, char)]>"* %_2 to { [0 x { i32, i32 }]*, i64 }*
  %1 = getelementptr inbounds { [0 x { i32, i32 }]*, i64 }, { [0 x { i32, i32 }]*, i64 }* %0, i32 0, i32 0
  store [0 x { i32, i32 }]* %self.0, [0 x { i32, i32 }]** %1, align 8
  %2 = getelementptr inbounds { [0 x { i32, i32 }]*, i64 }, { [0 x { i32, i32 }]*, i64 }* %0, i32 0, i32 1
  store i64 %self.1, i64* %2, align 8
  %3 = bitcast %"core::ptr::metadata::PtrRepr<[(char, char)]>"* %_2 to { i8*, i64 }*
  %4 = getelementptr inbounds { i8*, i64 }, { i8*, i64 }* %3, i32 0, i32 1
  %5 = load i64, i64* %4, align 8
  ret i64 %5
}

; core::result::Result<T,E>::is_ok
; Function Attrs: inlinehint nonlazybind uwtable
define zeroext i1 @"_ZN4core6result19Result$LT$T$C$E$GT$5is_ok17ha124ce3d10a570e8E"({ i64, i64 }* align 8 dereferenceable(16) %self) unnamed_addr #0 {
start:
  %0 = alloca i8, align 1
  %1 = bitcast { i64, i64 }* %self to i64*
  %_2 = load i64, i64* %1, align 8, !range !4
  %2 = icmp eq i64 %_2, 0
  br i1 %2, label %bb2, label %bb1

bb2:                                              ; preds = %start
  store i8 1, i8* %0, align 1
  br label %bb3

bb1:                                              ; preds = %start
  store i8 0, i8* %0, align 1
  br label %bb3

bb3:                                              ; preds = %bb2, %bb1
  %3 = load i8, i8* %0, align 1, !range !5
  %4 = trunc i8 %3 to i1
  ret i1 %4
}

; <core::cmp::Ordering as core::cmp::PartialEq>::eq
; Function Attrs: inlinehint nonlazybind uwtable
define internal zeroext i1 @"_ZN60_$LT$core..cmp..Ordering$u20$as$u20$core..cmp..PartialEq$GT$2eq17h51c04cacf29abd46E"(i8* align 1 dereferenceable(1) %self, i8* align 1 dereferenceable(1) %other) unnamed_addr #0 {
start:
  %0 = alloca i8, align 1
  %__self_vi = load i8, i8* %self, align 1, !range !3
  %__arg_1_vi = load i8, i8* %other, align 1, !range !3
  %_10 = icmp eq i8 %__self_vi, %__arg_1_vi
  br i1 %_10, label %bb1, label %bb2

bb2:                                              ; preds = %start
  store i8 0, i8* %0, align 1
  br label %bb3

bb1:                                              ; preds = %start
  store i8 1, i8* %0, align 1
  br label %bb3

bb3:                                              ; preds = %bb2, %bb1
  %1 = load i8, i8* %0, align 1, !range !5
  %2 = trunc i8 %1 to i1
  ret i1 %2
}

; <usize as core::slice::index::SliceIndex<[T]>>::get_unchecked
; Function Attrs: inlinehint nonlazybind uwtable
define { i32, i32 }* @"_ZN75_$LT$usize$u20$as$u20$core..slice..index..SliceIndex$LT$$u5b$T$u5d$$GT$$GT$13get_unchecked17hb492fa3ca8fa5dfaE"(i64 %self, [0 x { i32, i32 }]* %slice.0, i64 %slice.1) unnamed_addr #0 {
start:
  %0 = alloca { i32, i32 }*, align 8
; call core::ptr::const_ptr::<impl *const [T]>::as_ptr
  %_3 = call { i32, i32 }* @"_ZN4core3ptr9const_ptr43_$LT$impl$u20$$BP$const$u20$$u5b$T$u5d$$GT$6as_ptr17h4b758dcf3d29136cE"([0 x { i32, i32 }]* %slice.0, i64 %slice.1)
  br label %bb1

bb1:                                              ; preds = %start
  %1 = getelementptr inbounds { i32, i32 }, { i32, i32 }* %_3, i64 %self
  store { i32, i32 }* %1, { i32, i32 }** %0, align 8
  %2 = load { i32, i32 }*, { i32, i32 }** %0, align 8
  br label %bb2

bb2:                                              ; preds = %bb1
  ret { i32, i32 }* %2
}

; unicode_xid::tables::bsearch_range_table
; Function Attrs: nonlazybind uwtable
define internal zeroext i1 @_ZN11unicode_xid6tables19bsearch_range_table17h60ab1ad0f37d3265E(i32 %0, [0 x { i32, i32 }]* nonnull align 4 %r.0, i64 %r.1) unnamed_addr #1 {
start:
  %_6 = alloca i32*, align 8
  %_4 = alloca { i64, i64 }, align 8
  %c = alloca i32, align 4
  store i32 %0, i32* %c, align 4
  store i32* %c, i32** %_6, align 8
  %1 = load i32*, i32** %_6, align 8, !nonnull !2
; call core::slice::<impl [T]>::binary_search_by
  %2 = call { i64, i64 } @"_ZN4core5slice29_$LT$impl$u20$$u5b$T$u5d$$GT$16binary_search_by17hf3b0eac80b28c58dE"([0 x { i32, i32 }]* nonnull align 4 %r.0, i64 %r.1, i32* align 4 dereferenceable(4) %1)
  store { i64, i64 } %2, { i64, i64 }* %_4, align 8
  br label %bb1

bb1:                                              ; preds = %start
; call core::result::Result<T,E>::is_ok
  %3 = call zeroext i1 @"_ZN4core6result19Result$LT$T$C$E$GT$5is_ok17ha124ce3d10a570e8E"({ i64, i64 }* align 8 dereferenceable(16) %_4)
  br label %bb2

bb2:                                              ; preds = %bb1
  ret i1 %3
}

; unicode_xid::tables::bsearch_range_table::{{closure}}
; Function Attrs: inlinehint nonlazybind uwtable
define internal i8 @"_ZN11unicode_xid6tables19bsearch_range_table28_$u7b$$u7b$closure$u7d$$u7d$17h1fc0217698c663a3E"(i32** align 8 dereferenceable(8) %_1, { i32, i32 }* align 4 dereferenceable(8) %_2) unnamed_addr #0 {
start:
  %0 = alloca i8, align 1
  %1 = bitcast { i32, i32 }* %_2 to i32*
  %lo = load i32, i32* %1, align 4, !range !6
  %2 = getelementptr inbounds { i32, i32 }, { i32, i32 }* %_2, i32 0, i32 1
  %hi = load i32, i32* %2, align 4, !range !6
  %3 = load i32*, i32** %_1, align 8, !nonnull !2
  %_7 = load i32, i32* %3, align 4, !range !6
  %_5 = icmp ugt i32 %lo, %_7
  br i1 %_5, label %bb1, label %bb2

bb2:                                              ; preds = %start
  %4 = load i32*, i32** %_1, align 8, !nonnull !2
  %_10 = load i32, i32* %4, align 4, !range !6
  %_8 = icmp ult i32 %hi, %_10
  br i1 %_8, label %bb3, label %bb4

bb1:                                              ; preds = %start
  store i8 1, i8* %0, align 1
  br label %bb5

bb5:                                              ; preds = %bb4, %bb3, %bb1
  %5 = load i8, i8* %0, align 1, !range !3
  ret i8 %5

bb4:                                              ; preds = %bb2
  store i8 0, i8* %0, align 1
  br label %bb5

bb3:                                              ; preds = %bb2
  store i8 -1, i8* %0, align 1
  br label %bb5
}

; unicode_xid::tables::derived_property::XID_Continue
; Function Attrs: nonlazybind uwtable
define zeroext i1 @_ZN11unicode_xid6tables16derived_property12XID_Continue17h1ec9d9e64434c87aE(i32 %c) unnamed_addr #1 {
start:
  %_4.0 = load [0 x { i32, i32 }]*, [0 x { i32, i32 }]** getelementptr inbounds ({ [0 x { i32, i32 }]*, i64 }, { [0 x { i32, i32 }]*, i64 }* bitcast (<{ i8*, [8 x i8] }>* @0 to { [0 x { i32, i32 }]*, i64 }*), i32 0, i32 0), align 8, !nonnull !2
  %_4.1 = load i64, i64* getelementptr inbounds ({ [0 x { i32, i32 }]*, i64 }, { [0 x { i32, i32 }]*, i64 }* bitcast (<{ i8*, [8 x i8] }>* @0 to { [0 x { i32, i32 }]*, i64 }*), i32 0, i32 1), align 8
; call unicode_xid::tables::bsearch_range_table
  %0 = call zeroext i1 @_ZN11unicode_xid6tables19bsearch_range_table17h60ab1ad0f37d3265E(i32 %c, [0 x { i32, i32 }]* nonnull align 4 %_4.0, i64 %_4.1)
  br label %bb1

bb1:                                              ; preds = %start
  ret i1 %0
}

; unicode_xid::tables::derived_property::XID_Start
; Function Attrs: nonlazybind uwtable
define zeroext i1 @_ZN11unicode_xid6tables16derived_property9XID_Start17h3d292a03d341d242E(i32 %c) unnamed_addr #1 {
start:
  %_4.0 = load [0 x { i32, i32 }]*, [0 x { i32, i32 }]** getelementptr inbounds ({ [0 x { i32, i32 }]*, i64 }, { [0 x { i32, i32 }]*, i64 }* bitcast (<{ i8*, [8 x i8] }>* @1 to { [0 x { i32, i32 }]*, i64 }*), i32 0, i32 0), align 8, !nonnull !2
  %_4.1 = load i64, i64* getelementptr inbounds ({ [0 x { i32, i32 }]*, i64 }, { [0 x { i32, i32 }]*, i64 }* bitcast (<{ i8*, [8 x i8] }>* @1 to { [0 x { i32, i32 }]*, i64 }*), i32 0, i32 1), align 8
; call unicode_xid::tables::bsearch_range_table
  %0 = call zeroext i1 @_ZN11unicode_xid6tables19bsearch_range_table17h60ab1ad0f37d3265E(i32 %c, [0 x { i32, i32 }]* nonnull align 4 %_4.0, i64 %_4.1)
  br label %bb1

bb1:                                              ; preds = %start
  ret i1 %0
}

; Function Attrs: nonlazybind
declare i32 @rust_eh_personality(...) unnamed_addr #2

; Function Attrs: inaccessiblememonly nofree nosync nounwind willreturn
declare void @llvm.assume(i1 noundef) #3

attributes #0 = { inlinehint nonlazybind uwtable "probe-stack"="__rust_probestack" "target-cpu"="x86-64" }
attributes #1 = { nonlazybind uwtable "probe-stack"="__rust_probestack" "target-cpu"="x86-64" }
attributes #2 = { nonlazybind "target-cpu"="x86-64" }
attributes #3 = { inaccessiblememonly nofree nosync nounwind willreturn }

!llvm.module.flags = !{!0, !1}

!0 = !{i32 7, !"PIC Level", i32 2}
!1 = !{i32 2, !"RtLibUseGOT", i32 1}
!2 = !{}
!3 = !{i8 -1, i8 2}
!4 = !{i64 0, i64 2}
!5 = !{i8 0, i8 2}
!6 = !{i32 0, i32 1114112}
