; ModuleID = 'build_script_build.4088adcc-cgu.0'
source_filename = "build_script_build.4088adcc-cgu.0"
target datalayout = "e-m:e-p270:32:32-p271:32:32-p272:64:64-i64:64-f80:128-n8:16:32:64-S128"
target triple = "x86_64-unknown-linux-gnu"

%"std::ffi::os_str::OsStr" = type { %"std::sys::unix::os_str::Slice" }
%"std::sys::unix::os_str::Slice" = type { [0 x i8] }
%"std::ffi::os_str::OsString" = type { %"std::sys::unix::os_str::Buf" }
%"std::sys::unix::os_str::Buf" = type { %"alloc::vec::Vec<u8>" }
%"alloc::vec::Vec<u8>" = type { { i8*, i64 }, i64 }
%"core::panic::location::Location" = type { { [0 x i8]*, i64 }, i32, i32 }
%"alloc::collections::btree::map::IntoIter<std::ffi::os_str::OsString, core::option::Option<std::ffi::os_str::OsString>>" = type { %"alloc::collections::btree::navigate::LazyLeafRange<alloc::collections::btree::node::marker::Dying, std::ffi::os_str::OsString, core::option::Option<std::ffi::os_str::OsString>>", i64 }
%"alloc::collections::btree::navigate::LazyLeafRange<alloc::collections::btree::node::marker::Dying, std::ffi::os_str::OsString, core::option::Option<std::ffi::os_str::OsString>>" = type { %"core::option::Option<alloc::collections::btree::navigate::LazyLeafHandle<alloc::collections::btree::node::marker::Dying, std::ffi::os_str::OsString, core::option::Option<std::ffi::os_str::OsString>>>", %"core::option::Option<alloc::collections::btree::navigate::LazyLeafHandle<alloc::collections::btree::node::marker::Dying, std::ffi::os_str::OsString, core::option::Option<std::ffi::os_str::OsString>>>" }
%"core::option::Option<alloc::collections::btree::navigate::LazyLeafHandle<alloc::collections::btree::node::marker::Dying, std::ffi::os_str::OsString, core::option::Option<std::ffi::os_str::OsString>>>" = type { i64, [3 x i64] }
%"alloc::collections::btree::map::BTreeMap<std::ffi::os_str::OsString, core::option::Option<std::ffi::os_str::OsString>>" = type { { i64, i64* }, i64 }
%"core::mem::manually_drop::ManuallyDrop<alloc::collections::btree::map::BTreeMap<std::ffi::os_str::OsString, core::option::Option<std::ffi::os_str::OsString>>>" = type { %"alloc::collections::btree::map::BTreeMap<std::ffi::os_str::OsString, core::option::Option<std::ffi::os_str::OsString>>" }
%"core::result::Result<core::ptr::non_null::NonNull<[u8]>, core::alloc::AllocError>::Err" = type { %"core::alloc::AllocError" }
%"core::alloc::AllocError" = type {}
%"core::result::Result<(), usize>::Err" = type { [1 x i64], i64 }
%"alloc::collections::btree::node::Handle<alloc::collections::btree::node::NodeRef<alloc::collections::btree::node::marker::Dying, std::ffi::os_str::OsString, core::option::Option<std::ffi::os_str::OsString>, alloc::collections::btree::node::marker::LeafOrInternal>, alloc::collections::btree::node::marker::KV>" = type { %"core::marker::PhantomData<alloc::collections::btree::node::marker::KV>", { i64, i64* }, i64 }
%"core::marker::PhantomData<alloc::collections::btree::node::marker::KV>" = type {}
%"core::option::Option<alloc::collections::btree::node::Handle<alloc::collections::btree::node::NodeRef<alloc::collections::btree::node::marker::Dying, std::ffi::os_str::OsString, core::option::Option<std::ffi::os_str::OsString>, alloc::collections::btree::node::marker::LeafOrInternal>, alloc::collections::btree::node::marker::KV>>" = type { [1 x i64], {}*, [1 x i64] }
%"core::option::Option<alloc::collections::btree::node::Handle<alloc::collections::btree::node::NodeRef<alloc::collections::btree::node::marker::Dying, std::ffi::os_str::OsString, core::option::Option<std::ffi::os_str::OsString>, alloc::collections::btree::node::marker::LeafOrInternal>, alloc::collections::btree::node::marker::KV>>::Some" = type { %"alloc::collections::btree::node::Handle<alloc::collections::btree::node::NodeRef<alloc::collections::btree::node::marker::Dying, std::ffi::os_str::OsString, core::option::Option<std::ffi::os_str::OsString>, alloc::collections::btree::node::marker::LeafOrInternal>, alloc::collections::btree::node::marker::KV>" }
%"[closure@std::panicking::begin_panic<&str>::{closure#0}]" = type { { [0 x i8]*, i64 }, %"core::panic::location::Location"* }
%"core::result::Result<alloc::string::String, std::env::VarError>" = type { i64, [3 x i64] }
%"core::option::Option<std::ffi::os_str::OsString>" = type { {}*, [2 x i64] }
%"std::process::Command" = type { %"std::sys::unix::process::process_common::Command" }
%"std::sys::unix::process::process_common::Command" = type { { i8*, i64 }, %"alloc::vec::Vec<std::ffi::c_str::CString>", %"std::sys::unix::process::process_common::Argv", %"std::sys_common::process::CommandEnv", { i8*, i64 }, %"alloc::vec::Vec<alloc::boxed::Box<dyn core::ops::function::FnMut() -> core::result::Result<(), std::io::error::Error> + core::marker::Send + core::marker::Sync>>", { i32*, i64 }, { i32, i32 }, { i32, i32 }, { i32, i32 }, { i32, i32 }, { i32, i32 }, i8, i8, [6 x i8] }
%"alloc::vec::Vec<std::ffi::c_str::CString>" = type { { i64*, i64 }, i64 }
%"std::sys::unix::process::process_common::Argv" = type { %"alloc::vec::Vec<*const i8>" }
%"alloc::vec::Vec<*const i8>" = type { { i64*, i64 }, i64 }
%"std::sys_common::process::CommandEnv" = type { %"alloc::collections::btree::map::BTreeMap<std::ffi::os_str::OsString, core::option::Option<std::ffi::os_str::OsString>>", i8, i8, [6 x i8] }
%"alloc::vec::Vec<alloc::boxed::Box<dyn core::ops::function::FnMut() -> core::result::Result<(), std::io::error::Error> + core::marker::Send + core::marker::Sync>>" = type { { i64*, i64 }, i64 }
%"core::fmt::Formatter" = type { { i64, i64 }, { i64, i64 }, { {}*, [3 x i64]* }, i32, i32, i8, [7 x i8] }
%"core::fmt::Opaque" = type {}
%"core::fmt::Arguments" = type { { [0 x { [0 x i8]*, i64 }]*, i64 }, { i64*, i64 }, { [0 x { i8*, i64* }]*, i64 } }
%"core::mem::maybe_uninit::MaybeUninit<core::option::Option<std::ffi::os_str::OsString>>" = type { [3 x i64] }
%"core::mem::maybe_uninit::MaybeUninit<std::ffi::os_str::OsString>" = type { [3 x i64] }
%"core::mem::manually_drop::ManuallyDrop<alloc::collections::btree::mem::replace::PanicGuard>" = type { %"alloc::collections::btree::mem::replace::PanicGuard" }
%"alloc::collections::btree::mem::replace::PanicGuard" = type {}
%"core::result::Result<alloc::string::String, alloc::string::FromUtf8Error>" = type { i64, [5 x i64] }
%"core::result::Result<alloc::string::String, alloc::string::FromUtf8Error>::Ok" = type { [1 x i64], %"alloc::string::String" }
%"alloc::string::String" = type { %"alloc::vec::Vec<u8>" }
%"core::result::Result<alloc::string::String, alloc::string::FromUtf8Error>::Err" = type { [1 x i64], %"alloc::string::FromUtf8Error" }
%"alloc::string::FromUtf8Error" = type { %"alloc::vec::Vec<u8>", %"core::str::error::Utf8Error" }
%"core::str::error::Utf8Error" = type { i64, { i8, i8 }, [6 x i8] }
%"std::env::VarError" = type { {}*, [2 x i64] }
%"std::env::VarError::NotUnicode" = type { %"std::ffi::os_str::OsString" }
%"std::io::error::Repr" = type { i8, [15 x i8] }
%"std::io::error::Repr::Custom" = type { [1 x i64], %"std::io::error::Custom"* }
%"std::io::error::Custom" = type { { {}*, [3 x i64]* }, i8, [7 x i8] }
%"std::process::Output" = type { %"alloc::vec::Vec<u8>", %"alloc::vec::Vec<u8>", i32, [1 x i32] }
%"std::io::error::Error" = type { %"std::io::error::Repr" }
%"core::mem::manually_drop::ManuallyDrop<core::option::Option<alloc::collections::btree::navigate::LazyLeafHandle<alloc::collections::btree::node::marker::Dying, std::ffi::os_str::OsString, core::option::Option<std::ffi::os_str::OsString>>>>" = type { %"core::option::Option<alloc::collections::btree::navigate::LazyLeafHandle<alloc::collections::btree::node::marker::Dying, std::ffi::os_str::OsString, core::option::Option<std::ffi::os_str::OsString>>>" }
%"core::mem::maybe_uninit::MaybeUninit<core::option::Option<alloc::collections::btree::navigate::LazyLeafHandle<alloc::collections::btree::node::marker::Dying, std::ffi::os_str::OsString, core::option::Option<std::ffi::os_str::OsString>>>>" = type { [4 x i64] }
%"alloc::collections::btree::node::Handle<alloc::collections::btree::node::NodeRef<alloc::collections::btree::node::marker::Dying, std::ffi::os_str::OsString, core::option::Option<std::ffi::os_str::OsString>, alloc::collections::btree::node::marker::Leaf>, alloc::collections::btree::node::marker::Edge>" = type { %"core::marker::PhantomData<alloc::collections::btree::node::marker::Edge>", { i64, i64* }, i64 }
%"core::marker::PhantomData<alloc::collections::btree::node::marker::Edge>" = type {}
%"core::mem::manually_drop::ManuallyDrop<alloc::collections::btree::node::Handle<alloc::collections::btree::node::NodeRef<alloc::collections::btree::node::marker::Dying, std::ffi::os_str::OsString, core::option::Option<std::ffi::os_str::OsString>, alloc::collections::btree::node::marker::Leaf>, alloc::collections::btree::node::marker::Edge>>" = type { %"alloc::collections::btree::node::Handle<alloc::collections::btree::node::NodeRef<alloc::collections::btree::node::marker::Dying, std::ffi::os_str::OsString, core::option::Option<std::ffi::os_str::OsString>, alloc::collections::btree::node::marker::Leaf>, alloc::collections::btree::node::marker::Edge>" }
%"core::mem::maybe_uninit::MaybeUninit<alloc::collections::btree::node::Handle<alloc::collections::btree::node::NodeRef<alloc::collections::btree::node::marker::Dying, std::ffi::os_str::OsString, core::option::Option<std::ffi::os_str::OsString>, alloc::collections::btree::node::marker::Leaf>, alloc::collections::btree::node::marker::Edge>>" = type { [3 x i64] }
%"alloc::alloc::Global" = type {}
%"core::mem::maybe_uninit::MaybeUninit<alloc::alloc::Global>" = type { [0 x i8] }
%"core::mem::manually_drop::ManuallyDrop<alloc::collections::btree::node::Handle<alloc::collections::btree::node::NodeRef<alloc::collections::btree::node::marker::Dying, std::ffi::os_str::OsString, core::option::Option<std::ffi::os_str::OsString>, alloc::collections::btree::node::marker::LeafOrInternal>, alloc::collections::btree::node::marker::KV>>" = type { %"alloc::collections::btree::node::Handle<alloc::collections::btree::node::NodeRef<alloc::collections::btree::node::marker::Dying, std::ffi::os_str::OsString, core::option::Option<std::ffi::os_str::OsString>, alloc::collections::btree::node::marker::LeafOrInternal>, alloc::collections::btree::node::marker::KV>" }
%"core::mem::maybe_uninit::MaybeUninit<alloc::collections::btree::node::Handle<alloc::collections::btree::node::NodeRef<alloc::collections::btree::node::marker::Dying, std::ffi::os_str::OsString, core::option::Option<std::ffi::os_str::OsString>, alloc::collections::btree::node::marker::LeafOrInternal>, alloc::collections::btree::node::marker::KV>>" = type { [3 x i64] }
%"core::mem::maybe_uninit::MaybeUninit<alloc::collections::btree::map::BTreeMap<std::ffi::os_str::OsString, core::option::Option<std::ffi::os_str::OsString>>>" = type { [3 x i64] }
%"std::sys::unix::process::process_common::Stdio::Fd" = type { [1 x i32], i32 }
%"core::option::Option<std::process::Output>" = type { {}*, [6 x i64] }
%"core::option::Option<std::process::Output>::Some" = type { %"std::process::Output" }
%"core::option::Option<alloc::string::String>" = type { {}*, [2 x i64] }
%"core::option::Option<alloc::string::String>::Some" = type { %"alloc::string::String" }
%"core::option::Option<std::ffi::os_str::OsString>::Some" = type { %"std::ffi::os_str::OsString" }
%"core::ptr::metadata::PtrRepr<[u8]>" = type { [2 x i64] }
%"core::ptr::metadata::PtrRepr<[*const i8]>" = type { [2 x i64] }
%"core::ptr::metadata::PtrRepr<[std::ffi::c_str::CString]>" = type { [2 x i64] }
%"core::ptr::metadata::PtrRepr<[alloc::boxed::Box<dyn core::ops::function::FnMut() -> core::result::Result<(), std::io::error::Error> + core::marker::Send + core::marker::Sync>]>" = type { [2 x i64] }
%"alloc::collections::btree::node::LeafNode<std::ffi::os_str::OsString, core::option::Option<std::ffi::os_str::OsString>>" = type { i64*, [11 x %"core::mem::maybe_uninit::MaybeUninit<std::ffi::os_str::OsString>"], [11 x %"core::mem::maybe_uninit::MaybeUninit<core::option::Option<std::ffi::os_str::OsString>>"], i16, i16, [2 x i16] }
%"alloc::collections::btree::node::InternalNode<std::ffi::os_str::OsString, core::option::Option<std::ffi::os_str::OsString>>" = type { %"alloc::collections::btree::node::LeafNode<std::ffi::os_str::OsString, core::option::Option<std::ffi::os_str::OsString>>", [12 x i8*] }
%"core::result::Result<alloc::string::String, std::env::VarError>::Ok" = type { [1 x i64], %"alloc::string::String" }
%"core::result::Result<alloc::string::String, std::env::VarError>::Err" = type { [1 x i64], %"std::env::VarError" }
%"core::result::Result<std::process::Output, std::io::error::Error>" = type { i64, [7 x i64] }
%"core::result::Result<std::process::Output, std::io::error::Error>::Ok" = type { [1 x i64], %"std::process::Output" }
%"core::result::Result<std::process::Output, std::io::error::Error>::Err" = type { [1 x i64], %"std::io::error::Error" }
%"core::result::Result<u32, core::num::error::ParseIntError>" = type { i8, [7 x i8] }
%"core::str::iter::Split<char>" = type { %"core::str::iter::SplitInternal<char>" }
%"core::str::iter::SplitInternal<char>" = type { i64, i64, %"core::str::pattern::CharSearcher", i8, i8, [6 x i8] }
%"core::str::pattern::CharSearcher" = type { { [0 x i8]*, i64 }, i64, i64, i64, i32, [4 x i8] }
%"core::option::Option<(usize, usize)>" = type { i64, [2 x i64] }
%"core::option::Option<(usize, usize)>::Some" = type { [1 x i64], { i64, i64 } }
%"core::result::Result<&str, usize>" = type { i64, [2 x i64] }
%"core::ops::control_flow::ControlFlow<core::result::Result<core::convert::Infallible, usize>, &str>" = type { i64, [2 x i64] }
%"core::option::Option<usize>::Some" = type { [1 x i64], i64 }
%"core::ops::control_flow::ControlFlow<core::result::Result<core::convert::Infallible, usize>, &str>::Continue" = type { [1 x i64], { [0 x i8]*, i64 } }
%"core::ops::control_flow::ControlFlow<core::result::Result<core::convert::Infallible, usize>, &str>::Break" = type { [1 x i64], i64 }
%"core::option::Option<alloc::collections::btree::node::Handle<alloc::collections::btree::node::NodeRef<alloc::collections::btree::node::marker::Dying, std::ffi::os_str::OsString, core::option::Option<std::ffi::os_str::OsString>, alloc::collections::btree::node::marker::Internal>, alloc::collections::btree::node::marker::Edge>>" = type { [1 x i64], {}*, [1 x i64] }
%"alloc::collections::btree::node::Handle<alloc::collections::btree::node::NodeRef<alloc::collections::btree::node::marker::Dying, std::ffi::os_str::OsString, core::option::Option<std::ffi::os_str::OsString>, alloc::collections::btree::node::marker::Internal>, alloc::collections::btree::node::marker::Edge>" = type { %"core::marker::PhantomData<alloc::collections::btree::node::marker::Edge>", { i64, i64* }, i64 }
%"core::option::Option<alloc::collections::btree::node::Handle<alloc::collections::btree::node::NodeRef<alloc::collections::btree::node::marker::Dying, std::ffi::os_str::OsString, core::option::Option<std::ffi::os_str::OsString>, alloc::collections::btree::node::marker::Internal>, alloc::collections::btree::node::marker::Edge>>::Some" = type { %"alloc::collections::btree::node::Handle<alloc::collections::btree::node::NodeRef<alloc::collections::btree::node::marker::Dying, std::ffi::os_str::OsString, core::option::Option<std::ffi::os_str::OsString>, alloc::collections::btree::node::marker::Internal>, alloc::collections::btree::node::marker::Edge>" }
%"core::result::Result<alloc::collections::btree::node::Handle<alloc::collections::btree::node::NodeRef<alloc::collections::btree::node::marker::Dying, std::ffi::os_str::OsString, core::option::Option<std::ffi::os_str::OsString>, alloc::collections::btree::node::marker::Internal>, alloc::collections::btree::node::marker::Edge>, alloc::collections::btree::node::NodeRef<alloc::collections::btree::node::marker::Dying, std::ffi::os_str::OsString, core::option::Option<std::ffi::os_str::OsString>, alloc::collections::btree::node::marker::LeafOrInternal>>" = type { i64, [3 x i64] }
%"core::result::Result<alloc::collections::btree::node::Handle<alloc::collections::btree::node::NodeRef<alloc::collections::btree::node::marker::Dying, std::ffi::os_str::OsString, core::option::Option<std::ffi::os_str::OsString>, alloc::collections::btree::node::marker::Internal>, alloc::collections::btree::node::marker::Edge>, alloc::collections::btree::node::NodeRef<alloc::collections::btree::node::marker::Dying, std::ffi::os_str::OsString, core::option::Option<std::ffi::os_str::OsString>, alloc::collections::btree::node::marker::LeafOrInternal>>::Err" = type { [1 x i64], { i64, i64* } }
%"core::result::Result<alloc::collections::btree::node::Handle<alloc::collections::btree::node::NodeRef<alloc::collections::btree::node::marker::Dying, std::ffi::os_str::OsString, core::option::Option<std::ffi::os_str::OsString>, alloc::collections::btree::node::marker::Internal>, alloc::collections::btree::node::marker::Edge>, alloc::collections::btree::node::NodeRef<alloc::collections::btree::node::marker::Dying, std::ffi::os_str::OsString, core::option::Option<std::ffi::os_str::OsString>, alloc::collections::btree::node::marker::LeafOrInternal>>::Ok" = type { [1 x i64], %"alloc::collections::btree::node::Handle<alloc::collections::btree::node::NodeRef<alloc::collections::btree::node::marker::Dying, std::ffi::os_str::OsString, core::option::Option<std::ffi::os_str::OsString>, alloc::collections::btree::node::marker::Internal>, alloc::collections::btree::node::marker::Edge>" }
%"core::result::Result<core::ptr::non_null::NonNull<u8>, core::alloc::AllocError>::Err" = type { %"core::alloc::AllocError" }
%"core::result::Result<&str, usize>::Err" = type { [1 x i64], i64 }
%"core::result::Result<&str, usize>::Ok" = type { [1 x i64], { [0 x i8]*, i64 } }
%"core::option::Option<(alloc::collections::btree::node::Handle<alloc::collections::btree::node::NodeRef<alloc::collections::btree::node::marker::Dying, std::ffi::os_str::OsString, core::option::Option<std::ffi::os_str::OsString>, alloc::collections::btree::node::marker::Leaf>, alloc::collections::btree::node::marker::Edge>, alloc::collections::btree::node::Handle<alloc::collections::btree::node::NodeRef<alloc::collections::btree::node::marker::Dying, std::ffi::os_str::OsString, core::option::Option<std::ffi::os_str::OsString>, alloc::collections::btree::node::marker::LeafOrInternal>, alloc::collections::btree::node::marker::KV>)>" = type { [1 x i64], {}*, [4 x i64] }
%"core::option::Option<(alloc::collections::btree::node::Handle<alloc::collections::btree::node::NodeRef<alloc::collections::btree::node::marker::Dying, std::ffi::os_str::OsString, core::option::Option<std::ffi::os_str::OsString>, alloc::collections::btree::node::marker::Leaf>, alloc::collections::btree::node::marker::Edge>, alloc::collections::btree::node::Handle<alloc::collections::btree::node::NodeRef<alloc::collections::btree::node::marker::Dying, std::ffi::os_str::OsString, core::option::Option<std::ffi::os_str::OsString>, alloc::collections::btree::node::marker::LeafOrInternal>, alloc::collections::btree::node::marker::KV>)>::Some" = type { { %"alloc::collections::btree::node::Handle<alloc::collections::btree::node::NodeRef<alloc::collections::btree::node::marker::Dying, std::ffi::os_str::OsString, core::option::Option<std::ffi::os_str::OsString>, alloc::collections::btree::node::marker::Leaf>, alloc::collections::btree::node::marker::Edge>", %"alloc::collections::btree::node::Handle<alloc::collections::btree::node::NodeRef<alloc::collections::btree::node::marker::Dying, std::ffi::os_str::OsString, core::option::Option<std::ffi::os_str::OsString>, alloc::collections::btree::node::marker::LeafOrInternal>, alloc::collections::btree::node::marker::KV>" } }
%"core::option::Option<()>::Some" = type { [1 x i8], {} }
%"core::result::Result<u32, core::num::error::ParseIntError>::Ok" = type { [1 x i32], i32 }
%"core::option::Option<u32>::Some" = type { [1 x i32], i32 }
%"core::result::Result<&str, core::str::error::Utf8Error>" = type { i64, [2 x i64] }
%"core::result::Result<&str, core::str::error::Utf8Error>::Ok" = type { [1 x i64], { [0 x i8]*, i64 } }
%"alloc::collections::btree::node::Handle<alloc::collections::btree::node::NodeRef<alloc::collections::btree::node::marker::Dying, std::ffi::os_str::OsString, core::option::Option<std::ffi::os_str::OsString>, alloc::collections::btree::node::marker::Leaf>, alloc::collections::btree::node::marker::KV>" = type { %"core::marker::PhantomData<alloc::collections::btree::node::marker::KV>", { i64, i64* }, i64 }
%"alloc::collections::btree::node::Handle<alloc::collections::btree::node::NodeRef<alloc::collections::btree::node::marker::Dying, std::ffi::os_str::OsString, core::option::Option<std::ffi::os_str::OsString>, alloc::collections::btree::node::marker::Internal>, alloc::collections::btree::node::marker::KV>" = type { %"core::marker::PhantomData<alloc::collections::btree::node::marker::KV>", { i64, i64* }, i64 }
%"alloc::collections::btree::node::Handle<alloc::collections::btree::node::NodeRef<alloc::collections::btree::node::marker::Dying, std::ffi::os_str::OsString, core::option::Option<std::ffi::os_str::OsString>, alloc::collections::btree::node::marker::LeafOrInternal>, alloc::collections::btree::node::marker::Edge>" = type { %"core::marker::PhantomData<alloc::collections::btree::node::marker::Edge>", { i64, i64* }, i64 }
%"core::result::Result<alloc::collections::btree::node::Handle<alloc::collections::btree::node::NodeRef<alloc::collections::btree::node::marker::Dying, std::ffi::os_str::OsString, core::option::Option<std::ffi::os_str::OsString>, alloc::collections::btree::node::marker::LeafOrInternal>, alloc::collections::btree::node::marker::KV>, alloc::collections::btree::node::Handle<alloc::collections::btree::node::NodeRef<alloc::collections::btree::node::marker::Dying, std::ffi::os_str::OsString, core::option::Option<std::ffi::os_str::OsString>, alloc::collections::btree::node::marker::LeafOrInternal>, alloc::collections::btree::node::marker::Edge>>" = type { i64, [3 x i64] }
%"core::result::Result<alloc::collections::btree::node::Handle<alloc::collections::btree::node::NodeRef<alloc::collections::btree::node::marker::Dying, std::ffi::os_str::OsString, core::option::Option<std::ffi::os_str::OsString>, alloc::collections::btree::node::marker::LeafOrInternal>, alloc::collections::btree::node::marker::KV>, alloc::collections::btree::node::Handle<alloc::collections::btree::node::NodeRef<alloc::collections::btree::node::marker::Dying, std::ffi::os_str::OsString, core::option::Option<std::ffi::os_str::OsString>, alloc::collections::btree::node::marker::LeafOrInternal>, alloc::collections::btree::node::marker::Edge>>::Err" = type { [1 x i64], %"alloc::collections::btree::node::Handle<alloc::collections::btree::node::NodeRef<alloc::collections::btree::node::marker::Dying, std::ffi::os_str::OsString, core::option::Option<std::ffi::os_str::OsString>, alloc::collections::btree::node::marker::LeafOrInternal>, alloc::collections::btree::node::marker::Edge>" }
%"core::result::Result<alloc::collections::btree::node::Handle<alloc::collections::btree::node::NodeRef<alloc::collections::btree::node::marker::Dying, std::ffi::os_str::OsString, core::option::Option<std::ffi::os_str::OsString>, alloc::collections::btree::node::marker::LeafOrInternal>, alloc::collections::btree::node::marker::KV>, alloc::collections::btree::node::Handle<alloc::collections::btree::node::NodeRef<alloc::collections::btree::node::marker::Dying, std::ffi::os_str::OsString, core::option::Option<std::ffi::os_str::OsString>, alloc::collections::btree::node::marker::LeafOrInternal>, alloc::collections::btree::node::marker::Edge>>::Ok" = type { [1 x i64], %"alloc::collections::btree::node::Handle<alloc::collections::btree::node::NodeRef<alloc::collections::btree::node::marker::Dying, std::ffi::os_str::OsString, core::option::Option<std::ffi::os_str::OsString>, alloc::collections::btree::node::marker::LeafOrInternal>, alloc::collections::btree::node::marker::KV>" }
%"alloc::collections::btree::node::ForceResult<alloc::collections::btree::node::Handle<alloc::collections::btree::node::NodeRef<alloc::collections::btree::node::marker::Dying, std::ffi::os_str::OsString, core::option::Option<std::ffi::os_str::OsString>, alloc::collections::btree::node::marker::Leaf>, alloc::collections::btree::node::marker::KV>, alloc::collections::btree::node::Handle<alloc::collections::btree::node::NodeRef<alloc::collections::btree::node::marker::Dying, std::ffi::os_str::OsString, core::option::Option<std::ffi::os_str::OsString>, alloc::collections::btree::node::marker::Internal>, alloc::collections::btree::node::marker::KV>>" = type { i64, [3 x i64] }
%"alloc::collections::btree::node::ForceResult<alloc::collections::btree::node::NodeRef<alloc::collections::btree::node::marker::Dying, std::ffi::os_str::OsString, core::option::Option<std::ffi::os_str::OsString>, alloc::collections::btree::node::marker::Leaf>, alloc::collections::btree::node::NodeRef<alloc::collections::btree::node::marker::Dying, std::ffi::os_str::OsString, core::option::Option<std::ffi::os_str::OsString>, alloc::collections::btree::node::marker::Internal>>" = type { i64, [2 x i64] }
%"alloc::collections::btree::node::ForceResult<alloc::collections::btree::node::NodeRef<alloc::collections::btree::node::marker::Dying, std::ffi::os_str::OsString, core::option::Option<std::ffi::os_str::OsString>, alloc::collections::btree::node::marker::Leaf>, alloc::collections::btree::node::NodeRef<alloc::collections::btree::node::marker::Dying, std::ffi::os_str::OsString, core::option::Option<std::ffi::os_str::OsString>, alloc::collections::btree::node::marker::Internal>>::Leaf" = type { [1 x i64], { i64, i64* } }
%"alloc::collections::btree::node::ForceResult<alloc::collections::btree::node::Handle<alloc::collections::btree::node::NodeRef<alloc::collections::btree::node::marker::Dying, std::ffi::os_str::OsString, core::option::Option<std::ffi::os_str::OsString>, alloc::collections::btree::node::marker::Leaf>, alloc::collections::btree::node::marker::KV>, alloc::collections::btree::node::Handle<alloc::collections::btree::node::NodeRef<alloc::collections::btree::node::marker::Dying, std::ffi::os_str::OsString, core::option::Option<std::ffi::os_str::OsString>, alloc::collections::btree::node::marker::Internal>, alloc::collections::btree::node::marker::KV>>::Leaf" = type { [1 x i64], %"alloc::collections::btree::node::Handle<alloc::collections::btree::node::NodeRef<alloc::collections::btree::node::marker::Dying, std::ffi::os_str::OsString, core::option::Option<std::ffi::os_str::OsString>, alloc::collections::btree::node::marker::Leaf>, alloc::collections::btree::node::marker::KV>" }
%"alloc::collections::btree::node::ForceResult<alloc::collections::btree::node::NodeRef<alloc::collections::btree::node::marker::Dying, std::ffi::os_str::OsString, core::option::Option<std::ffi::os_str::OsString>, alloc::collections::btree::node::marker::Leaf>, alloc::collections::btree::node::NodeRef<alloc::collections::btree::node::marker::Dying, std::ffi::os_str::OsString, core::option::Option<std::ffi::os_str::OsString>, alloc::collections::btree::node::marker::Internal>>::Internal" = type { [1 x i64], { i64, i64* } }
%"alloc::collections::btree::node::ForceResult<alloc::collections::btree::node::Handle<alloc::collections::btree::node::NodeRef<alloc::collections::btree::node::marker::Dying, std::ffi::os_str::OsString, core::option::Option<std::ffi::os_str::OsString>, alloc::collections::btree::node::marker::Leaf>, alloc::collections::btree::node::marker::KV>, alloc::collections::btree::node::Handle<alloc::collections::btree::node::NodeRef<alloc::collections::btree::node::marker::Dying, std::ffi::os_str::OsString, core::option::Option<std::ffi::os_str::OsString>, alloc::collections::btree::node::marker::Internal>, alloc::collections::btree::node::marker::KV>>::Internal" = type { [1 x i64], %"alloc::collections::btree::node::Handle<alloc::collections::btree::node::NodeRef<alloc::collections::btree::node::marker::Dying, std::ffi::os_str::OsString, core::option::Option<std::ffi::os_str::OsString>, alloc::collections::btree::node::marker::Internal>, alloc::collections::btree::node::marker::KV>" }
%"alloc::collections::btree::navigate::LazyLeafHandle<alloc::collections::btree::node::marker::Dying, std::ffi::os_str::OsString, core::option::Option<std::ffi::os_str::OsString>>" = type { i64, [3 x i64] }
%"alloc::collections::btree::navigate::LazyLeafHandle<alloc::collections::btree::node::marker::Dying, std::ffi::os_str::OsString, core::option::Option<std::ffi::os_str::OsString>>::Root" = type { [1 x i64], { i64, i64* } }
%"core::option::Option<alloc::collections::btree::navigate::LazyLeafHandle<alloc::collections::btree::node::marker::Dying, std::ffi::os_str::OsString, core::option::Option<std::ffi::os_str::OsString>>>::Some" = type { %"alloc::collections::btree::navigate::LazyLeafHandle<alloc::collections::btree::node::marker::Dying, std::ffi::os_str::OsString, core::option::Option<std::ffi::os_str::OsString>>" }
%"alloc::collections::btree::navigate::LazyLeafHandle<alloc::collections::btree::node::marker::Dying, std::ffi::os_str::OsString, core::option::Option<std::ffi::os_str::OsString>>::Edge" = type { [1 x i64], %"alloc::collections::btree::node::Handle<alloc::collections::btree::node::NodeRef<alloc::collections::btree::node::marker::Dying, std::ffi::os_str::OsString, core::option::Option<std::ffi::os_str::OsString>, alloc::collections::btree::node::marker::Leaf>, alloc::collections::btree::node::marker::Edge>" }
%"core::option::Option<alloc::collections::btree::node::Handle<alloc::collections::btree::node::NodeRef<alloc::collections::btree::node::marker::Dying, std::ffi::os_str::OsString, core::option::Option<std::ffi::os_str::OsString>, alloc::collections::btree::node::marker::Leaf>, alloc::collections::btree::node::marker::Edge>>" = type { [1 x i64], {}*, [1 x i64] }
%"core::ops::control_flow::ControlFlow<core::option::Option<core::convert::Infallible>, alloc::collections::btree::navigate::LazyLeafHandle<alloc::collections::btree::node::marker::Dying, std::ffi::os_str::OsString, core::option::Option<std::ffi::os_str::OsString>>>" = type { i64, [3 x i64] }
%"core::ops::control_flow::ControlFlow<core::option::Option<core::convert::Infallible>, alloc::collections::btree::navigate::LazyLeafHandle<alloc::collections::btree::node::marker::Dying, std::ffi::os_str::OsString, core::option::Option<std::ffi::os_str::OsString>>>::Continue" = type { %"alloc::collections::btree::navigate::LazyLeafHandle<alloc::collections::btree::node::marker::Dying, std::ffi::os_str::OsString, core::option::Option<std::ffi::os_str::OsString>>" }
%"core::option::Option<alloc::collections::btree::node::Handle<alloc::collections::btree::node::NodeRef<alloc::collections::btree::node::marker::Dying, std::ffi::os_str::OsString, core::option::Option<std::ffi::os_str::OsString>, alloc::collections::btree::node::marker::Leaf>, alloc::collections::btree::node::marker::Edge>>::Some" = type { %"alloc::collections::btree::node::Handle<alloc::collections::btree::node::NodeRef<alloc::collections::btree::node::marker::Dying, std::ffi::os_str::OsString, core::option::Option<std::ffi::os_str::OsString>, alloc::collections::btree::node::marker::Leaf>, alloc::collections::btree::node::marker::Edge>" }
%"core::result::Result<&str, core::str::error::Utf8Error>::Err" = type { [1 x i64], %"core::str::error::Utf8Error" }
%"core::option::Option<(core::ptr::non_null::NonNull<u8>, core::alloc::layout::Layout)>" = type { {}*, [2 x i64] }
%"core::option::Option<(core::ptr::non_null::NonNull<u8>, core::alloc::layout::Layout)>::Some" = type { { i8*, { i64, i64 } } }
%"core::ops::control_flow::ControlFlow<core::option::Option<core::convert::Infallible>>::Continue" = type { [1 x i8], {} }
%"core::result::Result<core::convert::Infallible, core::alloc::AllocError>::Err" = type { %"core::alloc::AllocError" }
%"core::ops::control_flow::ControlFlow<core::result::Result<core::convert::Infallible, core::alloc::AllocError>, core::ptr::non_null::NonNull<u8>>::Break" = type { %"core::result::Result<core::convert::Infallible, core::alloc::AllocError>::Err" }
%"core::option::Option<i32>::Some" = type { [1 x i32], i32 }
%"unwind::libunwind::_Unwind_Exception" = type { i64, void (i32, %"unwind::libunwind::_Unwind_Exception"*)*, [6 x i64] }
%"unwind::libunwind::_Unwind_Context" = type { [0 x i8] }

@vtable.0 = private unnamed_addr constant <{ i8*, [16 x i8], i8*, i8*, i8*, [0 x i8] }> <{ i8* bitcast (void (i64**)* @"_ZN4core3ptr85drop_in_place$LT$std..rt..lang_start$LT$$LP$$RP$$GT$..$u7b$$u7b$closure$u7d$$u7d$$GT$17h253fe28c94f644ccE" to i8*), [16 x i8] c"\08\00\00\00\00\00\00\00\08\00\00\00\00\00\00\00", i8* bitcast (i32 (i64**)* @"_ZN4core3ops8function6FnOnce40call_once$u7b$$u7b$vtable.shim$u7d$$u7d$17h6289ab4c2a77e1e9E" to i8*), i8* bitcast (i32 (i64**)* @"_ZN3std2rt10lang_start28_$u7b$$u7b$closure$u7d$$u7d$17h98aa37b02d749be6E" to i8*), i8* bitcast (i32 (i64**)* @"_ZN3std2rt10lang_start28_$u7b$$u7b$closure$u7d$$u7d$17h98aa37b02d749be6E" to i8*), [0 x i8] zeroinitializer }>, align 8
@vtable.1 = private unnamed_addr constant <{ i8*, [16 x i8], i8*, i8*, [0 x i8] }> <{ i8* bitcast (void ({ i8*, i64 }*)* @"_ZN4core3ptr77drop_in_place$LT$std..panicking..begin_panic..PanicPayload$LT$$RF$str$GT$$GT$17hbf159b74dbabedc0E" to i8*), [16 x i8] c"\10\00\00\00\00\00\00\00\08\00\00\00\00\00\00\00", i8* bitcast ({ {}*, [3 x i64]* } ({ i8*, i64 }*)* @"_ZN91_$LT$std..panicking..begin_panic..PanicPayload$LT$A$GT$$u20$as$u20$core..panic..BoxMeUp$GT$8take_box17hc01c6e170429b154E" to i8*), i8* bitcast ({ {}*, [3 x i64]* } ({ i8*, i64 }*)* @"_ZN91_$LT$std..panicking..begin_panic..PanicPayload$LT$A$GT$$u20$as$u20$core..panic..BoxMeUp$GT$3get17h426976c7dba80135E" to i8*), [0 x i8] zeroinitializer }>, align 8
@alloc198 = private unnamed_addr constant <{ [12 x i8] }> <{ [12 x i8] c"invalid args" }>, align 1
@alloc199 = private unnamed_addr constant <{ [75 x i8] }> <{ [75 x i8] c"/rustc/34926f0a1681458588a2d4240c0715ef9eff7d35/library/core/src/fmt/mod.rs" }>, align 1
@alloc200 = private unnamed_addr constant <{ i8*, [16 x i8] }> <{ i8* getelementptr inbounds (<{ [75 x i8] }>, <{ [75 x i8] }>* @alloc199, i32 0, i32 0, i32 0), [16 x i8] c"K\00\00\00\00\00\00\00k\01\00\00\0D\00\00\00" }>, align 8
@alloc201 = private unnamed_addr constant <{ [75 x i8] }> <{ [75 x i8] c"/rustc/34926f0a1681458588a2d4240c0715ef9eff7d35/library/core/src/ptr/mod.rs" }>, align 1
@alloc202 = private unnamed_addr constant <{ i8*, [16 x i8] }> <{ i8* getelementptr inbounds (<{ [75 x i8] }>, <{ [75 x i8] }>* @alloc201, i32 0, i32 0, i32 0), [16 x i8] c"K\00\00\00\00\00\00\00\BE\02\00\00\0D\00\00\00" }>, align 8
@alloc207 = private unnamed_addr constant <{ [80 x i8] }> <{ [80 x i8] c"/rustc/34926f0a1681458588a2d4240c0715ef9eff7d35/library/core/src/char/methods.rs" }>, align 1
@alloc204 = private unnamed_addr constant <{ i8*, [16 x i8] }> <{ i8* getelementptr inbounds (<{ [80 x i8] }>, <{ [80 x i8] }>* @alloc207, i32 0, i32 0, i32 0), [16 x i8] c"P\00\00\00\00\00\00\00{\06\00\00\16\00\00\00" }>, align 8
@alloc206 = private unnamed_addr constant <{ i8*, [16 x i8] }> <{ i8* getelementptr inbounds (<{ [80 x i8] }>, <{ [80 x i8] }>* @alloc207, i32 0, i32 0, i32 0), [16 x i8] c"P\00\00\00\00\00\00\00\95\06\00\00\0A\00\00\00" }>, align 8
@alloc129 = private unnamed_addr constant <{ [18 x i8] }> <{ [18 x i8] c"encode_utf8: need " }>, align 1
@alloc131 = private unnamed_addr constant <{ [19 x i8] }> <{ [19 x i8] c" bytes to encode U+" }>, align 1
@alloc132 = private unnamed_addr constant <{ [21 x i8] }> <{ [21 x i8] c", but the buffer has " }>, align 1
@alloc130 = private unnamed_addr constant <{ i8*, [8 x i8], i8*, [8 x i8], i8*, [8 x i8] }> <{ i8* getelementptr inbounds (<{ [18 x i8] }>, <{ [18 x i8] }>* @alloc129, i32 0, i32 0, i32 0), [8 x i8] c"\12\00\00\00\00\00\00\00", i8* getelementptr inbounds (<{ [19 x i8] }>, <{ [19 x i8] }>* @alloc131, i32 0, i32 0, i32 0), [8 x i8] c"\13\00\00\00\00\00\00\00", i8* getelementptr inbounds (<{ [21 x i8] }>, <{ [21 x i8] }>* @alloc132, i32 0, i32 0, i32 0), [8 x i8] c"\15\00\00\00\00\00\00\00" }>, align 8
@alloc208 = private unnamed_addr constant <{ i8*, [16 x i8] }> <{ i8* getelementptr inbounds (<{ [80 x i8] }>, <{ [80 x i8] }>* @alloc207, i32 0, i32 0, i32 0), [16 x i8] c"P\00\00\00\00\00\00\00\8E\06\00\00\0E\00\00\00" }>, align 8
@alloc209 = private unnamed_addr constant <{ [88 x i8] }> <{ [88 x i8] c"/rustc/34926f0a1681458588a2d4240c0715ef9eff7d35/library/core/src/iter/traits/iterator.rs" }>, align 1
@alloc210 = private unnamed_addr constant <{ i8*, [16 x i8] }> <{ i8* getelementptr inbounds (<{ [88 x i8] }>, <{ [88 x i8] }>* @alloc209, i32 0, i32 0, i32 0), [16 x i8] c"X\00\00\00\00\00\00\00\13\01\00\00\0D\00\00\00" }>, align 8
@alloc211 = private unnamed_addr constant <{ [77 x i8] }> <{ [77 x i8] c"/rustc/34926f0a1681458588a2d4240c0715ef9eff7d35/library/core/src/slice/mod.rs" }>, align 1
@alloc212 = private unnamed_addr constant <{ i8*, [16 x i8] }> <{ i8* getelementptr inbounds (<{ [77 x i8] }>, <{ [77 x i8] }>* @alloc211, i32 0, i32 0, i32 0), [16 x i8] c"M\00\00\00\00\00\00\00a\08\00\00'\00\00\00" }>, align 8
@alloc216 = private unnamed_addr constant <{ [43 x i8] }> <{ [43 x i8] c"called `Option::unwrap()` on a `None` value" }>, align 1
@alloc108 = private unnamed_addr constant <{ [0 x i8] }> zeroinitializer, align 8
@alloc222 = private unnamed_addr constant <{ [47 x i8] }> <{ [47 x i8] c"assertion failed: BorrowType::PERMITS_TRAVERSAL" }>, align 1
@alloc225 = private unnamed_addr constant <{ [91 x i8] }> <{ [91 x i8] c"/rustc/34926f0a1681458588a2d4240c0715ef9eff7d35/library/alloc/src/collections/btree/node.rs" }>, align 1
@alloc219 = private unnamed_addr constant <{ i8*, [16 x i8] }> <{ i8* getelementptr inbounds (<{ [91 x i8] }>, <{ [91 x i8] }>* @alloc225, i32 0, i32 0, i32 0), [16 x i8] c"[\00\00\00\00\00\00\00\E5\03\00\00\09\00\00\00" }>, align 8
@alloc221 = private unnamed_addr constant <{ i8*, [16 x i8] }> <{ i8* getelementptr inbounds (<{ [91 x i8] }>, <{ [91 x i8] }>* @alloc225, i32 0, i32 0, i32 0), [16 x i8] c"[\00\00\00\00\00\00\00\EE\03\00\00I\00\00\00" }>, align 8
@alloc224 = private unnamed_addr constant <{ i8*, [16 x i8] }> <{ i8* getelementptr inbounds (<{ [91 x i8] }>, <{ [91 x i8] }>* @alloc225, i32 0, i32 0, i32 0), [16 x i8] c"[\00\00\00\00\00\00\00>\01\00\00\09\00\00\00" }>, align 8
@alloc226 = private unnamed_addr constant <{ i8*, [16 x i8] }> <{ i8* getelementptr inbounds (<{ [91 x i8] }>, <{ [91 x i8] }>* @alloc225, i32 0, i32 0, i32 0), [16 x i8] c"[\00\00\00\00\00\00\00F\01\00\00B\00\00\00" }>, align 8
@alloc229 = private unnamed_addr constant <{ [95 x i8] }> <{ [95 x i8] c"/rustc/34926f0a1681458588a2d4240c0715ef9eff7d35/library/alloc/src/collections/btree/navigate.rs" }>, align 1
@alloc228 = private unnamed_addr constant <{ i8*, [16 x i8] }> <{ i8* getelementptr inbounds (<{ [95 x i8] }>, <{ [95 x i8] }>* @alloc229, i32 0, i32 0, i32 0), [16 x i8] c"_\00\00\00\00\00\00\00?\02\00\00V\00\00\00" }>, align 8
@alloc230 = private unnamed_addr constant <{ i8*, [16 x i8] }> <{ i8* getelementptr inbounds (<{ [95 x i8] }>, <{ [95 x i8] }>* @alloc229, i32 0, i32 0, i32 0), [16 x i8] c"_\00\00\00\00\00\00\00\B8\00\00\00'\00\00\00" }>, align 8
@alloc231 = private unnamed_addr constant <{ [74 x i8] }> <{ [74 x i8] c"/rustc/34926f0a1681458588a2d4240c0715ef9eff7d35/library/alloc/src/alloc.rs" }>, align 1
@alloc232 = private unnamed_addr constant <{ i8*, [16 x i8] }> <{ i8* getelementptr inbounds (<{ [74 x i8] }>, <{ [74 x i8] }>* @alloc231, i32 0, i32 0, i32 0), [16 x i8] c"J\00\00\00\00\00\00\00\AA\00\00\00\1B\00\00\00" }>, align 8
@alloc233 = private unnamed_addr constant <{ [77 x i8] }> <{ [77 x i8] c"/rustc/34926f0a1681458588a2d4240c0715ef9eff7d35/library/std/src/ffi/os_str.rs" }>, align 1
@alloc234 = private unnamed_addr constant <{ i8*, [16 x i8] }> <{ i8* getelementptr inbounds (<{ [77 x i8] }>, <{ [77 x i8] }>* @alloc233, i32 0, i32 0, i32 0), [16 x i8] c"M\00\00\00\00\00\00\00\93\01\00\00\0A\00\00\00" }>, align 8
@alloc235 = private unnamed_addr constant <{ [79 x i8] }> <{ [79 x i8] c"/rustc/34926f0a1681458588a2d4240c0715ef9eff7d35/library/core/src/str/pattern.rs" }>, align 1
@alloc236 = private unnamed_addr constant <{ i8*, [16 x i8] }> <{ i8* getelementptr inbounds (<{ [79 x i8] }>, <{ [79 x i8] }>* @alloc235, i32 0, i32 0, i32 0), [16 x i8] c"O\00\00\00\00\00\00\00\B7\01\00\00&\00\00\00" }>, align 8
@alloc237 = private unnamed_addr constant <{ [78 x i8] }> <{ [78 x i8] c"/rustc/34926f0a1681458588a2d4240c0715ef9eff7d35/library/core/src/slice/iter.rs" }>, align 1
@alloc238 = private unnamed_addr constant <{ i8*, [16 x i8] }> <{ i8* getelementptr inbounds (<{ [78 x i8] }>, <{ [78 x i8] }>* @alloc237, i32 0, i32 0, i32 0), [16 x i8] c"N\00\00\00\00\00\00\00\86\00\00\00\01\00\00\00" }>, align 8
@str.2 = internal constant [28 x i8] c"attempt to add with overflow"
@vtable.3 = private unnamed_addr constant <{ i8*, [16 x i8], i8*, [0 x i8] }> <{ i8* bitcast (void ({ [0 x i8]*, i64 }*)* @"_ZN4core3ptr28drop_in_place$LT$$RF$str$GT$17h41e067d0b9396e25E" to i8*), [16 x i8] c"\10\00\00\00\00\00\00\00\08\00\00\00\00\00\00\00", i8* bitcast (i64 ({ [0 x i8]*, i64 }*)* @"_ZN36_$LT$T$u20$as$u20$core..any..Any$GT$7type_id17hcbef1c24f4ea1487E" to i8*), [0 x i8] zeroinitializer }>, align 8
@alloc2 = private unnamed_addr constant <{ [32 x i8] }> <{ [32 x i8] c"cargo:rerun-if-changed=build.rs\0A" }>, align 1
@alloc3 = private unnamed_addr constant <{ i8*, [8 x i8] }> <{ i8* getelementptr inbounds (<{ [32 x i8] }>, <{ [32 x i8] }>* @alloc2, i32 0, i32 0, i32 0), [8 x i8] c" \00\00\00\00\00\00\00" }>, align 8
@alloc242 = private unnamed_addr constant <{ [27 x i8] }> <{ [27 x i8] c"Failed to get rustc version" }>, align 1
@alloc260 = private unnamed_addr constant <{ [78 x i8] }> <{ [78 x i8] c"/home/cj/.cargo/registry/src/github.com-1ecc6299db9ec823/libc-0.2.121/build.rs" }>, align 1
@alloc244 = private unnamed_addr constant <{ i8*, [16 x i8] }> <{ i8* getelementptr inbounds (<{ [78 x i8] }>, <{ [78 x i8] }>* @alloc260, i32 0, i32 0, i32 0), [16 x i8] c"N\00\00\00\00\00\00\00\09\00\00\00?\00\00\00" }>, align 8
@alloc245 = private unnamed_addr constant <{ [30 x i8] }> <{ [30 x i8] c"CARGO_FEATURE_RUSTC_DEP_OF_STD" }>, align 1
@alloc246 = private unnamed_addr constant <{ [19 x i8] }> <{ [19 x i8] c"CARGO_FEATURE_ALIGN" }>, align 1
@alloc247 = private unnamed_addr constant <{ [29 x i8] }> <{ [29 x i8] c"CARGO_FEATURE_CONST_EXTERN_FN" }>, align 1
@alloc248 = private unnamed_addr constant <{ [7 x i8] }> <{ [7 x i8] c"LIBC_CI" }>, align 1
@alloc249 = private unnamed_addr constant <{ [21 x i8] }> <{ [21 x i8] c"CARGO_FEATURE_USE_STD" }>, align 1
@alloc14 = private unnamed_addr constant <{ [132 x i8] }> <{ [132 x i8] c"cargo:warning=\22libc's use_std cargo feature is deprecated since libc 0.2.55; please consider using the `std` cargo feature instead\22\0A" }>, align 1
@alloc15 = private unnamed_addr constant <{ i8*, [8 x i8] }> <{ i8* getelementptr inbounds (<{ [132 x i8] }>, <{ [132 x i8] }>* @alloc14, i32 0, i32 0, i32 0), [8 x i8] c"\84\00\00\00\00\00\00\00" }>, align 8
@alloc39 = private unnamed_addr constant <{ [26 x i8] }> <{ [26 x i8] c"cargo:rustc-cfg=freebsd14\0A" }>, align 1
@alloc40 = private unnamed_addr constant <{ i8*, [8 x i8] }> <{ i8* getelementptr inbounds (<{ [26 x i8] }>, <{ [26 x i8] }>* @alloc39, i32 0, i32 0, i32 0), [8 x i8] c"\1A\00\00\00\00\00\00\00" }>, align 8
@alloc34 = private unnamed_addr constant <{ [26 x i8] }> <{ [26 x i8] c"cargo:rustc-cfg=freebsd13\0A" }>, align 1
@alloc35 = private unnamed_addr constant <{ i8*, [8 x i8] }> <{ i8* getelementptr inbounds (<{ [26 x i8] }>, <{ [26 x i8] }>* @alloc34, i32 0, i32 0, i32 0), [8 x i8] c"\1A\00\00\00\00\00\00\00" }>, align 8
@alloc29 = private unnamed_addr constant <{ [26 x i8] }> <{ [26 x i8] c"cargo:rustc-cfg=freebsd12\0A" }>, align 1
@alloc30 = private unnamed_addr constant <{ i8*, [8 x i8] }> <{ i8* getelementptr inbounds (<{ [26 x i8] }>, <{ [26 x i8] }>* @alloc29, i32 0, i32 0, i32 0), [8 x i8] c"\1A\00\00\00\00\00\00\00" }>, align 8
@alloc44 = private unnamed_addr constant <{ [26 x i8] }> <{ [26 x i8] c"cargo:rustc-cfg=freebsd11\0A" }>, align 1
@alloc45 = private unnamed_addr constant <{ i8*, [8 x i8] }> <{ i8* getelementptr inbounds (<{ [26 x i8] }>, <{ [26 x i8] }>* @alloc44, i32 0, i32 0, i32 0), [8 x i8] c"\1A\00\00\00\00\00\00\00" }>, align 8
@alloc19 = private unnamed_addr constant <{ [26 x i8] }> <{ [26 x i8] c"cargo:rustc-cfg=freebsd10\0A" }>, align 1
@alloc20 = private unnamed_addr constant <{ i8*, [8 x i8] }> <{ i8* getelementptr inbounds (<{ [26 x i8] }>, <{ [26 x i8] }>* @alloc19, i32 0, i32 0, i32 0), [8 x i8] c"\1A\00\00\00\00\00\00\00" }>, align 8
@alloc49 = private unnamed_addr constant <{ [35 x i8] }> <{ [35 x i8] c"cargo:rustc-cfg=libc_deny_warnings\0A" }>, align 1
@alloc50 = private unnamed_addr constant <{ i8*, [8 x i8] }> <{ i8* getelementptr inbounds (<{ [35 x i8] }>, <{ [35 x i8] }>* @alloc49, i32 0, i32 0, i32 0), [8 x i8] c"#\00\00\00\00\00\00\00" }>, align 8
@alloc54 = private unnamed_addr constant <{ [34 x i8] }> <{ [34 x i8] c"cargo:rustc-cfg=libc_priv_mod_use\0A" }>, align 1
@alloc55 = private unnamed_addr constant <{ i8*, [8 x i8] }> <{ i8* getelementptr inbounds (<{ [34 x i8] }>, <{ [34 x i8] }>* @alloc54, i32 0, i32 0, i32 0), [8 x i8] c"\22\00\00\00\00\00\00\00" }>, align 8
@alloc59 = private unnamed_addr constant <{ [27 x i8] }> <{ [27 x i8] c"cargo:rustc-cfg=libc_union\0A" }>, align 1
@alloc60 = private unnamed_addr constant <{ i8*, [8 x i8] }> <{ i8* getelementptr inbounds (<{ [27 x i8] }>, <{ [27 x i8] }>* @alloc59, i32 0, i32 0, i32 0), [8 x i8] c"\1B\00\00\00\00\00\00\00" }>, align 8
@alloc64 = private unnamed_addr constant <{ [35 x i8] }> <{ [35 x i8] c"cargo:rustc-cfg=libc_const_size_of\0A" }>, align 1
@alloc65 = private unnamed_addr constant <{ i8*, [8 x i8] }> <{ i8* getelementptr inbounds (<{ [35 x i8] }>, <{ [35 x i8] }>* @alloc64, i32 0, i32 0, i32 0), [8 x i8] c"#\00\00\00\00\00\00\00" }>, align 8
@alloc69 = private unnamed_addr constant <{ [27 x i8] }> <{ [27 x i8] c"cargo:rustc-cfg=libc_align\0A" }>, align 1
@alloc70 = private unnamed_addr constant <{ i8*, [8 x i8] }> <{ i8* getelementptr inbounds (<{ [27 x i8] }>, <{ [27 x i8] }>* @alloc69, i32 0, i32 0, i32 0), [8 x i8] c"\1B\00\00\00\00\00\00\00" }>, align 8
@alloc74 = private unnamed_addr constant <{ [32 x i8] }> <{ [32 x i8] c"cargo:rustc-cfg=libc_core_cvoid\0A" }>, align 1
@alloc75 = private unnamed_addr constant <{ i8*, [8 x i8] }> <{ i8* getelementptr inbounds (<{ [32 x i8] }>, <{ [32 x i8] }>* @alloc74, i32 0, i32 0, i32 0), [8 x i8] c" \00\00\00\00\00\00\00" }>, align 8
@alloc79 = private unnamed_addr constant <{ [29 x i8] }> <{ [29 x i8] c"cargo:rustc-cfg=libc_packedN\0A" }>, align 1
@alloc80 = private unnamed_addr constant <{ i8*, [8 x i8] }> <{ i8* getelementptr inbounds (<{ [29 x i8] }>, <{ [29 x i8] }>* @alloc79, i32 0, i32 0, i32 0), [8 x i8] c"\1D\00\00\00\00\00\00\00" }>, align 8
@alloc84 = private unnamed_addr constant <{ [39 x i8] }> <{ [39 x i8] c"cargo:rustc-cfg=libc_cfg_target_vendor\0A" }>, align 1
@alloc85 = private unnamed_addr constant <{ i8*, [8 x i8] }> <{ i8* getelementptr inbounds (<{ [39 x i8] }>, <{ [39 x i8] }>* @alloc84, i32 0, i32 0, i32 0), [8 x i8] c"'\00\00\00\00\00\00\00" }>, align 8
@alloc89 = private unnamed_addr constant <{ [36 x i8] }> <{ [36 x i8] c"cargo:rustc-cfg=libc_non_exhaustive\0A" }>, align 1
@alloc90 = private unnamed_addr constant <{ i8*, [8 x i8] }> <{ i8* getelementptr inbounds (<{ [36 x i8] }>, <{ [36 x i8] }>* @alloc89, i32 0, i32 0, i32 0), [8 x i8] c"$\00\00\00\00\00\00\00" }>, align 8
@alloc94 = private unnamed_addr constant <{ [33 x i8] }> <{ [33 x i8] c"cargo:rustc-cfg=libc_ptr_addr_of\0A" }>, align 1
@alloc95 = private unnamed_addr constant <{ i8*, [8 x i8] }> <{ i8* getelementptr inbounds (<{ [33 x i8] }>, <{ [33 x i8] }>* @alloc94, i32 0, i32 0, i32 0), [8 x i8] c"!\00\00\00\00\00\00\00" }>, align 8
@alloc99 = private unnamed_addr constant <{ [34 x i8] }> <{ [34 x i8] c"cargo:rustc-cfg=libc_thread_local\0A" }>, align 1
@alloc100 = private unnamed_addr constant <{ i8*, [8 x i8] }> <{ i8* getelementptr inbounds (<{ [34 x i8] }>, <{ [34 x i8] }>* @alloc99, i32 0, i32 0, i32 0), [8 x i8] c"\22\00\00\00\00\00\00\00" }>, align 8
@alloc250 = private unnamed_addr constant <{ [51 x i8] }> <{ [51 x i8] c"const-extern-fn requires a nightly compiler >= 1.40" }>, align 1
@alloc252 = private unnamed_addr constant <{ i8*, [16 x i8] }> <{ i8* getelementptr inbounds (<{ [78 x i8] }>, <{ [78 x i8] }>* @alloc260, i32 0, i32 0, i32 0), [16 x i8] c"N\00\00\00\00\00\00\00\\\00\00\00\0D\00\00\00" }>, align 8
@alloc105 = private unnamed_addr constant <{ [37 x i8] }> <{ [37 x i8] c"cargo:rustc-cfg=libc_const_extern_fn\0A" }>, align 1
@alloc106 = private unnamed_addr constant <{ i8*, [8 x i8] }> <{ i8* getelementptr inbounds (<{ [37 x i8] }>, <{ [37 x i8] }>* @alloc105, i32 0, i32 0, i32 0), [8 x i8] c"%\00\00\00\00\00\00\00" }>, align 8
@alloc253 = private unnamed_addr constant <{ [5 x i8] }> <{ [5 x i8] c"RUSTC" }>, align 1
@alloc254 = private unnamed_addr constant <{ [9 x i8] }> <{ [9 x i8] c"--version" }>, align 1
@alloc116 = private unnamed_addr constant <{ [7 x i8] }> <{ [7 x i8] c"rustc 1" }>, align 1
@alloc117 = private unnamed_addr constant <{ i8*, [8 x i8] }> <{ i8* getelementptr inbounds (<{ [7 x i8] }>, <{ [7 x i8] }>* @alloc116, i32 0, i32 0, i32 0), [8 x i8] c"\07\00\00\00\00\00\00\00" }>, align 8
@alloc255 = private unnamed_addr constant <{ [3 x i8] }> <{ [3 x i8] c"dev" }>, align 1
@alloc256 = private unnamed_addr constant <{ [7 x i8] }> <{ [7 x i8] c"nightly" }>, align 1
@alloc257 = private unnamed_addr constant <{ [15 x i8] }> <{ [15 x i8] c"freebsd-version" }>, align 1
@alloc259 = private unnamed_addr constant <{ i8*, [16 x i8] }> <{ i8* getelementptr inbounds (<{ [78 x i8] }>, <{ [78 x i8] }>* @alloc260, i32 0, i32 0, i32 0), [16 x i8] c"N\00\00\00\00\00\00\00\8A\00\00\00\19\00\00\00" }>, align 8
@alloc261 = private unnamed_addr constant <{ i8*, [16 x i8] }> <{ i8* getelementptr inbounds (<{ [78 x i8] }>, <{ [78 x i8] }>* @alloc260, i32 0, i32 0, i32 0), [16 x i8] c"N\00\00\00\00\00\00\00\93\00\00\00\19\00\00\00" }>, align 8
@alloc262 = private unnamed_addr constant <{ [2 x i8] }> <{ [2 x i8] c"10" }>, align 1
@alloc263 = private unnamed_addr constant <{ [2 x i8] }> <{ [2 x i8] c"11" }>, align 1
@alloc264 = private unnamed_addr constant <{ [2 x i8] }> <{ [2 x i8] c"12" }>, align 1
@alloc265 = private unnamed_addr constant <{ [2 x i8] }> <{ [2 x i8] c"13" }>, align 1
@alloc266 = private unnamed_addr constant <{ [2 x i8] }> <{ [2 x i8] c"14" }>, align 1

; <std::ffi::os_str::OsString as core::ops::index::Index<core::ops::range::RangeFull>>::index
; Function Attrs: inlinehint nonlazybind uwtable
define internal { %"std::ffi::os_str::OsStr"*, i64 } @"_ZN105_$LT$std..ffi..os_str..OsString$u20$as$u20$core..ops..index..Index$LT$core..ops..range..RangeFull$GT$$GT$5index17hf0074e4d23744227E"(%"std::ffi::os_str::OsString"* align 8 dereferenceable(24) %self, %"core::panic::location::Location"* align 8 dereferenceable(24) %0) unnamed_addr #0 {
start:
  %_5 = bitcast %"std::ffi::os_str::OsString"* %self to %"std::sys::unix::os_str::Buf"*
; call std::sys::unix::os_str::Buf::as_slice
  %1 = call { %"std::sys::unix::os_str::Slice"*, i64 } @_ZN3std3sys4unix6os_str3Buf8as_slice17h42b7a0a86f930a71E(%"std::sys::unix::os_str::Buf"* align 8 dereferenceable(24) %_5)
  %_4.0 = extractvalue { %"std::sys::unix::os_str::Slice"*, i64 } %1, 0
  %_4.1 = extractvalue { %"std::sys::unix::os_str::Slice"*, i64 } %1, 1
  br label %bb1

bb1:                                              ; preds = %start
; call std::ffi::os_str::OsStr::from_inner
  %2 = call { %"std::ffi::os_str::OsStr"*, i64 } @_ZN3std3ffi6os_str5OsStr10from_inner17h9154b68a67cd2aa0E(%"std::sys::unix::os_str::Slice"* nonnull align 1 %_4.0, i64 %_4.1)
  %3 = extractvalue { %"std::ffi::os_str::OsStr"*, i64 } %2, 0
  %4 = extractvalue { %"std::ffi::os_str::OsStr"*, i64 } %2, 1
  br label %bb2

bb2:                                              ; preds = %bb1
  %5 = insertvalue { %"std::ffi::os_str::OsStr"*, i64 } undef, %"std::ffi::os_str::OsStr"* %3, 0
  %6 = insertvalue { %"std::ffi::os_str::OsStr"*, i64 } %5, i64 %4, 1
  ret { %"std::ffi::os_str::OsStr"*, i64 } %6
}

; <core::ops::range::Range<usize> as core::slice::index::SliceIndex<[T]>>::get_unchecked
; Function Attrs: inlinehint nonlazybind uwtable
define internal { [0 x i8]*, i64 } @"_ZN106_$LT$core..ops..range..Range$LT$usize$GT$$u20$as$u20$core..slice..index..SliceIndex$LT$$u5b$T$u5d$$GT$$GT$13get_unchecked17h1b84a16ea61b9878E"(i64 %self.0, i64 %self.1, [0 x i8]* %slice.0, i64 %slice.1) unnamed_addr #0 {
start:
  %0 = alloca i8*, align 8
; call core::ptr::const_ptr::<impl *const [T]>::as_ptr
  %_4 = call i8* @"_ZN4core3ptr9const_ptr43_$LT$impl$u20$$BP$const$u20$$u5b$T$u5d$$GT$6as_ptr17h6a59ba393c6f345bE"([0 x i8]* %slice.0, i64 %slice.1)
  br label %bb1

bb1:                                              ; preds = %start
  %1 = getelementptr inbounds i8, i8* %_4, i64 %self.0
  store i8* %1, i8** %0, align 8
  %2 = load i8*, i8** %0, align 8
  br label %bb2

bb2:                                              ; preds = %bb1
  %_7 = sub i64 %self.1, %self.0
; call core::ptr::slice_from_raw_parts
  %3 = call { [0 x i8]*, i64 } @_ZN4core3ptr20slice_from_raw_parts17hac7827c8e81c7e62E(i8* %2, i64 %_7)
  %4 = extractvalue { [0 x i8]*, i64 } %3, 0
  %5 = extractvalue { [0 x i8]*, i64 } %3, 1
  br label %bb3

bb3:                                              ; preds = %bb2
  %6 = insertvalue { [0 x i8]*, i64 } undef, [0 x i8]* %4, 0
  %7 = insertvalue { [0 x i8]*, i64 } %6, i64 %5, 1
  ret { [0 x i8]*, i64 } %7
}

; <core::ops::range::Range<usize> as core::slice::index::SliceIndex<[T]>>::get_unchecked_mut
; Function Attrs: inlinehint nonlazybind uwtable
define internal { [0 x i8]*, i64 } @"_ZN106_$LT$core..ops..range..Range$LT$usize$GT$$u20$as$u20$core..slice..index..SliceIndex$LT$$u5b$T$u5d$$GT$$GT$17get_unchecked_mut17h27bd110c49eced89E"(i64 %self.0, i64 %self.1, [0 x i8]* %slice.0, i64 %slice.1) unnamed_addr #0 {
start:
  %0 = alloca i8*, align 8
  %1 = bitcast [0 x i8]* %slice.0 to i8*
  br label %bb1

bb1:                                              ; preds = %start
  %2 = getelementptr inbounds i8, i8* %1, i64 %self.0
  store i8* %2, i8** %0, align 8
  %_3.i = load i8*, i8** %0, align 8
  br label %bb2

bb2:                                              ; preds = %bb1
  %_7 = sub i64 %self.1, %self.0
; call core::ptr::slice_from_raw_parts_mut
  %3 = call { [0 x i8]*, i64 } @_ZN4core3ptr24slice_from_raw_parts_mut17h0ab8db256932ad4dE(i8* %_3.i, i64 %_7)
  %4 = extractvalue { [0 x i8]*, i64 } %3, 0
  %5 = extractvalue { [0 x i8]*, i64 } %3, 1
  br label %bb3

bb3:                                              ; preds = %bb2
  %6 = insertvalue { [0 x i8]*, i64 } undef, [0 x i8]* %4, 0
  %7 = insertvalue { [0 x i8]*, i64 } %6, i64 %5, 1
  ret { [0 x i8]*, i64 } %7
}

; <core::ops::range::Range<usize> as core::slice::index::SliceIndex<[T]>>::get
; Function Attrs: inlinehint nonlazybind uwtable
define internal { i8*, i64 } @"_ZN106_$LT$core..ops..range..Range$LT$usize$GT$$u20$as$u20$core..slice..index..SliceIndex$LT$$u5b$T$u5d$$GT$$GT$3get17h2bb98a97ab2ced25E"(i64 %self.0, i64 %self.1, [0 x i8]* nonnull align 1 %slice.0, i64 %slice.1) unnamed_addr #0 {
start:
  %_3 = alloca i8, align 1
  %0 = alloca { i8*, i64 }, align 8
  %_4 = icmp ugt i64 %self.0, %self.1
  br i1 %_4, label %bb1, label %bb2

bb2:                                              ; preds = %start
  %_7 = icmp ugt i64 %self.1, %slice.1
  %1 = zext i1 %_7 to i8
  store i8 %1, i8* %_3, align 1
  br label %bb3

bb1:                                              ; preds = %start
  store i8 1, i8* %_3, align 1
  br label %bb3

bb3:                                              ; preds = %bb2, %bb1
  %2 = load i8, i8* %_3, align 1, !range !3
  %3 = trunc i8 %2 to i1
  br i1 %3, label %bb4, label %bb5

bb5:                                              ; preds = %bb3
; call <core::ops::range::Range<usize> as core::slice::index::SliceIndex<[T]>>::get_unchecked
  %4 = call { [0 x i8]*, i64 } @"_ZN106_$LT$core..ops..range..Range$LT$usize$GT$$u20$as$u20$core..slice..index..SliceIndex$LT$$u5b$T$u5d$$GT$$GT$13get_unchecked17h1b84a16ea61b9878E"(i64 %self.0, i64 %self.1, [0 x i8]* %slice.0, i64 %slice.1)
  %_13.0 = extractvalue { [0 x i8]*, i64 } %4, 0
  %_13.1 = extractvalue { [0 x i8]*, i64 } %4, 1
  br label %bb6

bb4:                                              ; preds = %bb3
  %5 = bitcast { i8*, i64 }* %0 to {}**
  store {}* null, {}** %5, align 8
  br label %bb7

bb7:                                              ; preds = %bb6, %bb4
  %6 = getelementptr inbounds { i8*, i64 }, { i8*, i64 }* %0, i32 0, i32 0
  %7 = load i8*, i8** %6, align 8
  %8 = getelementptr inbounds { i8*, i64 }, { i8*, i64 }* %0, i32 0, i32 1
  %9 = load i64, i64* %8, align 8
  %10 = insertvalue { i8*, i64 } undef, i8* %7, 0
  %11 = insertvalue { i8*, i64 } %10, i64 %9, 1
  ret { i8*, i64 } %11

bb6:                                              ; preds = %bb5
  %12 = bitcast { i8*, i64 }* %0 to { [0 x i8]*, i64 }*
  %13 = getelementptr inbounds { [0 x i8]*, i64 }, { [0 x i8]*, i64 }* %12, i32 0, i32 0
  store [0 x i8]* %_13.0, [0 x i8]** %13, align 8
  %14 = getelementptr inbounds { [0 x i8]*, i64 }, { [0 x i8]*, i64 }* %12, i32 0, i32 1
  store i64 %_13.1, i64* %14, align 8
  br label %bb7
}

; <core::ops::range::Range<usize> as core::slice::index::SliceIndex<[T]>>::index
; Function Attrs: inlinehint nonlazybind uwtable
define internal { [0 x i8]*, i64 } @"_ZN106_$LT$core..ops..range..Range$LT$usize$GT$$u20$as$u20$core..slice..index..SliceIndex$LT$$u5b$T$u5d$$GT$$GT$5index17h919f3aaeaa9c9030E"(i64 %self.0, i64 %self.1, [0 x i8]* nonnull align 1 %slice.0, i64 %slice.1, %"core::panic::location::Location"* align 8 dereferenceable(24) %0) unnamed_addr #0 {
start:
  %_3 = icmp ugt i64 %self.0, %self.1
  br i1 %_3, label %bb1, label %bb2

bb2:                                              ; preds = %start
  %_8 = icmp ugt i64 %self.1, %slice.1
  br i1 %_8, label %bb3, label %bb4

bb1:                                              ; preds = %start
; call core::slice::index::slice_index_order_fail
  call void @_ZN4core5slice5index22slice_index_order_fail17ha673a48f2cebcf85E(i64 %self.0, i64 %self.1, %"core::panic::location::Location"* align 8 dereferenceable(24) %0) #17
  unreachable

bb4:                                              ; preds = %bb2
; call <core::ops::range::Range<usize> as core::slice::index::SliceIndex<[T]>>::get_unchecked
  %1 = call { [0 x i8]*, i64 } @"_ZN106_$LT$core..ops..range..Range$LT$usize$GT$$u20$as$u20$core..slice..index..SliceIndex$LT$$u5b$T$u5d$$GT$$GT$13get_unchecked17h1b84a16ea61b9878E"(i64 %self.0, i64 %self.1, [0 x i8]* %slice.0, i64 %slice.1)
  %_15.0 = extractvalue { [0 x i8]*, i64 } %1, 0
  %_15.1 = extractvalue { [0 x i8]*, i64 } %1, 1
  br label %bb5

bb3:                                              ; preds = %bb2
; call core::slice::index::slice_end_index_len_fail
  call void @_ZN4core5slice5index24slice_end_index_len_fail17hfcd4a63042ccbeccE(i64 %self.1, i64 %slice.1, %"core::panic::location::Location"* align 8 dereferenceable(24) %0) #17
  unreachable

bb5:                                              ; preds = %bb4
  %2 = insertvalue { [0 x i8]*, i64 } undef, [0 x i8]* %_15.0, 0
  %3 = insertvalue { [0 x i8]*, i64 } %2, i64 %_15.1, 1
  ret { [0 x i8]*, i64 } %3
}

; <core::ops::range::Range<usize> as core::slice::index::SliceIndex<[T]>>::index_mut
; Function Attrs: inlinehint nonlazybind uwtable
define internal { [0 x i8]*, i64 } @"_ZN106_$LT$core..ops..range..Range$LT$usize$GT$$u20$as$u20$core..slice..index..SliceIndex$LT$$u5b$T$u5d$$GT$$GT$9index_mut17h450980412f998f8dE"(i64 %self.0, i64 %self.1, [0 x i8]* nonnull align 1 %slice.0, i64 %slice.1, %"core::panic::location::Location"* align 8 dereferenceable(24) %0) unnamed_addr #0 {
start:
  %_4 = icmp ugt i64 %self.0, %self.1
  br i1 %_4, label %bb1, label %bb2

bb2:                                              ; preds = %start
  %_9 = icmp ugt i64 %self.1, %slice.1
  br i1 %_9, label %bb3, label %bb4

bb1:                                              ; preds = %start
; call core::slice::index::slice_index_order_fail
  call void @_ZN4core5slice5index22slice_index_order_fail17ha673a48f2cebcf85E(i64 %self.0, i64 %self.1, %"core::panic::location::Location"* align 8 dereferenceable(24) %0) #17
  unreachable

bb4:                                              ; preds = %bb2
; call <core::ops::range::Range<usize> as core::slice::index::SliceIndex<[T]>>::get_unchecked_mut
  %1 = call { [0 x i8]*, i64 } @"_ZN106_$LT$core..ops..range..Range$LT$usize$GT$$u20$as$u20$core..slice..index..SliceIndex$LT$$u5b$T$u5d$$GT$$GT$17get_unchecked_mut17h27bd110c49eced89E"(i64 %self.0, i64 %self.1, [0 x i8]* %slice.0, i64 %slice.1)
  %_18.0 = extractvalue { [0 x i8]*, i64 } %1, 0
  %_18.1 = extractvalue { [0 x i8]*, i64 } %1, 1
  br label %bb5

bb3:                                              ; preds = %bb2
; call core::slice::index::slice_end_index_len_fail
  call void @_ZN4core5slice5index24slice_end_index_len_fail17hfcd4a63042ccbeccE(i64 %self.1, i64 %slice.1, %"core::panic::location::Location"* align 8 dereferenceable(24) %0) #17
  unreachable

bb5:                                              ; preds = %bb4
  %2 = insertvalue { [0 x i8]*, i64 } undef, [0 x i8]* %_18.0, 0
  %3 = insertvalue { [0 x i8]*, i64 } %2, i64 %_18.1, 1
  ret { [0 x i8]*, i64 } %3
}

; <core::ops::range::RangeTo<usize> as core::slice::index::SliceIndex<[T]>>::index
; Function Attrs: inlinehint nonlazybind uwtable
define internal { [0 x i8]*, i64 } @"_ZN108_$LT$core..ops..range..RangeTo$LT$usize$GT$$u20$as$u20$core..slice..index..SliceIndex$LT$$u5b$T$u5d$$GT$$GT$5index17h83ab164f54c612d0E"(i64 %self, [0 x i8]* nonnull align 1 %slice.0, i64 %slice.1, %"core::panic::location::Location"* align 8 dereferenceable(24) %0) unnamed_addr #0 {
start:
  %_3 = alloca { i64, i64 }, align 8
  %1 = bitcast { i64, i64 }* %_3 to i64*
  store i64 0, i64* %1, align 8
  %2 = getelementptr inbounds { i64, i64 }, { i64, i64 }* %_3, i32 0, i32 1
  store i64 %self, i64* %2, align 8
  %3 = getelementptr inbounds { i64, i64 }, { i64, i64 }* %_3, i32 0, i32 0
  %4 = load i64, i64* %3, align 8
  %5 = getelementptr inbounds { i64, i64 }, { i64, i64 }* %_3, i32 0, i32 1
  %6 = load i64, i64* %5, align 8
; call <core::ops::range::Range<usize> as core::slice::index::SliceIndex<[T]>>::index
  %7 = call { [0 x i8]*, i64 } @"_ZN106_$LT$core..ops..range..Range$LT$usize$GT$$u20$as$u20$core..slice..index..SliceIndex$LT$$u5b$T$u5d$$GT$$GT$5index17h919f3aaeaa9c9030E"(i64 %4, i64 %6, [0 x i8]* nonnull align 1 %slice.0, i64 %slice.1, %"core::panic::location::Location"* align 8 dereferenceable(24) %0)
  %8 = extractvalue { [0 x i8]*, i64 } %7, 0
  %9 = extractvalue { [0 x i8]*, i64 } %7, 1
  br label %bb1

bb1:                                              ; preds = %start
  %10 = insertvalue { [0 x i8]*, i64 } undef, [0 x i8]* %8, 0
  %11 = insertvalue { [0 x i8]*, i64 } %10, i64 %9, 1
  ret { [0 x i8]*, i64 } %11
}

; <core::ops::range::RangeTo<usize> as core::slice::index::SliceIndex<[T]>>::index_mut
; Function Attrs: inlinehint nonlazybind uwtable
define internal { [0 x i8]*, i64 } @"_ZN108_$LT$core..ops..range..RangeTo$LT$usize$GT$$u20$as$u20$core..slice..index..SliceIndex$LT$$u5b$T$u5d$$GT$$GT$9index_mut17ha6505be4ef02bf96E"(i64 %self, [0 x i8]* nonnull align 1 %slice.0, i64 %slice.1, %"core::panic::location::Location"* align 8 dereferenceable(24) %0) unnamed_addr #0 {
start:
  %_5 = alloca { i64, i64 }, align 8
  %1 = bitcast { i64, i64 }* %_5 to i64*
  store i64 0, i64* %1, align 8
  %2 = getelementptr inbounds { i64, i64 }, { i64, i64 }* %_5, i32 0, i32 1
  store i64 %self, i64* %2, align 8
  %3 = getelementptr inbounds { i64, i64 }, { i64, i64 }* %_5, i32 0, i32 0
  %4 = load i64, i64* %3, align 8
  %5 = getelementptr inbounds { i64, i64 }, { i64, i64 }* %_5, i32 0, i32 1
  %6 = load i64, i64* %5, align 8
; call <core::ops::range::Range<usize> as core::slice::index::SliceIndex<[T]>>::index_mut
  %7 = call { [0 x i8]*, i64 } @"_ZN106_$LT$core..ops..range..Range$LT$usize$GT$$u20$as$u20$core..slice..index..SliceIndex$LT$$u5b$T$u5d$$GT$$GT$9index_mut17h450980412f998f8dE"(i64 %4, i64 %6, [0 x i8]* nonnull align 1 %slice.0, i64 %slice.1, %"core::panic::location::Location"* align 8 dereferenceable(24) %0)
  %_4.0 = extractvalue { [0 x i8]*, i64 } %7, 0
  %_4.1 = extractvalue { [0 x i8]*, i64 } %7, 1
  br label %bb1

bb1:                                              ; preds = %start
  %8 = insertvalue { [0 x i8]*, i64 } undef, [0 x i8]* %_4.0, 0
  %9 = insertvalue { [0 x i8]*, i64 } %8, i64 %_4.1, 1
  ret { [0 x i8]*, i64 } %9
}

; <alloc::collections::btree::map::BTreeMap<K,V> as core::iter::traits::collect::IntoIterator>::into_iter
; Function Attrs: nonlazybind uwtable
define internal void @"_ZN115_$LT$alloc..collections..btree..map..BTreeMap$LT$K$C$V$GT$$u20$as$u20$core..iter..traits..collect..IntoIterator$GT$9into_iter17h05c36e38a82db9c9E"(%"alloc::collections::btree::map::IntoIter<std::ffi::os_str::OsString, core::option::Option<std::ffi::os_str::OsString>>"* noalias nocapture sret(%"alloc::collections::btree::map::IntoIter<std::ffi::os_str::OsString, core::option::Option<std::ffi::os_str::OsString>>") dereferenceable(72) %0, %"alloc::collections::btree::map::BTreeMap<std::ffi::os_str::OsString, core::option::Option<std::ffi::os_str::OsString>>"* noalias nocapture dereferenceable(24) %self) unnamed_addr #1 {
start:
  %_2.i = alloca %"alloc::collections::btree::map::BTreeMap<std::ffi::os_str::OsString, core::option::Option<std::ffi::os_str::OsString>>", align 8
  %_17 = alloca %"alloc::collections::btree::navigate::LazyLeafRange<alloc::collections::btree::node::marker::Dying, std::ffi::os_str::OsString, core::option::Option<std::ffi::os_str::OsString>>", align 8
  %_13 = alloca %"alloc::collections::btree::navigate::LazyLeafRange<alloc::collections::btree::node::marker::Dying, std::ffi::os_str::OsString, core::option::Option<std::ffi::os_str::OsString>>", align 8
  %full_range = alloca %"alloc::collections::btree::navigate::LazyLeafRange<alloc::collections::btree::node::marker::Dying, std::ffi::os_str::OsString, core::option::Option<std::ffi::os_str::OsString>>", align 8
  %_4 = alloca { i64, i64* }, align 8
  %_3 = alloca %"alloc::collections::btree::map::BTreeMap<std::ffi::os_str::OsString, core::option::Option<std::ffi::os_str::OsString>>", align 8
  %me = alloca %"core::mem::manually_drop::ManuallyDrop<alloc::collections::btree::map::BTreeMap<std::ffi::os_str::OsString, core::option::Option<std::ffi::os_str::OsString>>>", align 8
  %1 = bitcast %"alloc::collections::btree::map::BTreeMap<std::ffi::os_str::OsString, core::option::Option<std::ffi::os_str::OsString>>"* %_3 to i8*
  %2 = bitcast %"alloc::collections::btree::map::BTreeMap<std::ffi::os_str::OsString, core::option::Option<std::ffi::os_str::OsString>>"* %self to i8*
  call void @llvm.memcpy.p0i8.p0i8.i64(i8* align 8 %1, i8* align 8 %2, i64 24, i1 false)
  call void @llvm.experimental.noalias.scope.decl(metadata !4)
  call void @llvm.experimental.noalias.scope.decl(metadata !7)
  %3 = bitcast %"alloc::collections::btree::map::BTreeMap<std::ffi::os_str::OsString, core::option::Option<std::ffi::os_str::OsString>>"* %_2.i to i8*
  %4 = bitcast %"alloc::collections::btree::map::BTreeMap<std::ffi::os_str::OsString, core::option::Option<std::ffi::os_str::OsString>>"* %_3 to i8*
  call void @llvm.memcpy.p0i8.p0i8.i64(i8* align 8 %3, i8* align 8 %4, i64 24, i1 false), !noalias !4
  %5 = bitcast %"core::mem::manually_drop::ManuallyDrop<alloc::collections::btree::map::BTreeMap<std::ffi::os_str::OsString, core::option::Option<std::ffi::os_str::OsString>>>"* %me to %"alloc::collections::btree::map::BTreeMap<std::ffi::os_str::OsString, core::option::Option<std::ffi::os_str::OsString>>"*
  %6 = bitcast %"alloc::collections::btree::map::BTreeMap<std::ffi::os_str::OsString, core::option::Option<std::ffi::os_str::OsString>>"* %5 to i8*
  %7 = bitcast %"alloc::collections::btree::map::BTreeMap<std::ffi::os_str::OsString, core::option::Option<std::ffi::os_str::OsString>>"* %_2.i to i8*
  call void @llvm.memcpy.p0i8.p0i8.i64(i8* align 8 %6, i8* align 8 %7, i64 24, i1 false), !noalias !7
  br label %bb1

bb1:                                              ; preds = %start
  %_3.i = bitcast %"core::mem::manually_drop::ManuallyDrop<alloc::collections::btree::map::BTreeMap<std::ffi::os_str::OsString, core::option::Option<std::ffi::os_str::OsString>>>"* %me to %"alloc::collections::btree::map::BTreeMap<std::ffi::os_str::OsString, core::option::Option<std::ffi::os_str::OsString>>"*
  br label %bb2

bb2:                                              ; preds = %bb1
  %_5 = bitcast %"alloc::collections::btree::map::BTreeMap<std::ffi::os_str::OsString, core::option::Option<std::ffi::os_str::OsString>>"* %_3.i to { i64, i64* }*
; call core::option::Option<T>::take
  %8 = call { i64, i64* } @"_ZN4core6option15Option$LT$T$GT$4take17hf1c91f8bbaba415fE"({ i64, i64* }* align 8 dereferenceable(16) %_5)
  store { i64, i64* } %8, { i64, i64* }* %_4, align 8
  br label %bb3

bb3:                                              ; preds = %bb2
  %9 = getelementptr inbounds { i64, i64* }, { i64, i64* }* %_4, i32 0, i32 1
  %10 = bitcast i64** %9 to {}**
  %11 = load {}*, {}** %10, align 8
  %12 = icmp eq {}* %11, null
  %_8 = select i1 %12, i64 0, i64 1
  %13 = icmp eq i64 %_8, 1
  br i1 %13, label %bb4, label %bb8

bb4:                                              ; preds = %bb3
  %14 = getelementptr inbounds { i64, i64* }, { i64, i64* }* %_4, i32 0, i32 0
  %root.0 = load i64, i64* %14, align 8
  %15 = getelementptr inbounds { i64, i64* }, { i64, i64* }* %_4, i32 0, i32 1
  %root.1 = load i64*, i64** %15, align 8, !nonnull !9
; call alloc::collections::btree::node::NodeRef<alloc::collections::btree::node::marker::Owned,K,V,Type>::into_dying
  %16 = call { i64, i64* } @"_ZN5alloc11collections5btree4node76NodeRef$LT$alloc..collections..btree..node..marker..Owned$C$K$C$V$C$Type$GT$10into_dying17hcc15468464f98a44E"(i64 %root.0, i64* nonnull %root.1)
  %_11.0 = extractvalue { i64, i64* } %16, 0
  %_11.1 = extractvalue { i64, i64* } %16, 1
  br label %bb5

bb8:                                              ; preds = %bb3
; call alloc::collections::btree::navigate::LazyLeafRange<BorrowType,K,V>::none
  call void @"_ZN5alloc11collections5btree8navigate39LazyLeafRange$LT$BorrowType$C$K$C$V$GT$4none17h0ac426dc7f186daeE"(%"alloc::collections::btree::navigate::LazyLeafRange<alloc::collections::btree::node::marker::Dying, std::ffi::os_str::OsString, core::option::Option<std::ffi::os_str::OsString>>"* noalias nocapture sret(%"alloc::collections::btree::navigate::LazyLeafRange<alloc::collections::btree::node::marker::Dying, std::ffi::os_str::OsString, core::option::Option<std::ffi::os_str::OsString>>") dereferenceable(64) %_17)
  br label %bb9

bb9:                                              ; preds = %bb8
  %17 = bitcast %"alloc::collections::btree::map::IntoIter<std::ffi::os_str::OsString, core::option::Option<std::ffi::os_str::OsString>>"* %0 to %"alloc::collections::btree::navigate::LazyLeafRange<alloc::collections::btree::node::marker::Dying, std::ffi::os_str::OsString, core::option::Option<std::ffi::os_str::OsString>>"*
  %18 = bitcast %"alloc::collections::btree::navigate::LazyLeafRange<alloc::collections::btree::node::marker::Dying, std::ffi::os_str::OsString, core::option::Option<std::ffi::os_str::OsString>>"* %17 to i8*
  %19 = bitcast %"alloc::collections::btree::navigate::LazyLeafRange<alloc::collections::btree::node::marker::Dying, std::ffi::os_str::OsString, core::option::Option<std::ffi::os_str::OsString>>"* %_17 to i8*
  call void @llvm.memcpy.p0i8.p0i8.i64(i8* align 8 %18, i8* align 8 %19, i64 64, i1 false)
  %20 = getelementptr inbounds %"alloc::collections::btree::map::IntoIter<std::ffi::os_str::OsString, core::option::Option<std::ffi::os_str::OsString>>", %"alloc::collections::btree::map::IntoIter<std::ffi::os_str::OsString, core::option::Option<std::ffi::os_str::OsString>>"* %0, i32 0, i32 1
  store i64 0, i64* %20, align 8
  br label %bb10

bb10:                                             ; preds = %bb7, %bb9
  ret void

bb5:                                              ; preds = %bb4
; call alloc::collections::btree::navigate::<impl alloc::collections::btree::node::NodeRef<alloc::collections::btree::node::marker::Dying,K,V,alloc::collections::btree::node::marker::LeafOrInternal>>::full_range
  call void @"_ZN5alloc11collections5btree8navigate178_$LT$impl$u20$alloc..collections..btree..node..NodeRef$LT$alloc..collections..btree..node..marker..Dying$C$K$C$V$C$alloc..collections..btree..node..marker..LeafOrInternal$GT$$GT$10full_range17ha8dbde778921ac4aE"(%"alloc::collections::btree::navigate::LazyLeafRange<alloc::collections::btree::node::marker::Dying, std::ffi::os_str::OsString, core::option::Option<std::ffi::os_str::OsString>>"* noalias nocapture sret(%"alloc::collections::btree::navigate::LazyLeafRange<alloc::collections::btree::node::marker::Dying, std::ffi::os_str::OsString, core::option::Option<std::ffi::os_str::OsString>>") dereferenceable(64) %full_range, i64 %_11.0, i64* nonnull %_11.1)
  br label %bb6

bb6:                                              ; preds = %bb5
  %21 = bitcast %"alloc::collections::btree::navigate::LazyLeafRange<alloc::collections::btree::node::marker::Dying, std::ffi::os_str::OsString, core::option::Option<std::ffi::os_str::OsString>>"* %_13 to i8*
  %22 = bitcast %"alloc::collections::btree::navigate::LazyLeafRange<alloc::collections::btree::node::marker::Dying, std::ffi::os_str::OsString, core::option::Option<std::ffi::os_str::OsString>>"* %full_range to i8*
  call void @llvm.memcpy.p0i8.p0i8.i64(i8* align 8 %21, i8* align 8 %22, i64 64, i1 false)
  %23 = bitcast %"core::mem::manually_drop::ManuallyDrop<alloc::collections::btree::map::BTreeMap<std::ffi::os_str::OsString, core::option::Option<std::ffi::os_str::OsString>>>"* %me to %"alloc::collections::btree::map::BTreeMap<std::ffi::os_str::OsString, core::option::Option<std::ffi::os_str::OsString>>"*
  br label %bb7

bb7:                                              ; preds = %bb6
  %24 = getelementptr inbounds %"alloc::collections::btree::map::BTreeMap<std::ffi::os_str::OsString, core::option::Option<std::ffi::os_str::OsString>>", %"alloc::collections::btree::map::BTreeMap<std::ffi::os_str::OsString, core::option::Option<std::ffi::os_str::OsString>>"* %23, i32 0, i32 1
  %_14 = load i64, i64* %24, align 8
  %25 = bitcast %"alloc::collections::btree::map::IntoIter<std::ffi::os_str::OsString, core::option::Option<std::ffi::os_str::OsString>>"* %0 to %"alloc::collections::btree::navigate::LazyLeafRange<alloc::collections::btree::node::marker::Dying, std::ffi::os_str::OsString, core::option::Option<std::ffi::os_str::OsString>>"*
  %26 = bitcast %"alloc::collections::btree::navigate::LazyLeafRange<alloc::collections::btree::node::marker::Dying, std::ffi::os_str::OsString, core::option::Option<std::ffi::os_str::OsString>>"* %25 to i8*
  %27 = bitcast %"alloc::collections::btree::navigate::LazyLeafRange<alloc::collections::btree::node::marker::Dying, std::ffi::os_str::OsString, core::option::Option<std::ffi::os_str::OsString>>"* %_13 to i8*
  call void @llvm.memcpy.p0i8.p0i8.i64(i8* align 8 %26, i8* align 8 %27, i64 64, i1 false)
  %28 = getelementptr inbounds %"alloc::collections::btree::map::IntoIter<std::ffi::os_str::OsString, core::option::Option<std::ffi::os_str::OsString>>", %"alloc::collections::btree::map::IntoIter<std::ffi::os_str::OsString, core::option::Option<std::ffi::os_str::OsString>>"* %0, i32 0, i32 1
  store i64 %_14, i64* %28, align 8
  br label %bb10
}

; <core::ptr::non_null::NonNull<T> as core::convert::From<core::ptr::unique::Unique<T>>>::from
; Function Attrs: inlinehint nonlazybind uwtable
define internal nonnull i8* @"_ZN119_$LT$core..ptr..non_null..NonNull$LT$T$GT$$u20$as$u20$core..convert..From$LT$core..ptr..unique..Unique$LT$T$GT$$GT$$GT$4from17h059e0e77e3062b24E"(i8* nonnull %unique) unnamed_addr #0 {
start:
; call core::ptr::unique::Unique<T>::as_ptr
  %_2 = call i8* @"_ZN4core3ptr6unique15Unique$LT$T$GT$6as_ptr17h20ae938a33ce3c72E"(i8* nonnull %unique)
  br label %bb1

bb1:                                              ; preds = %start
; call core::ptr::non_null::NonNull<T>::new_unchecked
  %0 = call nonnull i8* @"_ZN4core3ptr8non_null16NonNull$LT$T$GT$13new_unchecked17ha4c901b4ff4ff1aaE"(i8* %_2)
  br label %bb2

bb2:                                              ; preds = %bb1
  ret i8* %0
}

; <core::result::Result<T,F> as core::ops::try_trait::FromResidual<core::result::Result<core::convert::Infallible,E>>>::from_residual
; Function Attrs: inlinehint nonlazybind uwtable
define internal { i8*, i64 } @"_ZN153_$LT$core..result..Result$LT$T$C$F$GT$$u20$as$u20$core..ops..try_trait..FromResidual$LT$core..result..Result$LT$core..convert..Infallible$C$E$GT$$GT$$GT$13from_residual17hb66a21e47b46168aE"(%"core::panic::location::Location"* align 8 dereferenceable(24) %0) unnamed_addr #0 {
start:
  %1 = alloca { i8*, i64 }, align 8
; call <T as core::convert::From<T>>::from
  call void @"_ZN50_$LT$T$u20$as$u20$core..convert..From$LT$T$GT$$GT$4from17h56d3d5c93e7b9d17E"()
  br label %bb1

bb1:                                              ; preds = %start
  %2 = bitcast { i8*, i64 }* %1 to %"core::result::Result<core::ptr::non_null::NonNull<[u8]>, core::alloc::AllocError>::Err"*
  %3 = bitcast %"core::result::Result<core::ptr::non_null::NonNull<[u8]>, core::alloc::AllocError>::Err"* %2 to %"core::alloc::AllocError"*
  %4 = bitcast { i8*, i64 }* %1 to {}**
  store {}* null, {}** %4, align 8
  %5 = getelementptr inbounds { i8*, i64 }, { i8*, i64 }* %1, i32 0, i32 0
  %6 = load i8*, i8** %5, align 8
  %7 = getelementptr inbounds { i8*, i64 }, { i8*, i64 }* %1, i32 0, i32 1
  %8 = load i64, i64* %7, align 8
  %9 = insertvalue { i8*, i64 } undef, i8* %6, 0
  %10 = insertvalue { i8*, i64 } %9, i64 %8, 1
  ret { i8*, i64 } %10
}

; <core::result::Result<T,F> as core::ops::try_trait::FromResidual<core::result::Result<core::convert::Infallible,E>>>::from_residual
; Function Attrs: inlinehint nonlazybind uwtable
define internal { i64, i64 } @"_ZN153_$LT$core..result..Result$LT$T$C$F$GT$$u20$as$u20$core..ops..try_trait..FromResidual$LT$core..result..Result$LT$core..convert..Infallible$C$E$GT$$GT$$GT$13from_residual17hee70a9b820235a0fE"(i64 %0, %"core::panic::location::Location"* align 8 dereferenceable(24) %1) unnamed_addr #0 {
start:
  %2 = alloca { i64, i64 }, align 8
  %residual = alloca i64, align 8
  store i64 %0, i64* %residual, align 8
  %e = load i64, i64* %residual, align 8
; call <T as core::convert::From<T>>::from
  %_3 = call i64 @"_ZN50_$LT$T$u20$as$u20$core..convert..From$LT$T$GT$$GT$4from17hafc895f92767abe5E"(i64 %e)
  br label %bb1

bb1:                                              ; preds = %start
  %3 = bitcast { i64, i64 }* %2 to %"core::result::Result<(), usize>::Err"*
  %4 = getelementptr inbounds %"core::result::Result<(), usize>::Err", %"core::result::Result<(), usize>::Err"* %3, i32 0, i32 1
  store i64 %_3, i64* %4, align 8
  %5 = bitcast { i64, i64 }* %2 to i64*
  store i64 1, i64* %5, align 8
  %6 = getelementptr inbounds { i64, i64 }, { i64, i64 }* %2, i32 0, i32 0
  %7 = load i64, i64* %6, align 8, !range !10
  %8 = getelementptr inbounds { i64, i64 }, { i64, i64 }* %2, i32 0, i32 1
  %9 = load i64, i64* %8, align 8
  %10 = insertvalue { i64, i64 } undef, i64 %7, 0
  %11 = insertvalue { i64, i64 } %10, i64 %9, 1
  ret { i64, i64 } %11
}

; <<alloc::collections::btree::map::IntoIter<K,V> as core::ops::drop::Drop>::drop::DropGuard<K,V> as core::ops::drop::Drop>::drop
; Function Attrs: nonlazybind uwtable
define internal void @"_ZN166_$LT$$LT$alloc..collections..btree..map..IntoIter$LT$K$C$V$GT$$u20$as$u20$core..ops..drop..Drop$GT$..drop..DropGuard$LT$K$C$V$GT$$u20$as$u20$core..ops..drop..Drop$GT$4drop17he43f9d9185172ad9E"(i64** align 8 dereferenceable(8) %self) unnamed_addr #1 {
start:
  %_7 = alloca %"alloc::collections::btree::node::Handle<alloc::collections::btree::node::NodeRef<alloc::collections::btree::node::marker::Dying, std::ffi::os_str::OsString, core::option::Option<std::ffi::os_str::OsString>, alloc::collections::btree::node::marker::LeafOrInternal>, alloc::collections::btree::node::marker::KV>", align 8
  %kv = alloca %"alloc::collections::btree::node::Handle<alloc::collections::btree::node::NodeRef<alloc::collections::btree::node::marker::Dying, std::ffi::os_str::OsString, core::option::Option<std::ffi::os_str::OsString>, alloc::collections::btree::node::marker::LeafOrInternal>, alloc::collections::btree::node::marker::KV>", align 8
  %_2 = alloca %"core::option::Option<alloc::collections::btree::node::Handle<alloc::collections::btree::node::NodeRef<alloc::collections::btree::node::marker::Dying, std::ffi::os_str::OsString, core::option::Option<std::ffi::os_str::OsString>, alloc::collections::btree::node::marker::LeafOrInternal>, alloc::collections::btree::node::marker::KV>>", align 8
  br label %bb1

bb1:                                              ; preds = %bb4, %start
  %0 = bitcast i64** %self to %"alloc::collections::btree::map::IntoIter<std::ffi::os_str::OsString, core::option::Option<std::ffi::os_str::OsString>>"**
  %_3 = load %"alloc::collections::btree::map::IntoIter<std::ffi::os_str::OsString, core::option::Option<std::ffi::os_str::OsString>>"*, %"alloc::collections::btree::map::IntoIter<std::ffi::os_str::OsString, core::option::Option<std::ffi::os_str::OsString>>"** %0, align 8, !nonnull !9
; call alloc::collections::btree::map::IntoIter<K,V>::dying_next
  call void @"_ZN5alloc11collections5btree3map21IntoIter$LT$K$C$V$GT$10dying_next17h5d54f74feb55d2fcE"(%"core::option::Option<alloc::collections::btree::node::Handle<alloc::collections::btree::node::NodeRef<alloc::collections::btree::node::marker::Dying, std::ffi::os_str::OsString, core::option::Option<std::ffi::os_str::OsString>, alloc::collections::btree::node::marker::LeafOrInternal>, alloc::collections::btree::node::marker::KV>>"* noalias nocapture sret(%"core::option::Option<alloc::collections::btree::node::Handle<alloc::collections::btree::node::NodeRef<alloc::collections::btree::node::marker::Dying, std::ffi::os_str::OsString, core::option::Option<std::ffi::os_str::OsString>, alloc::collections::btree::node::marker::LeafOrInternal>, alloc::collections::btree::node::marker::KV>>") dereferenceable(24) %_2, %"alloc::collections::btree::map::IntoIter<std::ffi::os_str::OsString, core::option::Option<std::ffi::os_str::OsString>>"* align 8 dereferenceable(72) %_3)
  br label %bb2

bb2:                                              ; preds = %bb1
  %1 = getelementptr inbounds %"core::option::Option<alloc::collections::btree::node::Handle<alloc::collections::btree::node::NodeRef<alloc::collections::btree::node::marker::Dying, std::ffi::os_str::OsString, core::option::Option<std::ffi::os_str::OsString>, alloc::collections::btree::node::marker::LeafOrInternal>, alloc::collections::btree::node::marker::KV>>", %"core::option::Option<alloc::collections::btree::node::Handle<alloc::collections::btree::node::NodeRef<alloc::collections::btree::node::marker::Dying, std::ffi::os_str::OsString, core::option::Option<std::ffi::os_str::OsString>, alloc::collections::btree::node::marker::LeafOrInternal>, alloc::collections::btree::node::marker::KV>>"* %_2, i32 0, i32 1
  %2 = load {}*, {}** %1, align 8
  %3 = icmp eq {}* %2, null
  %_4 = select i1 %3, i64 0, i64 1
  %4 = icmp eq i64 %_4, 1
  br i1 %4, label %bb3, label %bb5

bb3:                                              ; preds = %bb2
  %5 = bitcast %"core::option::Option<alloc::collections::btree::node::Handle<alloc::collections::btree::node::NodeRef<alloc::collections::btree::node::marker::Dying, std::ffi::os_str::OsString, core::option::Option<std::ffi::os_str::OsString>, alloc::collections::btree::node::marker::LeafOrInternal>, alloc::collections::btree::node::marker::KV>>"* %_2 to %"core::option::Option<alloc::collections::btree::node::Handle<alloc::collections::btree::node::NodeRef<alloc::collections::btree::node::marker::Dying, std::ffi::os_str::OsString, core::option::Option<std::ffi::os_str::OsString>, alloc::collections::btree::node::marker::LeafOrInternal>, alloc::collections::btree::node::marker::KV>>::Some"*
  %6 = bitcast %"core::option::Option<alloc::collections::btree::node::Handle<alloc::collections::btree::node::NodeRef<alloc::collections::btree::node::marker::Dying, std::ffi::os_str::OsString, core::option::Option<std::ffi::os_str::OsString>, alloc::collections::btree::node::marker::LeafOrInternal>, alloc::collections::btree::node::marker::KV>>::Some"* %5 to %"alloc::collections::btree::node::Handle<alloc::collections::btree::node::NodeRef<alloc::collections::btree::node::marker::Dying, std::ffi::os_str::OsString, core::option::Option<std::ffi::os_str::OsString>, alloc::collections::btree::node::marker::LeafOrInternal>, alloc::collections::btree::node::marker::KV>"*
  %7 = bitcast %"alloc::collections::btree::node::Handle<alloc::collections::btree::node::NodeRef<alloc::collections::btree::node::marker::Dying, std::ffi::os_str::OsString, core::option::Option<std::ffi::os_str::OsString>, alloc::collections::btree::node::marker::LeafOrInternal>, alloc::collections::btree::node::marker::KV>"* %kv to i8*
  %8 = bitcast %"alloc::collections::btree::node::Handle<alloc::collections::btree::node::NodeRef<alloc::collections::btree::node::marker::Dying, std::ffi::os_str::OsString, core::option::Option<std::ffi::os_str::OsString>, alloc::collections::btree::node::marker::LeafOrInternal>, alloc::collections::btree::node::marker::KV>"* %6 to i8*
  call void @llvm.memcpy.p0i8.p0i8.i64(i8* align 8 %7, i8* align 8 %8, i64 24, i1 false)
  %9 = bitcast %"alloc::collections::btree::node::Handle<alloc::collections::btree::node::NodeRef<alloc::collections::btree::node::marker::Dying, std::ffi::os_str::OsString, core::option::Option<std::ffi::os_str::OsString>, alloc::collections::btree::node::marker::LeafOrInternal>, alloc::collections::btree::node::marker::KV>"* %_7 to i8*
  %10 = bitcast %"alloc::collections::btree::node::Handle<alloc::collections::btree::node::NodeRef<alloc::collections::btree::node::marker::Dying, std::ffi::os_str::OsString, core::option::Option<std::ffi::os_str::OsString>, alloc::collections::btree::node::marker::LeafOrInternal>, alloc::collections::btree::node::marker::KV>"* %kv to i8*
  call void @llvm.memcpy.p0i8.p0i8.i64(i8* align 8 %9, i8* align 8 %10, i64 24, i1 false)
; call alloc::collections::btree::node::Handle<alloc::collections::btree::node::NodeRef<alloc::collections::btree::node::marker::Dying,K,V,NodeType>,alloc::collections::btree::node::marker::KV>::drop_key_val
  call void @"_ZN5alloc11collections5btree4node173Handle$LT$alloc..collections..btree..node..NodeRef$LT$alloc..collections..btree..node..marker..Dying$C$K$C$V$C$NodeType$GT$$C$alloc..collections..btree..node..marker..KV$GT$12drop_key_val17h1a135734293dd22dE"(%"alloc::collections::btree::node::Handle<alloc::collections::btree::node::NodeRef<alloc::collections::btree::node::marker::Dying, std::ffi::os_str::OsString, core::option::Option<std::ffi::os_str::OsString>, alloc::collections::btree::node::marker::LeafOrInternal>, alloc::collections::btree::node::marker::KV>"* noalias nocapture dereferenceable(24) %_7)
  br label %bb4

bb5:                                              ; preds = %bb2
  ret void

bb4:                                              ; preds = %bb3
  br label %bb1
}

; <T as core::any::Any>::type_id
; Function Attrs: nonlazybind uwtable
define internal i64 @"_ZN36_$LT$T$u20$as$u20$core..any..Any$GT$7type_id17hcbef1c24f4ea1487E"({ [0 x i8]*, i64 }* align 8 dereferenceable(16) %self) unnamed_addr #1 {
start:
; call core::any::TypeId::of
  %0 = call i64 @_ZN4core3any6TypeId2of17hb0335f6ba8db0a97E()
  br label %bb1

bb1:                                              ; preds = %start
  ret i64 %0
}

; std::sys_common::backtrace::__rust_end_short_backtrace
; Function Attrs: noinline noreturn nonlazybind uwtable
define internal void @_ZN3std10sys_common9backtrace26__rust_end_short_backtrace17hfaa6e7722bb69183E(%"[closure@std::panicking::begin_panic<&str>::{closure#0}]"* noalias nocapture dereferenceable(24) %f) unnamed_addr #2 personality i32 (i32, i32, i64, %"unwind::libunwind::_Unwind_Exception"*, %"unwind::libunwind::_Unwind_Context"*)* @rust_eh_personality {
start:
  %0 = alloca { i8*, i32 }, align 8
  %_2 = alloca %"[closure@std::panicking::begin_panic<&str>::{closure#0}]", align 8
  %1 = bitcast %"[closure@std::panicking::begin_panic<&str>::{closure#0}]"* %_2 to i8*
  %2 = bitcast %"[closure@std::panicking::begin_panic<&str>::{closure#0}]"* %f to i8*
  call void @llvm.memcpy.p0i8.p0i8.i64(i8* align 8 %1, i8* align 8 %2, i64 24, i1 false)
; call std::panicking::begin_panic::{{closure}}
  call void @"_ZN3std9panicking11begin_panic28_$u7b$$u7b$closure$u7d$$u7d$17h6acc0967f08bc17bE"(%"[closure@std::panicking::begin_panic<&str>::{closure#0}]"* noalias nocapture dereferenceable(24) %_2) #17
  br label %bb1

bb1:                                              ; preds = %start
; invoke core::hint::black_box
  invoke void @_ZN4core4hint9black_box17h5143826b9c2bdf39E()
          to label %bb2 unwind label %cleanup

bb2:                                              ; preds = %bb1
  call void @llvm.trap()
  unreachable

bb3:                                              ; preds = %cleanup
  br label %bb4

cleanup:                                          ; preds = %bb1
  %3 = landingpad { i8*, i32 }
          cleanup
  %4 = extractvalue { i8*, i32 } %3, 0
  %5 = extractvalue { i8*, i32 } %3, 1
  %6 = getelementptr inbounds { i8*, i32 }, { i8*, i32 }* %0, i32 0, i32 0
  store i8* %4, i8** %6, align 8
  %7 = getelementptr inbounds { i8*, i32 }, { i8*, i32 }* %0, i32 0, i32 1
  store i32 %5, i32* %7, align 8
  br label %bb3

bb4:                                              ; preds = %bb3
  %8 = bitcast { i8*, i32 }* %0 to i8**
  %9 = load i8*, i8** %8, align 8
  %10 = getelementptr inbounds { i8*, i32 }, { i8*, i32 }* %0, i32 0, i32 1
  %11 = load i32, i32* %10, align 8
  %12 = insertvalue { i8*, i32 } undef, i8* %9, 0
  %13 = insertvalue { i8*, i32 } %12, i32 %11, 1
  resume { i8*, i32 } %13
}

; std::sys_common::backtrace::__rust_begin_short_backtrace
; Function Attrs: noinline nonlazybind uwtable
define internal void @_ZN3std10sys_common9backtrace28__rust_begin_short_backtrace17h81eadd0389565e03E(void ()* nonnull %f) unnamed_addr #3 personality i32 (i32, i32, i64, %"unwind::libunwind::_Unwind_Exception"*, %"unwind::libunwind::_Unwind_Context"*)* @rust_eh_personality {
start:
  %0 = alloca { i8*, i32 }, align 8
; call core::ops::function::FnOnce::call_once
  call void @_ZN4core3ops8function6FnOnce9call_once17h8e84673ba7cb1debE(void ()* nonnull %f)
  br label %bb1

bb1:                                              ; preds = %start
; invoke core::hint::black_box
  invoke void @_ZN4core4hint9black_box17h5143826b9c2bdf39E()
          to label %bb2 unwind label %cleanup

bb2:                                              ; preds = %bb1
  ret void

bb3:                                              ; preds = %cleanup
  br label %bb4

cleanup:                                          ; preds = %bb1
  %1 = landingpad { i8*, i32 }
          cleanup
  %2 = extractvalue { i8*, i32 } %1, 0
  %3 = extractvalue { i8*, i32 } %1, 1
  %4 = getelementptr inbounds { i8*, i32 }, { i8*, i32 }* %0, i32 0, i32 0
  store i8* %2, i8** %4, align 8
  %5 = getelementptr inbounds { i8*, i32 }, { i8*, i32 }* %0, i32 0, i32 1
  store i32 %3, i32* %5, align 8
  br label %bb3

bb4:                                              ; preds = %bb3
  %6 = bitcast { i8*, i32 }* %0 to i8**
  %7 = load i8*, i8** %6, align 8
  %8 = getelementptr inbounds { i8*, i32 }, { i8*, i32 }* %0, i32 0, i32 1
  %9 = load i32, i32* %8, align 8
  %10 = insertvalue { i8*, i32 } undef, i8* %7, 0
  %11 = insertvalue { i8*, i32 } %10, i32 %9, 1
  resume { i8*, i32 } %11
}

; std::rt::lang_start
; Function Attrs: nonlazybind uwtable
define hidden i64 @_ZN3std2rt10lang_start17h46eac33772a4c283E(void ()* nonnull %main, i64 %argc, i8** %argv) unnamed_addr #1 {
start:
  %_8 = alloca i64*, align 8
  %_4 = alloca i64, align 8
  %0 = bitcast i64** %_8 to void ()**
  store void ()* %main, void ()** %0, align 8
  %_5.0 = bitcast i64** %_8 to {}*
; call std::rt::lang_start_internal
  %1 = call i64 @_ZN3std2rt19lang_start_internal17h75965f95c98f11d8E({}* nonnull align 1 %_5.0, [3 x i64]* align 8 dereferenceable(24) bitcast (<{ i8*, [16 x i8], i8*, i8*, i8*, [0 x i8] }>* @vtable.0 to [3 x i64]*), i64 %argc, i8** %argv)
  store i64 %1, i64* %_4, align 8
  br label %bb1

bb1:                                              ; preds = %start
  %v = load i64, i64* %_4, align 8
  ret i64 %v
}

; std::rt::lang_start::{{closure}}
; Function Attrs: inlinehint nonlazybind uwtable
define internal i32 @"_ZN3std2rt10lang_start28_$u7b$$u7b$closure$u7d$$u7d$17h98aa37b02d749be6E"(i64** align 8 dereferenceable(8) %_1) unnamed_addr #0 {
start:
  %0 = bitcast i64** %_1 to void ()**
  %_3 = load void ()*, void ()** %0, align 8, !nonnull !9
; call std::sys_common::backtrace::__rust_begin_short_backtrace
  call void @_ZN3std10sys_common9backtrace28__rust_begin_short_backtrace17h81eadd0389565e03E(void ()* nonnull %_3)
  br label %bb1

bb1:                                              ; preds = %start
; call <() as std::process::Termination>::report
  %1 = call i32 @"_ZN54_$LT$$LP$$RP$$u20$as$u20$std..process..Termination$GT$6report17hb7b0e394c270998dE"()
  br label %bb2

bb2:                                              ; preds = %bb1
  ret i32 %1
}

; std::env::var
; Function Attrs: nonlazybind uwtable
define internal void @_ZN3std3env3var17h443c6e486eff3058E(%"core::result::Result<alloc::string::String, std::env::VarError>"* noalias nocapture sret(%"core::result::Result<alloc::string::String, std::env::VarError>") dereferenceable(32) %0, [0 x i8]* nonnull align 1 %1, i64 %2) unnamed_addr #1 personality i32 (i32, i32, i64, %"unwind::libunwind::_Unwind_Exception"*, %"unwind::libunwind::_Unwind_Context"*)* @rust_eh_personality {
start:
  %3 = alloca { i8*, i32 }, align 8
  %key = alloca { [0 x i8]*, i64 }, align 8
  %4 = getelementptr inbounds { [0 x i8]*, i64 }, { [0 x i8]*, i64 }* %key, i32 0, i32 0
  store [0 x i8]* %1, [0 x i8]** %4, align 8
  %5 = getelementptr inbounds { [0 x i8]*, i64 }, { [0 x i8]*, i64 }* %key, i32 0, i32 1
  store i64 %2, i64* %5, align 8
; invoke <&T as core::convert::AsRef<U>>::as_ref
  %6 = invoke { %"std::ffi::os_str::OsStr"*, i64 } @"_ZN55_$LT$$RF$T$u20$as$u20$core..convert..AsRef$LT$U$GT$$GT$6as_ref17hbbf44ea26e23f7a9E"({ [0 x i8]*, i64 }* align 8 dereferenceable(16) %key)
          to label %bb1 unwind label %cleanup

bb1:                                              ; preds = %start
  %_3.0 = extractvalue { %"std::ffi::os_str::OsStr"*, i64 } %6, 0
  %_3.1 = extractvalue { %"std::ffi::os_str::OsStr"*, i64 } %6, 1
; invoke std::env::_var
  invoke void @_ZN3std3env4_var17he1594e4854f7d5e9E(%"core::result::Result<alloc::string::String, std::env::VarError>"* noalias nocapture sret(%"core::result::Result<alloc::string::String, std::env::VarError>") dereferenceable(32) %0, %"std::ffi::os_str::OsStr"* nonnull align 1 %_3.0, i64 %_3.1)
          to label %bb2 unwind label %cleanup

bb4:                                              ; preds = %cleanup
  br label %bb5

cleanup:                                          ; preds = %bb1, %start
  %7 = landingpad { i8*, i32 }
          cleanup
  %8 = extractvalue { i8*, i32 } %7, 0
  %9 = extractvalue { i8*, i32 } %7, 1
  %10 = getelementptr inbounds { i8*, i32 }, { i8*, i32 }* %3, i32 0, i32 0
  store i8* %8, i8** %10, align 8
  %11 = getelementptr inbounds { i8*, i32 }, { i8*, i32 }* %3, i32 0, i32 1
  store i32 %9, i32* %11, align 8
  br label %bb4

bb2:                                              ; preds = %bb1
  br label %bb3

bb5:                                              ; preds = %bb4
  %12 = bitcast { i8*, i32 }* %3 to i8**
  %13 = load i8*, i8** %12, align 8
  %14 = getelementptr inbounds { i8*, i32 }, { i8*, i32 }* %3, i32 0, i32 1
  %15 = load i32, i32* %14, align 8
  %16 = insertvalue { i8*, i32 } undef, i8* %13, 0
  %17 = insertvalue { i8*, i32 } %16, i32 %15, 1
  resume { i8*, i32 } %17

bb3:                                              ; preds = %bb2
  ret void
}

; std::env::var_os
; Function Attrs: nonlazybind uwtable
define internal void @_ZN3std3env6var_os17hc7a8388843bcad31E(%"core::option::Option<std::ffi::os_str::OsString>"* noalias nocapture sret(%"core::option::Option<std::ffi::os_str::OsString>") dereferenceable(24) %0, [0 x i8]* nonnull align 1 %1, i64 %2) unnamed_addr #1 personality i32 (i32, i32, i64, %"unwind::libunwind::_Unwind_Exception"*, %"unwind::libunwind::_Unwind_Context"*)* @rust_eh_personality {
start:
  %3 = alloca { i8*, i32 }, align 8
  %key = alloca { [0 x i8]*, i64 }, align 8
  %4 = getelementptr inbounds { [0 x i8]*, i64 }, { [0 x i8]*, i64 }* %key, i32 0, i32 0
  store [0 x i8]* %1, [0 x i8]** %4, align 8
  %5 = getelementptr inbounds { [0 x i8]*, i64 }, { [0 x i8]*, i64 }* %key, i32 0, i32 1
  store i64 %2, i64* %5, align 8
; invoke <&T as core::convert::AsRef<U>>::as_ref
  %6 = invoke { %"std::ffi::os_str::OsStr"*, i64 } @"_ZN55_$LT$$RF$T$u20$as$u20$core..convert..AsRef$LT$U$GT$$GT$6as_ref17hbbf44ea26e23f7a9E"({ [0 x i8]*, i64 }* align 8 dereferenceable(16) %key)
          to label %bb1 unwind label %cleanup

bb1:                                              ; preds = %start
  %_3.0 = extractvalue { %"std::ffi::os_str::OsStr"*, i64 } %6, 0
  %_3.1 = extractvalue { %"std::ffi::os_str::OsStr"*, i64 } %6, 1
; invoke std::env::_var_os
  invoke void @_ZN3std3env7_var_os17hb7fb9924a0249547E(%"core::option::Option<std::ffi::os_str::OsString>"* noalias nocapture sret(%"core::option::Option<std::ffi::os_str::OsString>") dereferenceable(24) %0, %"std::ffi::os_str::OsStr"* nonnull align 1 %_3.0, i64 %_3.1)
          to label %bb2 unwind label %cleanup

bb4:                                              ; preds = %cleanup
  br label %bb5

cleanup:                                          ; preds = %bb1, %start
  %7 = landingpad { i8*, i32 }
          cleanup
  %8 = extractvalue { i8*, i32 } %7, 0
  %9 = extractvalue { i8*, i32 } %7, 1
  %10 = getelementptr inbounds { i8*, i32 }, { i8*, i32 }* %3, i32 0, i32 0
  store i8* %8, i8** %10, align 8
  %11 = getelementptr inbounds { i8*, i32 }, { i8*, i32 }* %3, i32 0, i32 1
  store i32 %9, i32* %11, align 8
  br label %bb4

bb2:                                              ; preds = %bb1
  br label %bb3

bb5:                                              ; preds = %bb4
  %12 = bitcast { i8*, i32 }* %3 to i8**
  %13 = load i8*, i8** %12, align 8
  %14 = getelementptr inbounds { i8*, i32 }, { i8*, i32 }* %3, i32 0, i32 1
  %15 = load i32, i32* %14, align 8
  %16 = insertvalue { i8*, i32 } undef, i8* %13, 0
  %17 = insertvalue { i8*, i32 } %16, i32 %15, 1
  resume { i8*, i32 } %17

bb3:                                              ; preds = %bb2
  ret void
}

; std::ffi::os_str::OsStr::from_inner
; Function Attrs: inlinehint nonlazybind uwtable
define internal { %"std::ffi::os_str::OsStr"*, i64 } @_ZN3std3ffi6os_str5OsStr10from_inner17h9154b68a67cd2aa0E(%"std::sys::unix::os_str::Slice"* nonnull align 1 %inner.0, i64 %inner.1) unnamed_addr #0 {
start:
  %_2.0 = bitcast %"std::sys::unix::os_str::Slice"* %inner.0 to %"std::ffi::os_str::OsStr"*
  %0 = insertvalue { %"std::ffi::os_str::OsStr"*, i64 } undef, %"std::ffi::os_str::OsStr"* %_2.0, 0
  %1 = insertvalue { %"std::ffi::os_str::OsStr"*, i64 } %0, i64 %inner.1, 1
  ret { %"std::ffi::os_str::OsStr"*, i64 } %1
}

; std::ffi::os_str::<impl core::convert::AsRef<std::ffi::os_str::OsStr> for str>::as_ref
; Function Attrs: inlinehint nonlazybind uwtable
define internal { %"std::ffi::os_str::OsStr"*, i64 } @"_ZN3std3ffi6os_str85_$LT$impl$u20$core..convert..AsRef$LT$std..ffi..os_str..OsStr$GT$$u20$for$u20$str$GT$6as_ref17hd568921ec417c99cE"([0 x i8]* nonnull align 1 %self.0, i64 %self.1) unnamed_addr #0 {
start:
; call std::sys::unix::os_str::Slice::from_str
  %0 = call { %"std::sys::unix::os_str::Slice"*, i64 } @_ZN3std3sys4unix6os_str5Slice8from_str17h5a7c48644f900de5E([0 x i8]* nonnull align 1 %self.0, i64 %self.1)
  %_3.0 = extractvalue { %"std::sys::unix::os_str::Slice"*, i64 } %0, 0
  %_3.1 = extractvalue { %"std::sys::unix::os_str::Slice"*, i64 } %0, 1
  br label %bb1

bb1:                                              ; preds = %start
; call std::ffi::os_str::OsStr::from_inner
  %1 = call { %"std::ffi::os_str::OsStr"*, i64 } @_ZN3std3ffi6os_str5OsStr10from_inner17h9154b68a67cd2aa0E(%"std::sys::unix::os_str::Slice"* nonnull align 1 %_3.0, i64 %_3.1)
  %2 = extractvalue { %"std::ffi::os_str::OsStr"*, i64 } %1, 0
  %3 = extractvalue { %"std::ffi::os_str::OsStr"*, i64 } %1, 1
  br label %bb2

bb2:                                              ; preds = %bb1
  %4 = insertvalue { %"std::ffi::os_str::OsStr"*, i64 } undef, %"std::ffi::os_str::OsStr"* %2, 0
  %5 = insertvalue { %"std::ffi::os_str::OsStr"*, i64 } %4, i64 %3, 1
  ret { %"std::ffi::os_str::OsStr"*, i64 } %5
}

; std::sys::unix::os_str::Buf::as_slice
; Function Attrs: inlinehint nonlazybind uwtable
define internal { %"std::sys::unix::os_str::Slice"*, i64 } @_ZN3std3sys4unix6os_str3Buf8as_slice17h42b7a0a86f930a71E(%"std::sys::unix::os_str::Buf"* align 8 dereferenceable(24) %self) unnamed_addr #0 {
start:
  %0 = alloca { %"std::sys::unix::os_str::Slice"*, i64 }, align 8
  %_4 = bitcast %"std::sys::unix::os_str::Buf"* %self to %"alloc::vec::Vec<u8>"*
; call <alloc::vec::Vec<T,A> as core::ops::deref::Deref>::deref
  %1 = call { [0 x i8]*, i64 } @"_ZN72_$LT$alloc..vec..Vec$LT$T$C$A$GT$$u20$as$u20$core..ops..deref..Deref$GT$5deref17h68b7e60a3c88523eE"(%"alloc::vec::Vec<u8>"* align 8 dereferenceable(24) %_4)
  %_3.0 = extractvalue { [0 x i8]*, i64 } %1, 0
  %_3.1 = extractvalue { [0 x i8]*, i64 } %1, 1
  br label %bb1

bb1:                                              ; preds = %start
  %2 = bitcast { %"std::sys::unix::os_str::Slice"*, i64 }* %0 to { [0 x i8]*, i64 }*
  %3 = getelementptr inbounds { [0 x i8]*, i64 }, { [0 x i8]*, i64 }* %2, i32 0, i32 0
  store [0 x i8]* %_3.0, [0 x i8]** %3, align 8
  %4 = getelementptr inbounds { [0 x i8]*, i64 }, { [0 x i8]*, i64 }* %2, i32 0, i32 1
  store i64 %_3.1, i64* %4, align 8
  %5 = getelementptr inbounds { %"std::sys::unix::os_str::Slice"*, i64 }, { %"std::sys::unix::os_str::Slice"*, i64 }* %0, i32 0, i32 0
  %6 = load %"std::sys::unix::os_str::Slice"*, %"std::sys::unix::os_str::Slice"** %5, align 8, !nonnull !9
  %7 = getelementptr inbounds { %"std::sys::unix::os_str::Slice"*, i64 }, { %"std::sys::unix::os_str::Slice"*, i64 }* %0, i32 0, i32 1
  %8 = load i64, i64* %7, align 8
  br label %bb2

bb2:                                              ; preds = %bb1
  %9 = insertvalue { %"std::sys::unix::os_str::Slice"*, i64 } undef, %"std::sys::unix::os_str::Slice"* %6, 0
  %10 = insertvalue { %"std::sys::unix::os_str::Slice"*, i64 } %9, i64 %8, 1
  ret { %"std::sys::unix::os_str::Slice"*, i64 } %10
}

; std::sys::unix::os_str::Slice::from_u8_slice
; Function Attrs: inlinehint nonlazybind uwtable
define internal { %"std::sys::unix::os_str::Slice"*, i64 } @_ZN3std3sys4unix6os_str5Slice13from_u8_slice17h9de458275574de93E([0 x i8]* nonnull align 1 %s.0, i64 %s.1) unnamed_addr #0 {
start:
  %0 = alloca { %"std::sys::unix::os_str::Slice"*, i64 }, align 8
  %1 = bitcast { %"std::sys::unix::os_str::Slice"*, i64 }* %0 to { [0 x i8]*, i64 }*
  %2 = getelementptr inbounds { [0 x i8]*, i64 }, { [0 x i8]*, i64 }* %1, i32 0, i32 0
  store [0 x i8]* %s.0, [0 x i8]** %2, align 8
  %3 = getelementptr inbounds { [0 x i8]*, i64 }, { [0 x i8]*, i64 }* %1, i32 0, i32 1
  store i64 %s.1, i64* %3, align 8
  %4 = getelementptr inbounds { %"std::sys::unix::os_str::Slice"*, i64 }, { %"std::sys::unix::os_str::Slice"*, i64 }* %0, i32 0, i32 0
  %5 = load %"std::sys::unix::os_str::Slice"*, %"std::sys::unix::os_str::Slice"** %4, align 8, !nonnull !9
  %6 = getelementptr inbounds { %"std::sys::unix::os_str::Slice"*, i64 }, { %"std::sys::unix::os_str::Slice"*, i64 }* %0, i32 0, i32 1
  %7 = load i64, i64* %6, align 8
  br label %bb1

bb1:                                              ; preds = %start
  %8 = insertvalue { %"std::sys::unix::os_str::Slice"*, i64 } undef, %"std::sys::unix::os_str::Slice"* %5, 0
  %9 = insertvalue { %"std::sys::unix::os_str::Slice"*, i64 } %8, i64 %7, 1
  ret { %"std::sys::unix::os_str::Slice"*, i64 } %9
}

; std::sys::unix::os_str::Slice::from_str
; Function Attrs: inlinehint nonlazybind uwtable
define internal { %"std::sys::unix::os_str::Slice"*, i64 } @_ZN3std3sys4unix6os_str5Slice8from_str17h5a7c48644f900de5E([0 x i8]* nonnull align 1 %s.0, i64 %s.1) unnamed_addr #0 {
start:
  %0 = alloca { [0 x i8]*, i64 }, align 8
  %1 = getelementptr inbounds { [0 x i8]*, i64 }, { [0 x i8]*, i64 }* %0, i32 0, i32 0
  store [0 x i8]* %s.0, [0 x i8]** %1, align 8
  %2 = getelementptr inbounds { [0 x i8]*, i64 }, { [0 x i8]*, i64 }* %0, i32 0, i32 1
  store i64 %s.1, i64* %2, align 8
  %3 = getelementptr inbounds { [0 x i8]*, i64 }, { [0 x i8]*, i64 }* %0, i32 0, i32 0
  %4 = load [0 x i8]*, [0 x i8]** %3, align 8, !nonnull !9
  %5 = getelementptr inbounds { [0 x i8]*, i64 }, { [0 x i8]*, i64 }* %0, i32 0, i32 1
  %6 = load i64, i64* %5, align 8
  %7 = insertvalue { [0 x i8]*, i64 } undef, [0 x i8]* %4, 0
  %8 = insertvalue { [0 x i8]*, i64 } %7, i64 %6, 1
  %_3.0 = extractvalue { [0 x i8]*, i64 } %8, 0
  %_3.1 = extractvalue { [0 x i8]*, i64 } %8, 1
  br label %bb1

bb1:                                              ; preds = %start
; call std::sys::unix::os_str::Slice::from_u8_slice
  %9 = call { %"std::sys::unix::os_str::Slice"*, i64 } @_ZN3std3sys4unix6os_str5Slice13from_u8_slice17h9de458275574de93E([0 x i8]* nonnull align 1 %_3.0, i64 %_3.1)
  %10 = extractvalue { %"std::sys::unix::os_str::Slice"*, i64 } %9, 0
  %11 = extractvalue { %"std::sys::unix::os_str::Slice"*, i64 } %9, 1
  br label %bb2

bb2:                                              ; preds = %bb1
  %12 = insertvalue { %"std::sys::unix::os_str::Slice"*, i64 } undef, %"std::sys::unix::os_str::Slice"* %10, 0
  %13 = insertvalue { %"std::sys::unix::os_str::Slice"*, i64 } %12, i64 %11, 1
  ret { %"std::sys::unix::os_str::Slice"*, i64 } %13
}

; std::sys::unix::process::process_common::ExitCode::as_i32
; Function Attrs: inlinehint nonlazybind uwtable
define internal i32 @_ZN3std3sys4unix7process14process_common8ExitCode6as_i3217h4b95724445bee9a9E(i8* align 1 dereferenceable(1) %self) unnamed_addr #0 {
start:
  %_2 = load i8, i8* %self, align 1
  %0 = zext i8 %_2 to i32
  ret i32 %0
}

; std::process::Command::arg
; Function Attrs: nonlazybind uwtable
define internal align 8 dereferenceable(200) %"std::process::Command"* @_ZN3std7process7Command3arg17h86cf440cc33d8857E(%"std::process::Command"* align 8 dereferenceable(200) %self, [0 x i8]* nonnull align 1 %0, i64 %1) unnamed_addr #1 personality i32 (i32, i32, i64, %"unwind::libunwind::_Unwind_Exception"*, %"unwind::libunwind::_Unwind_Context"*)* @rust_eh_personality {
start:
  %2 = alloca { i8*, i32 }, align 8
  %arg = alloca { [0 x i8]*, i64 }, align 8
  %3 = getelementptr inbounds { [0 x i8]*, i64 }, { [0 x i8]*, i64 }* %arg, i32 0, i32 0
  store [0 x i8]* %0, [0 x i8]** %3, align 8
  %4 = getelementptr inbounds { [0 x i8]*, i64 }, { [0 x i8]*, i64 }* %arg, i32 0, i32 1
  store i64 %1, i64* %4, align 8
  %_5 = bitcast %"std::process::Command"* %self to %"std::sys::unix::process::process_common::Command"*
; invoke <&T as core::convert::AsRef<U>>::as_ref
  %5 = invoke { %"std::ffi::os_str::OsStr"*, i64 } @"_ZN55_$LT$$RF$T$u20$as$u20$core..convert..AsRef$LT$U$GT$$GT$6as_ref17hbbf44ea26e23f7a9E"({ [0 x i8]*, i64 }* align 8 dereferenceable(16) %arg)
          to label %bb1 unwind label %cleanup

bb1:                                              ; preds = %start
  %_7.0 = extractvalue { %"std::ffi::os_str::OsStr"*, i64 } %5, 0
  %_7.1 = extractvalue { %"std::ffi::os_str::OsStr"*, i64 } %5, 1
; invoke std::sys::unix::process::process_common::Command::arg
  invoke void @_ZN3std3sys4unix7process14process_common7Command3arg17h81c66916bc915c6aE(%"std::sys::unix::process::process_common::Command"* align 8 dereferenceable(200) %_5, %"std::ffi::os_str::OsStr"* nonnull align 1 %_7.0, i64 %_7.1)
          to label %bb2 unwind label %cleanup

bb4:                                              ; preds = %cleanup
  br label %bb5

cleanup:                                          ; preds = %bb1, %start
  %6 = landingpad { i8*, i32 }
          cleanup
  %7 = extractvalue { i8*, i32 } %6, 0
  %8 = extractvalue { i8*, i32 } %6, 1
  %9 = getelementptr inbounds { i8*, i32 }, { i8*, i32 }* %2, i32 0, i32 0
  store i8* %7, i8** %9, align 8
  %10 = getelementptr inbounds { i8*, i32 }, { i8*, i32 }* %2, i32 0, i32 1
  store i32 %8, i32* %10, align 8
  br label %bb4

bb2:                                              ; preds = %bb1
  br label %bb3

bb5:                                              ; preds = %bb4
  %11 = bitcast { i8*, i32 }* %2 to i8**
  %12 = load i8*, i8** %11, align 8
  %13 = getelementptr inbounds { i8*, i32 }, { i8*, i32 }* %2, i32 0, i32 1
  %14 = load i32, i32* %13, align 8
  %15 = insertvalue { i8*, i32 } undef, i8* %12, 0
  %16 = insertvalue { i8*, i32 } %15, i32 %14, 1
  resume { i8*, i32 } %16

bb3:                                              ; preds = %bb2
  ret %"std::process::Command"* %self
}

; std::process::Command::new
; Function Attrs: nonlazybind uwtable
define internal void @_ZN3std7process7Command3new17h4de9aa5888f245e0E(%"std::process::Command"* noalias nocapture sret(%"std::process::Command") dereferenceable(200) %0, %"std::ffi::os_str::OsString"* noalias nocapture dereferenceable(24) %program) unnamed_addr #1 personality i32 (i32, i32, i64, %"unwind::libunwind::_Unwind_Exception"*, %"unwind::libunwind::_Unwind_Context"*)* @rust_eh_personality {
start:
  %1 = alloca { i8*, i32 }, align 8
  %_2 = alloca %"std::sys::unix::process::process_common::Command", align 8
; invoke <std::ffi::os_str::OsString as core::convert::AsRef<std::ffi::os_str::OsStr>>::as_ref
  %2 = invoke { %"std::ffi::os_str::OsStr"*, i64 } @"_ZN98_$LT$std..ffi..os_str..OsString$u20$as$u20$core..convert..AsRef$LT$std..ffi..os_str..OsStr$GT$$GT$6as_ref17h1688bfa0f0723b5eE"(%"std::ffi::os_str::OsString"* align 8 dereferenceable(24) %program)
          to label %bb1 unwind label %cleanup

bb1:                                              ; preds = %start
  %_4.0 = extractvalue { %"std::ffi::os_str::OsStr"*, i64 } %2, 0
  %_4.1 = extractvalue { %"std::ffi::os_str::OsStr"*, i64 } %2, 1
; invoke std::sys::unix::process::process_common::Command::new
  invoke void @_ZN3std3sys4unix7process14process_common7Command3new17h1e558472110c8f47E(%"std::sys::unix::process::process_common::Command"* noalias nocapture sret(%"std::sys::unix::process::process_common::Command") dereferenceable(200) %_2, %"std::ffi::os_str::OsStr"* nonnull align 1 %_4.0, i64 %_4.1)
          to label %bb2 unwind label %cleanup

bb4:                                              ; preds = %cleanup
; call core::ptr::drop_in_place<std::ffi::os_str::OsString>
  call void @"_ZN4core3ptr47drop_in_place$LT$std..ffi..os_str..OsString$GT$17h81076ec3f81b57f3E"(%"std::ffi::os_str::OsString"* %program) #18
  br label %bb5

cleanup:                                          ; preds = %bb1, %start
  %3 = landingpad { i8*, i32 }
          cleanup
  %4 = extractvalue { i8*, i32 } %3, 0
  %5 = extractvalue { i8*, i32 } %3, 1
  %6 = getelementptr inbounds { i8*, i32 }, { i8*, i32 }* %1, i32 0, i32 0
  store i8* %4, i8** %6, align 8
  %7 = getelementptr inbounds { i8*, i32 }, { i8*, i32 }* %1, i32 0, i32 1
  store i32 %5, i32* %7, align 8
  br label %bb4

bb2:                                              ; preds = %bb1
  %8 = bitcast %"std::process::Command"* %0 to %"std::sys::unix::process::process_common::Command"*
  %9 = bitcast %"std::sys::unix::process::process_common::Command"* %8 to i8*
  %10 = bitcast %"std::sys::unix::process::process_common::Command"* %_2 to i8*
  call void @llvm.memcpy.p0i8.p0i8.i64(i8* align 8 %9, i8* align 8 %10, i64 200, i1 false)
; call core::ptr::drop_in_place<std::ffi::os_str::OsString>
  call void @"_ZN4core3ptr47drop_in_place$LT$std..ffi..os_str..OsString$GT$17h81076ec3f81b57f3E"(%"std::ffi::os_str::OsString"* %program)
  br label %bb3

bb5:                                              ; preds = %bb4
  %11 = bitcast { i8*, i32 }* %1 to i8**
  %12 = load i8*, i8** %11, align 8
  %13 = getelementptr inbounds { i8*, i32 }, { i8*, i32 }* %1, i32 0, i32 1
  %14 = load i32, i32* %13, align 8
  %15 = insertvalue { i8*, i32 } undef, i8* %12, 0
  %16 = insertvalue { i8*, i32 } %15, i32 %14, 1
  resume { i8*, i32 } %16

bb3:                                              ; preds = %bb2
  ret void
}

; std::process::Command::new
; Function Attrs: nonlazybind uwtable
define internal void @_ZN3std7process7Command3new17ha08a1b9a94bf63e5E(%"std::process::Command"* noalias nocapture sret(%"std::process::Command") dereferenceable(200) %0, [0 x i8]* nonnull align 1 %1, i64 %2) unnamed_addr #1 personality i32 (i32, i32, i64, %"unwind::libunwind::_Unwind_Exception"*, %"unwind::libunwind::_Unwind_Context"*)* @rust_eh_personality {
start:
  %3 = alloca { i8*, i32 }, align 8
  %_2 = alloca %"std::sys::unix::process::process_common::Command", align 8
  %program = alloca { [0 x i8]*, i64 }, align 8
  %4 = getelementptr inbounds { [0 x i8]*, i64 }, { [0 x i8]*, i64 }* %program, i32 0, i32 0
  store [0 x i8]* %1, [0 x i8]** %4, align 8
  %5 = getelementptr inbounds { [0 x i8]*, i64 }, { [0 x i8]*, i64 }* %program, i32 0, i32 1
  store i64 %2, i64* %5, align 8
; invoke <&T as core::convert::AsRef<U>>::as_ref
  %6 = invoke { %"std::ffi::os_str::OsStr"*, i64 } @"_ZN55_$LT$$RF$T$u20$as$u20$core..convert..AsRef$LT$U$GT$$GT$6as_ref17hbbf44ea26e23f7a9E"({ [0 x i8]*, i64 }* align 8 dereferenceable(16) %program)
          to label %bb1 unwind label %cleanup

bb1:                                              ; preds = %start
  %_4.0 = extractvalue { %"std::ffi::os_str::OsStr"*, i64 } %6, 0
  %_4.1 = extractvalue { %"std::ffi::os_str::OsStr"*, i64 } %6, 1
; invoke std::sys::unix::process::process_common::Command::new
  invoke void @_ZN3std3sys4unix7process14process_common7Command3new17h1e558472110c8f47E(%"std::sys::unix::process::process_common::Command"* noalias nocapture sret(%"std::sys::unix::process::process_common::Command") dereferenceable(200) %_2, %"std::ffi::os_str::OsStr"* nonnull align 1 %_4.0, i64 %_4.1)
          to label %bb2 unwind label %cleanup

bb4:                                              ; preds = %cleanup
  br label %bb5

cleanup:                                          ; preds = %bb1, %start
  %7 = landingpad { i8*, i32 }
          cleanup
  %8 = extractvalue { i8*, i32 } %7, 0
  %9 = extractvalue { i8*, i32 } %7, 1
  %10 = getelementptr inbounds { i8*, i32 }, { i8*, i32 }* %3, i32 0, i32 0
  store i8* %8, i8** %10, align 8
  %11 = getelementptr inbounds { i8*, i32 }, { i8*, i32 }* %3, i32 0, i32 1
  store i32 %9, i32* %11, align 8
  br label %bb4

bb2:                                              ; preds = %bb1
  %12 = bitcast %"std::process::Command"* %0 to %"std::sys::unix::process::process_common::Command"*
  %13 = bitcast %"std::sys::unix::process::process_common::Command"* %12 to i8*
  %14 = bitcast %"std::sys::unix::process::process_common::Command"* %_2 to i8*
  call void @llvm.memcpy.p0i8.p0i8.i64(i8* align 8 %13, i8* align 8 %14, i64 200, i1 false)
  br label %bb3

bb5:                                              ; preds = %bb4
  %15 = bitcast { i8*, i32 }* %3 to i8**
  %16 = load i8*, i8** %15, align 8
  %17 = getelementptr inbounds { i8*, i32 }, { i8*, i32 }* %3, i32 0, i32 1
  %18 = load i32, i32* %17, align 8
  %19 = insertvalue { i8*, i32 } undef, i8* %16, 0
  %20 = insertvalue { i8*, i32 } %19, i32 %18, 1
  resume { i8*, i32 } %20

bb3:                                              ; preds = %bb2
  ret void
}

; std::panicking::begin_panic
; Function Attrs: cold noinline noreturn nonlazybind uwtable
define internal void @_ZN3std9panicking11begin_panic17h466b300f0867c1ebE([0 x i8]* nonnull align 1 %msg.0, i64 %msg.1, %"core::panic::location::Location"* align 8 dereferenceable(24) %0) unnamed_addr #4 personality i32 (i32, i32, i64, %"unwind::libunwind::_Unwind_Exception"*, %"unwind::libunwind::_Unwind_Context"*)* @rust_eh_personality {
start:
  %1 = alloca { i8*, i32 }, align 8
  %_4 = alloca i8, align 1
  %_3 = alloca %"[closure@std::panicking::begin_panic<&str>::{closure#0}]", align 8
  store i8 0, i8* %_4, align 1
  store i8 1, i8* %_4, align 1
; invoke core::panic::location::Location::caller
  %loc = invoke align 8 dereferenceable(24) %"core::panic::location::Location"* @_ZN4core5panic8location8Location6caller17h66ab9d009774583dE(%"core::panic::location::Location"* align 8 dereferenceable(24) %0)
          to label %bb1 unwind label %cleanup

bb1:                                              ; preds = %start
  store i8 0, i8* %_4, align 1
  %2 = bitcast %"[closure@std::panicking::begin_panic<&str>::{closure#0}]"* %_3 to { [0 x i8]*, i64 }*
  %3 = getelementptr inbounds { [0 x i8]*, i64 }, { [0 x i8]*, i64 }* %2, i32 0, i32 0
  store [0 x i8]* %msg.0, [0 x i8]** %3, align 8
  %4 = getelementptr inbounds { [0 x i8]*, i64 }, { [0 x i8]*, i64 }* %2, i32 0, i32 1
  store i64 %msg.1, i64* %4, align 8
  %5 = getelementptr inbounds %"[closure@std::panicking::begin_panic<&str>::{closure#0}]", %"[closure@std::panicking::begin_panic<&str>::{closure#0}]"* %_3, i32 0, i32 1
  store %"core::panic::location::Location"* %loc, %"core::panic::location::Location"** %5, align 8
; invoke std::sys_common::backtrace::__rust_end_short_backtrace
  invoke void @_ZN3std10sys_common9backtrace26__rust_end_short_backtrace17hfaa6e7722bb69183E(%"[closure@std::panicking::begin_panic<&str>::{closure#0}]"* noalias nocapture dereferenceable(24) %_3) #17
          to label %unreachable unwind label %cleanup

bb4:                                              ; preds = %cleanup
  %6 = load i8, i8* %_4, align 1, !range !3
  %7 = trunc i8 %6 to i1
  br i1 %7, label %bb3, label %bb2

cleanup:                                          ; preds = %bb1, %start
  %8 = landingpad { i8*, i32 }
          cleanup
  %9 = extractvalue { i8*, i32 } %8, 0
  %10 = extractvalue { i8*, i32 } %8, 1
  %11 = getelementptr inbounds { i8*, i32 }, { i8*, i32 }* %1, i32 0, i32 0
  store i8* %9, i8** %11, align 8
  %12 = getelementptr inbounds { i8*, i32 }, { i8*, i32 }* %1, i32 0, i32 1
  store i32 %10, i32* %12, align 8
  br label %bb4

unreachable:                                      ; preds = %bb1
  unreachable

bb2:                                              ; preds = %bb3, %bb4
  %13 = bitcast { i8*, i32 }* %1 to i8**
  %14 = load i8*, i8** %13, align 8
  %15 = getelementptr inbounds { i8*, i32 }, { i8*, i32 }* %1, i32 0, i32 1
  %16 = load i32, i32* %15, align 8
  %17 = insertvalue { i8*, i32 } undef, i8* %14, 0
  %18 = insertvalue { i8*, i32 } %17, i32 %16, 1
  resume { i8*, i32 } %18

bb3:                                              ; preds = %bb4
  br label %bb2
}

; std::panicking::begin_panic::PanicPayload<A>::new
; Function Attrs: nonlazybind uwtable
define internal { i8*, i64 } @"_ZN3std9panicking11begin_panic21PanicPayload$LT$A$GT$3new17h3546b4cec220fd47E"([0 x i8]* nonnull align 1 %inner.0, i64 %inner.1) unnamed_addr #1 {
start:
  %_2 = alloca { i8*, i64 }, align 8
  %0 = alloca { i8*, i64 }, align 8
  %1 = bitcast { i8*, i64 }* %_2 to { [0 x i8]*, i64 }*
  %2 = getelementptr inbounds { [0 x i8]*, i64 }, { [0 x i8]*, i64 }* %1, i32 0, i32 0
  store [0 x i8]* %inner.0, [0 x i8]** %2, align 8
  %3 = getelementptr inbounds { [0 x i8]*, i64 }, { [0 x i8]*, i64 }* %1, i32 0, i32 1
  store i64 %inner.1, i64* %3, align 8
  %4 = getelementptr inbounds { i8*, i64 }, { i8*, i64 }* %_2, i32 0, i32 0
  %5 = load i8*, i8** %4, align 8
  %6 = getelementptr inbounds { i8*, i64 }, { i8*, i64 }* %_2, i32 0, i32 1
  %7 = load i64, i64* %6, align 8
  %8 = getelementptr inbounds { i8*, i64 }, { i8*, i64 }* %0, i32 0, i32 0
  store i8* %5, i8** %8, align 8
  %9 = getelementptr inbounds { i8*, i64 }, { i8*, i64 }* %0, i32 0, i32 1
  store i64 %7, i64* %9, align 8
  %10 = getelementptr inbounds { i8*, i64 }, { i8*, i64 }* %0, i32 0, i32 0
  %11 = load i8*, i8** %10, align 8
  %12 = getelementptr inbounds { i8*, i64 }, { i8*, i64 }* %0, i32 0, i32 1
  %13 = load i64, i64* %12, align 8
  %14 = insertvalue { i8*, i64 } undef, i8* %11, 0
  %15 = insertvalue { i8*, i64 } %14, i64 %13, 1
  ret { i8*, i64 } %15
}

; std::panicking::begin_panic::{{closure}}
; Function Attrs: inlinehint noreturn nonlazybind uwtable
define internal void @"_ZN3std9panicking11begin_panic28_$u7b$$u7b$closure$u7d$$u7d$17h6acc0967f08bc17bE"(%"[closure@std::panicking::begin_panic<&str>::{closure#0}]"* noalias nocapture dereferenceable(24) %_1) unnamed_addr #5 personality i32 (i32, i32, i64, %"unwind::libunwind::_Unwind_Exception"*, %"unwind::libunwind::_Unwind_Context"*)* @rust_eh_personality {
start:
  %0 = alloca { i8*, i32 }, align 8
  %_7 = alloca i64*, align 8
  %_5 = alloca { i8*, i64 }, align 8
  %1 = bitcast %"[closure@std::panicking::begin_panic<&str>::{closure#0}]"* %_1 to { [0 x i8]*, i64 }*
  %2 = getelementptr inbounds { [0 x i8]*, i64 }, { [0 x i8]*, i64 }* %1, i32 0, i32 0
  %_6.0 = load [0 x i8]*, [0 x i8]** %2, align 8, !nonnull !9
  %3 = getelementptr inbounds { [0 x i8]*, i64 }, { [0 x i8]*, i64 }* %1, i32 0, i32 1
  %_6.1 = load i64, i64* %3, align 8
; call std::panicking::begin_panic::PanicPayload<A>::new
  %4 = call { i8*, i64 } @"_ZN3std9panicking11begin_panic21PanicPayload$LT$A$GT$3new17h3546b4cec220fd47E"([0 x i8]* nonnull align 1 %_6.0, i64 %_6.1)
  store { i8*, i64 } %4, { i8*, i64 }* %_5, align 8
  br label %bb1

bb1:                                              ; preds = %start
  %_2.0 = bitcast { i8*, i64 }* %_5 to {}*
  %5 = bitcast i64** %_7 to {}**
  store {}* null, {}** %5, align 8
  %6 = getelementptr inbounds %"[closure@std::panicking::begin_panic<&str>::{closure#0}]", %"[closure@std::panicking::begin_panic<&str>::{closure#0}]"* %_1, i32 0, i32 1
  %_8 = load %"core::panic::location::Location"*, %"core::panic::location::Location"** %6, align 8, !nonnull !9
  %7 = load i64*, i64** %_7, align 8
; invoke std::panicking::rust_panic_with_hook
  invoke void @_ZN3std9panicking20rust_panic_with_hook17h7a6b21c56a75680aE({}* nonnull align 1 %_2.0, [3 x i64]* align 8 dereferenceable(24) bitcast (<{ i8*, [16 x i8], i8*, i8*, [0 x i8] }>* @vtable.1 to [3 x i64]*), i64* align 8 dereferenceable_or_null(48) %7, %"core::panic::location::Location"* align 8 dereferenceable(24) %_8) #17
          to label %unreachable unwind label %cleanup

unreachable:                                      ; preds = %bb1
  unreachable

bb2:                                              ; preds = %cleanup
  br label %bb3

cleanup:                                          ; preds = %bb1
  %8 = landingpad { i8*, i32 }
          cleanup
  %9 = extractvalue { i8*, i32 } %8, 0
  %10 = extractvalue { i8*, i32 } %8, 1
  %11 = getelementptr inbounds { i8*, i32 }, { i8*, i32 }* %0, i32 0, i32 0
  store i8* %9, i8** %11, align 8
  %12 = getelementptr inbounds { i8*, i32 }, { i8*, i32 }* %0, i32 0, i32 1
  store i32 %10, i32* %12, align 8
  br label %bb2

bb3:                                              ; preds = %bb2
  %13 = bitcast { i8*, i32 }* %0 to i8**
  %14 = load i8*, i8** %13, align 8
  %15 = getelementptr inbounds { i8*, i32 }, { i8*, i32 }* %0, i32 0, i32 1
  %16 = load i32, i32* %15, align 8
  %17 = insertvalue { i8*, i32 } undef, i8* %14, 0
  %18 = insertvalue { i8*, i32 } %17, i32 %16, 1
  resume { i8*, i32 } %18
}

; <usize as core::iter::range::Step>::forward_unchecked
; Function Attrs: inlinehint nonlazybind uwtable
define internal i64 @"_ZN49_$LT$usize$u20$as$u20$core..iter..range..Step$GT$17forward_unchecked17h12199183ae4178d8E"(i64 %start1, i64 %n) unnamed_addr #0 {
start:
  %0 = alloca i64, align 8
  %1 = add nuw i64 %start1, %n
  store i64 %1, i64* %0, align 8
  %2 = load i64, i64* %0, align 8
  br label %bb1

bb1:                                              ; preds = %start
  ret i64 %2
}

; core::any::TypeId::of
; Function Attrs: nonlazybind uwtable
define internal i64 @_ZN4core3any6TypeId2of17hb0335f6ba8db0a97E() unnamed_addr #1 {
start:
  %0 = alloca i64, align 8
  %1 = alloca i64, align 8
  store i64 9147559743429524724, i64* %0, align 8
  %_1 = load i64, i64* %0, align 8
  br label %bb1

bb1:                                              ; preds = %start
  store i64 %_1, i64* %1, align 8
  %2 = load i64, i64* %1, align 8
  ret i64 %2
}

; core::cmp::impls::<impl core::cmp::PartialOrd for usize>::lt
; Function Attrs: inlinehint nonlazybind uwtable
define internal zeroext i1 @"_ZN4core3cmp5impls57_$LT$impl$u20$core..cmp..PartialOrd$u20$for$u20$usize$GT$2lt17h4eecaa4925de1d13E"(i64* align 8 dereferenceable(8) %self, i64* align 8 dereferenceable(8) %other) unnamed_addr #0 {
start:
  %_3 = load i64, i64* %self, align 8
  %_4 = load i64, i64* %other, align 8
  %0 = icmp ult i64 %_3, %_4
  ret i1 %0
}

; core::cmp::impls::<impl core::cmp::PartialEq<&B> for &A>::eq
; Function Attrs: inlinehint nonlazybind uwtable
define internal zeroext i1 @"_ZN4core3cmp5impls69_$LT$impl$u20$core..cmp..PartialEq$LT$$RF$B$GT$$u20$for$u20$$RF$A$GT$2eq17h90704cbf6dde7e4cE"({ [0 x i8]*, i64 }* align 8 dereferenceable(16) %self, { [0 x i8]*, i64 }* align 8 dereferenceable(16) %other) unnamed_addr #0 {
start:
  %0 = getelementptr inbounds { [0 x i8]*, i64 }, { [0 x i8]*, i64 }* %self, i32 0, i32 0
  %_3.0 = load [0 x i8]*, [0 x i8]** %0, align 8, !nonnull !9
  %1 = getelementptr inbounds { [0 x i8]*, i64 }, { [0 x i8]*, i64 }* %self, i32 0, i32 1
  %_3.1 = load i64, i64* %1, align 8
  %2 = getelementptr inbounds { [0 x i8]*, i64 }, { [0 x i8]*, i64 }* %other, i32 0, i32 0
  %_4.0 = load [0 x i8]*, [0 x i8]** %2, align 8, !nonnull !9
  %3 = getelementptr inbounds { [0 x i8]*, i64 }, { [0 x i8]*, i64 }* %other, i32 0, i32 1
  %_4.1 = load i64, i64* %3, align 8
; call core::slice::cmp::<impl core::cmp::PartialEq<[B]> for [A]>::eq
  %4 = call zeroext i1 @"_ZN4core5slice3cmp81_$LT$impl$u20$core..cmp..PartialEq$LT$$u5b$B$u5d$$GT$$u20$for$u20$$u5b$A$u5d$$GT$2eq17h66fe2eb74e142d29E"([0 x i8]* nonnull align 1 %_3.0, i64 %_3.1, [0 x i8]* nonnull align 1 %_4.0, i64 %_4.1)
  br label %bb1

bb1:                                              ; preds = %start
  ret i1 %4
}

; core::cmp::impls::<impl core::cmp::PartialEq<&B> for &A>::ne
; Function Attrs: inlinehint nonlazybind uwtable
define internal zeroext i1 @"_ZN4core3cmp5impls69_$LT$impl$u20$core..cmp..PartialEq$LT$$RF$B$GT$$u20$for$u20$$RF$A$GT$2ne17h843a931a8cb12536E"({ [0 x i8]*, i64 }* align 8 dereferenceable(16) %self, { [0 x i8]*, i64 }* align 8 dereferenceable(16) %other) unnamed_addr #0 {
start:
  %0 = getelementptr inbounds { [0 x i8]*, i64 }, { [0 x i8]*, i64 }* %self, i32 0, i32 0
  %_3.0 = load [0 x i8]*, [0 x i8]** %0, align 8, !nonnull !9
  %1 = getelementptr inbounds { [0 x i8]*, i64 }, { [0 x i8]*, i64 }* %self, i32 0, i32 1
  %_3.1 = load i64, i64* %1, align 8
  %2 = getelementptr inbounds { [0 x i8]*, i64 }, { [0 x i8]*, i64 }* %other, i32 0, i32 0
  %_4.0 = load [0 x i8]*, [0 x i8]** %2, align 8, !nonnull !9
  %3 = getelementptr inbounds { [0 x i8]*, i64 }, { [0 x i8]*, i64 }* %other, i32 0, i32 1
  %_4.1 = load i64, i64* %3, align 8
; call core::str::traits::<impl core::cmp::PartialEq for str>::ne
  %4 = call zeroext i1 @"_ZN4core3str6traits54_$LT$impl$u20$core..cmp..PartialEq$u20$for$u20$str$GT$2ne17hfc1ebb77ca73650fE"([0 x i8]* nonnull align 1 %_3.0, i64 %_3.1, [0 x i8]* nonnull align 1 %_4.0, i64 %_4.1)
  br label %bb1

bb1:                                              ; preds = %start
  ret i1 %4
}

; core::fmt::ArgumentV1::new
; Function Attrs: nonlazybind uwtable
define internal { i8*, i64* } @_ZN4core3fmt10ArgumentV13new17h77a88bd946d05f78E(i32* align 4 dereferenceable(4) %x, i1 (i32*, %"core::fmt::Formatter"*)* nonnull %f) unnamed_addr #1 {
start:
  %0 = alloca %"core::fmt::Opaque"*, align 8
  %1 = alloca i1 (%"core::fmt::Opaque"*, %"core::fmt::Formatter"*)*, align 8
  %2 = alloca { i8*, i64* }, align 8
  %3 = bitcast i1 (i32*, %"core::fmt::Formatter"*)* %f to i1 (%"core::fmt::Opaque"*, %"core::fmt::Formatter"*)*
  store i1 (%"core::fmt::Opaque"*, %"core::fmt::Formatter"*)* %3, i1 (%"core::fmt::Opaque"*, %"core::fmt::Formatter"*)** %1, align 8
  %_3 = load i1 (%"core::fmt::Opaque"*, %"core::fmt::Formatter"*)*, i1 (%"core::fmt::Opaque"*, %"core::fmt::Formatter"*)** %1, align 8, !nonnull !9
  br label %bb1

bb1:                                              ; preds = %start
  %4 = bitcast i32* %x to %"core::fmt::Opaque"*
  store %"core::fmt::Opaque"* %4, %"core::fmt::Opaque"** %0, align 8
  %_5 = load %"core::fmt::Opaque"*, %"core::fmt::Opaque"** %0, align 8, !nonnull !9
  br label %bb2

bb2:                                              ; preds = %bb1
  %5 = bitcast { i8*, i64* }* %2 to %"core::fmt::Opaque"**
  store %"core::fmt::Opaque"* %_5, %"core::fmt::Opaque"** %5, align 8
  %6 = getelementptr inbounds { i8*, i64* }, { i8*, i64* }* %2, i32 0, i32 1
  %7 = bitcast i64** %6 to i1 (%"core::fmt::Opaque"*, %"core::fmt::Formatter"*)**
  store i1 (%"core::fmt::Opaque"*, %"core::fmt::Formatter"*)* %_3, i1 (%"core::fmt::Opaque"*, %"core::fmt::Formatter"*)** %7, align 8
  %8 = getelementptr inbounds { i8*, i64* }, { i8*, i64* }* %2, i32 0, i32 0
  %9 = load i8*, i8** %8, align 8, !nonnull !9
  %10 = getelementptr inbounds { i8*, i64* }, { i8*, i64* }* %2, i32 0, i32 1
  %11 = load i64*, i64** %10, align 8, !nonnull !9
  %12 = insertvalue { i8*, i64* } undef, i8* %9, 0
  %13 = insertvalue { i8*, i64* } %12, i64* %11, 1
  ret { i8*, i64* } %13
}

; core::fmt::ArgumentV1::new
; Function Attrs: nonlazybind uwtable
define internal { i8*, i64* } @_ZN4core3fmt10ArgumentV13new17hd2eecbaa5b00f1c2E(i64* align 8 dereferenceable(8) %x, i1 (i64*, %"core::fmt::Formatter"*)* nonnull %f) unnamed_addr #1 {
start:
  %0 = alloca %"core::fmt::Opaque"*, align 8
  %1 = alloca i1 (%"core::fmt::Opaque"*, %"core::fmt::Formatter"*)*, align 8
  %2 = alloca { i8*, i64* }, align 8
  %3 = bitcast i1 (i64*, %"core::fmt::Formatter"*)* %f to i1 (%"core::fmt::Opaque"*, %"core::fmt::Formatter"*)*
  store i1 (%"core::fmt::Opaque"*, %"core::fmt::Formatter"*)* %3, i1 (%"core::fmt::Opaque"*, %"core::fmt::Formatter"*)** %1, align 8
  %_3 = load i1 (%"core::fmt::Opaque"*, %"core::fmt::Formatter"*)*, i1 (%"core::fmt::Opaque"*, %"core::fmt::Formatter"*)** %1, align 8, !nonnull !9
  br label %bb1

bb1:                                              ; preds = %start
  %4 = bitcast i64* %x to %"core::fmt::Opaque"*
  store %"core::fmt::Opaque"* %4, %"core::fmt::Opaque"** %0, align 8
  %_5 = load %"core::fmt::Opaque"*, %"core::fmt::Opaque"** %0, align 8, !nonnull !9
  br label %bb2

bb2:                                              ; preds = %bb1
  %5 = bitcast { i8*, i64* }* %2 to %"core::fmt::Opaque"**
  store %"core::fmt::Opaque"* %_5, %"core::fmt::Opaque"** %5, align 8
  %6 = getelementptr inbounds { i8*, i64* }, { i8*, i64* }* %2, i32 0, i32 1
  %7 = bitcast i64** %6 to i1 (%"core::fmt::Opaque"*, %"core::fmt::Formatter"*)**
  store i1 (%"core::fmt::Opaque"*, %"core::fmt::Formatter"*)* %_3, i1 (%"core::fmt::Opaque"*, %"core::fmt::Formatter"*)** %7, align 8
  %8 = getelementptr inbounds { i8*, i64* }, { i8*, i64* }* %2, i32 0, i32 0
  %9 = load i8*, i8** %8, align 8, !nonnull !9
  %10 = getelementptr inbounds { i8*, i64* }, { i8*, i64* }* %2, i32 0, i32 1
  %11 = load i64*, i64** %10, align 8, !nonnull !9
  %12 = insertvalue { i8*, i64* } undef, i8* %9, 0
  %13 = insertvalue { i8*, i64* } %12, i64* %11, 1
  ret { i8*, i64* } %13
}

; core::fmt::Arguments::new_v1
; Function Attrs: inlinehint nonlazybind uwtable
define internal void @_ZN4core3fmt9Arguments6new_v117h0dcbc70884590369E(%"core::fmt::Arguments"* noalias nocapture sret(%"core::fmt::Arguments") dereferenceable(48) %0, [0 x { [0 x i8]*, i64 }]* nonnull align 8 %pieces.0, i64 %pieces.1, [0 x { i8*, i64* }]* nonnull align 8 %args.0, i64 %args.1) unnamed_addr #0 {
start:
  %_16 = alloca { i64*, i64 }, align 8
  %_3 = alloca i8, align 1
  %_4 = icmp ult i64 %pieces.1, %args.1
  br i1 %_4, label %bb1, label %bb2

bb2:                                              ; preds = %start
  %_12 = add i64 %args.1, 1
  %_9 = icmp ugt i64 %pieces.1, %_12
  %1 = zext i1 %_9 to i8
  store i8 %1, i8* %_3, align 1
  br label %bb3

bb1:                                              ; preds = %start
  store i8 1, i8* %_3, align 1
  br label %bb3

bb3:                                              ; preds = %bb2, %bb1
  %2 = load i8, i8* %_3, align 1, !range !3
  %3 = trunc i8 %2 to i1
  br i1 %3, label %bb4, label %bb5

bb5:                                              ; preds = %bb3
  %4 = bitcast { i64*, i64 }* %_16 to {}**
  store {}* null, {}** %4, align 8
  %5 = bitcast %"core::fmt::Arguments"* %0 to { [0 x { [0 x i8]*, i64 }]*, i64 }*
  %6 = getelementptr inbounds { [0 x { [0 x i8]*, i64 }]*, i64 }, { [0 x { [0 x i8]*, i64 }]*, i64 }* %5, i32 0, i32 0
  store [0 x { [0 x i8]*, i64 }]* %pieces.0, [0 x { [0 x i8]*, i64 }]** %6, align 8
  %7 = getelementptr inbounds { [0 x { [0 x i8]*, i64 }]*, i64 }, { [0 x { [0 x i8]*, i64 }]*, i64 }* %5, i32 0, i32 1
  store i64 %pieces.1, i64* %7, align 8
  %8 = getelementptr inbounds %"core::fmt::Arguments", %"core::fmt::Arguments"* %0, i32 0, i32 1
  %9 = getelementptr inbounds { i64*, i64 }, { i64*, i64 }* %_16, i32 0, i32 0
  %10 = load i64*, i64** %9, align 8
  %11 = getelementptr inbounds { i64*, i64 }, { i64*, i64 }* %_16, i32 0, i32 1
  %12 = load i64, i64* %11, align 8
  %13 = getelementptr inbounds { i64*, i64 }, { i64*, i64 }* %8, i32 0, i32 0
  store i64* %10, i64** %13, align 8
  %14 = getelementptr inbounds { i64*, i64 }, { i64*, i64 }* %8, i32 0, i32 1
  store i64 %12, i64* %14, align 8
  %15 = getelementptr inbounds %"core::fmt::Arguments", %"core::fmt::Arguments"* %0, i32 0, i32 2
  %16 = getelementptr inbounds { [0 x { i8*, i64* }]*, i64 }, { [0 x { i8*, i64* }]*, i64 }* %15, i32 0, i32 0
  store [0 x { i8*, i64* }]* %args.0, [0 x { i8*, i64* }]** %16, align 8
  %17 = getelementptr inbounds { [0 x { i8*, i64* }]*, i64 }, { [0 x { i8*, i64* }]*, i64 }* %15, i32 0, i32 1
  store i64 %args.1, i64* %17, align 8
  ret void

bb4:                                              ; preds = %bb3
; call core::panicking::panic
  call void @_ZN4core9panicking5panic17hac91d6d33ac66361E([0 x i8]* nonnull align 1 bitcast (<{ [12 x i8] }>* @alloc198 to [0 x i8]*), i64 12, %"core::panic::location::Location"* align 8 dereferenceable(24) bitcast (<{ i8*, [16 x i8] }>* @alloc200 to %"core::panic::location::Location"*)) #17
  unreachable
}

; core::mem::size_of_val
; Function Attrs: inlinehint nonlazybind uwtable
define internal i64 @_ZN4core3mem11size_of_val17he0556079dfcaa3deE([0 x i8]* nonnull align 1 %val.0, i64 %val.1) unnamed_addr #0 {
start:
  %0 = alloca i64, align 8
  %1 = mul i64 %val.1, 1
  store i64 %1, i64* %0, align 8
  %2 = load i64, i64* %0, align 8
  br label %bb1

bb1:                                              ; preds = %start
  ret i64 %2
}

; core::mem::maybe_uninit::MaybeUninit<T>::assume_init_drop
; Function Attrs: nonlazybind uwtable
define internal void @"_ZN4core3mem12maybe_uninit20MaybeUninit$LT$T$GT$16assume_init_drop17h076ad49fc9d02697E"(%"core::mem::maybe_uninit::MaybeUninit<core::option::Option<std::ffi::os_str::OsString>>"* align 8 dereferenceable(24) %self) unnamed_addr #1 {
start:
  %0 = bitcast %"core::mem::maybe_uninit::MaybeUninit<core::option::Option<std::ffi::os_str::OsString>>"* %self to %"core::option::Option<std::ffi::os_str::OsString>"*
  br label %bb1

bb1:                                              ; preds = %start
; call core::ptr::drop_in_place<core::option::Option<std::ffi::os_str::OsString>>
  call void @"_ZN4core3ptr75drop_in_place$LT$core..option..Option$LT$std..ffi..os_str..OsString$GT$$GT$17hc9998145c114b7c4E"(%"core::option::Option<std::ffi::os_str::OsString>"* %0)
  br label %bb2

bb2:                                              ; preds = %bb1
  ret void
}

; core::mem::maybe_uninit::MaybeUninit<T>::assume_init_drop
; Function Attrs: nonlazybind uwtable
define internal void @"_ZN4core3mem12maybe_uninit20MaybeUninit$LT$T$GT$16assume_init_drop17h3a0f5d3e68f76194E"(%"core::mem::maybe_uninit::MaybeUninit<std::ffi::os_str::OsString>"* align 8 dereferenceable(24) %self) unnamed_addr #1 {
start:
  %0 = bitcast %"core::mem::maybe_uninit::MaybeUninit<std::ffi::os_str::OsString>"* %self to %"std::ffi::os_str::OsString"*
  br label %bb1

bb1:                                              ; preds = %start
; call core::ptr::drop_in_place<std::ffi::os_str::OsString>
  call void @"_ZN4core3ptr47drop_in_place$LT$std..ffi..os_str..OsString$GT$17h81076ec3f81b57f3E"(%"std::ffi::os_str::OsString"* %0)
  br label %bb2

bb2:                                              ; preds = %bb1
  ret void
}

; core::mem::drop
; Function Attrs: inlinehint nonlazybind uwtable
define internal void @_ZN4core3mem4drop17h82c7373acd3fd83dE(%"alloc::collections::btree::map::IntoIter<std::ffi::os_str::OsString, core::option::Option<std::ffi::os_str::OsString>>"* noalias nocapture dereferenceable(72) %_x) unnamed_addr #0 {
start:
; call core::ptr::drop_in_place<alloc::collections::btree::map::IntoIter<std::ffi::os_str::OsString,core::option::Option<std::ffi::os_str::OsString>>>
  call void @"_ZN4core3ptr152drop_in_place$LT$alloc..collections..btree..map..IntoIter$LT$std..ffi..os_str..OsString$C$core..option..Option$LT$std..ffi..os_str..OsString$GT$$GT$$GT$17h2df475c756a010c1E"(%"alloc::collections::btree::map::IntoIter<std::ffi::os_str::OsString, core::option::Option<std::ffi::os_str::OsString>>"* %_x)
  br label %bb1

bb1:                                              ; preds = %start
  ret void
}

; core::mem::forget
; Function Attrs: inlinehint nonlazybind uwtable
define internal void @_ZN4core3mem6forget17h2116093bce74d2c4E() unnamed_addr #0 {
start:
  %0 = alloca %"core::mem::manually_drop::ManuallyDrop<alloc::collections::btree::mem::replace::PanicGuard>", align 1
  %1 = bitcast %"core::mem::manually_drop::ManuallyDrop<alloc::collections::btree::mem::replace::PanicGuard>"* %0 to %"alloc::collections::btree::mem::replace::PanicGuard"*
  br label %bb1

bb1:                                              ; preds = %start
  ret void
}

; core::mem::forget
; Function Attrs: inlinehint nonlazybind uwtable
define internal void @_ZN4core3mem6forget17ha5f9f9c5a976a668E(i64* align 8 dereferenceable(72) %t) unnamed_addr #0 {
start:
  %0 = alloca i64*, align 8
  store i64* %t, i64** %0, align 8
  %1 = load i64*, i64** %0, align 8, !nonnull !9
  br label %bb1

bb1:                                              ; preds = %start
  ret void
}

; core::mem::replace
; Function Attrs: inlinehint nonlazybind uwtable
define internal void @_ZN4core3mem7replace17h0cdd613acc65aaebE(%"core::option::Option<alloc::collections::btree::navigate::LazyLeafHandle<alloc::collections::btree::node::marker::Dying, std::ffi::os_str::OsString, core::option::Option<std::ffi::os_str::OsString>>>"* noalias nocapture sret(%"core::option::Option<alloc::collections::btree::navigate::LazyLeafHandle<alloc::collections::btree::node::marker::Dying, std::ffi::os_str::OsString, core::option::Option<std::ffi::os_str::OsString>>>") dereferenceable(32) %result, %"core::option::Option<alloc::collections::btree::navigate::LazyLeafHandle<alloc::collections::btree::node::marker::Dying, std::ffi::os_str::OsString, core::option::Option<std::ffi::os_str::OsString>>>"* align 8 dereferenceable(32) %dest, %"core::option::Option<alloc::collections::btree::navigate::LazyLeafHandle<alloc::collections::btree::node::marker::Dying, std::ffi::os_str::OsString, core::option::Option<std::ffi::os_str::OsString>>>"* noalias nocapture dereferenceable(32) %src) unnamed_addr #0 personality i32 (i32, i32, i64, %"unwind::libunwind::_Unwind_Exception"*, %"unwind::libunwind::_Unwind_Context"*)* @rust_eh_personality {
start:
  %0 = alloca { i8*, i32 }, align 8
  %_7 = alloca i8, align 1
  %_6 = alloca %"core::option::Option<alloc::collections::btree::navigate::LazyLeafHandle<alloc::collections::btree::node::marker::Dying, std::ffi::os_str::OsString, core::option::Option<std::ffi::os_str::OsString>>>", align 8
  store i8 0, i8* %_7, align 1
  store i8 1, i8* %_7, align 1
; invoke core::ptr::read
  invoke void @_ZN4core3ptr4read17ha7b264cfdda64225E(%"core::option::Option<alloc::collections::btree::navigate::LazyLeafHandle<alloc::collections::btree::node::marker::Dying, std::ffi::os_str::OsString, core::option::Option<std::ffi::os_str::OsString>>>"* noalias nocapture sret(%"core::option::Option<alloc::collections::btree::navigate::LazyLeafHandle<alloc::collections::btree::node::marker::Dying, std::ffi::os_str::OsString, core::option::Option<std::ffi::os_str::OsString>>>") dereferenceable(32) %result, %"core::option::Option<alloc::collections::btree::navigate::LazyLeafHandle<alloc::collections::btree::node::marker::Dying, std::ffi::os_str::OsString, core::option::Option<std::ffi::os_str::OsString>>>"* %dest)
          to label %bb1 unwind label %cleanup

bb1:                                              ; preds = %start
  store i8 0, i8* %_7, align 1
  %1 = bitcast %"core::option::Option<alloc::collections::btree::navigate::LazyLeafHandle<alloc::collections::btree::node::marker::Dying, std::ffi::os_str::OsString, core::option::Option<std::ffi::os_str::OsString>>>"* %_6 to i8*
  %2 = bitcast %"core::option::Option<alloc::collections::btree::navigate::LazyLeafHandle<alloc::collections::btree::node::marker::Dying, std::ffi::os_str::OsString, core::option::Option<std::ffi::os_str::OsString>>>"* %src to i8*
  call void @llvm.memcpy.p0i8.p0i8.i64(i8* align 8 %1, i8* align 8 %2, i64 32, i1 false)
; invoke core::ptr::write
  invoke void @_ZN4core3ptr5write17h015731dcc83a00eaE(%"core::option::Option<alloc::collections::btree::navigate::LazyLeafHandle<alloc::collections::btree::node::marker::Dying, std::ffi::os_str::OsString, core::option::Option<std::ffi::os_str::OsString>>>"* %dest, %"core::option::Option<alloc::collections::btree::navigate::LazyLeafHandle<alloc::collections::btree::node::marker::Dying, std::ffi::os_str::OsString, core::option::Option<std::ffi::os_str::OsString>>>"* noalias nocapture dereferenceable(32) %_6)
          to label %bb2 unwind label %cleanup1

bb6:                                              ; preds = %bb3, %cleanup
  %3 = load i8, i8* %_7, align 1, !range !3
  %4 = trunc i8 %3 to i1
  br i1 %4, label %bb5, label %bb4

cleanup:                                          ; preds = %start
  %5 = landingpad { i8*, i32 }
          cleanup
  %6 = extractvalue { i8*, i32 } %5, 0
  %7 = extractvalue { i8*, i32 } %5, 1
  %8 = getelementptr inbounds { i8*, i32 }, { i8*, i32 }* %0, i32 0, i32 0
  store i8* %6, i8** %8, align 8
  %9 = getelementptr inbounds { i8*, i32 }, { i8*, i32 }* %0, i32 0, i32 1
  store i32 %7, i32* %9, align 8
  br label %bb6

bb2:                                              ; preds = %bb1
  ret void

bb3:                                              ; preds = %cleanup1
  br label %bb6

cleanup1:                                         ; preds = %bb1
  %10 = landingpad { i8*, i32 }
          cleanup
  %11 = extractvalue { i8*, i32 } %10, 0
  %12 = extractvalue { i8*, i32 } %10, 1
  %13 = getelementptr inbounds { i8*, i32 }, { i8*, i32 }* %0, i32 0, i32 0
  store i8* %11, i8** %13, align 8
  %14 = getelementptr inbounds { i8*, i32 }, { i8*, i32 }* %0, i32 0, i32 1
  store i32 %12, i32* %14, align 8
  br label %bb3

bb4:                                              ; preds = %bb5, %bb6
  %15 = bitcast { i8*, i32 }* %0 to i8**
  %16 = load i8*, i8** %15, align 8
  %17 = getelementptr inbounds { i8*, i32 }, { i8*, i32 }* %0, i32 0, i32 1
  %18 = load i32, i32* %17, align 8
  %19 = insertvalue { i8*, i32 } undef, i8* %16, 0
  %20 = insertvalue { i8*, i32 } %19, i32 %18, 1
  resume { i8*, i32 } %20

bb5:                                              ; preds = %bb6
  br label %bb4
}

; core::mem::replace
; Function Attrs: inlinehint nonlazybind uwtable
define internal { i8*, i64 } @_ZN4core3mem7replace17h1acc7e252a8d9f6cE({ i8*, i64 }* align 8 dereferenceable(16) %dest, i8* align 1 %src.0, i64 %src.1) unnamed_addr #0 personality i32 (i32, i32, i64, %"unwind::libunwind::_Unwind_Exception"*, %"unwind::libunwind::_Unwind_Context"*)* @rust_eh_personality {
start:
  %0 = alloca { i8*, i32 }, align 8
  %_7 = alloca i8, align 1
  store i8 0, i8* %_7, align 1
  store i8 1, i8* %_7, align 1
; invoke core::ptr::read
  %1 = invoke { i8*, i64 } @_ZN4core3ptr4read17h48c24e568b57fb75E({ i8*, i64 }* %dest)
          to label %bb1 unwind label %cleanup

bb1:                                              ; preds = %start
  %result.0 = extractvalue { i8*, i64 } %1, 0
  %result.1 = extractvalue { i8*, i64 } %1, 1
  store i8 0, i8* %_7, align 1
; invoke core::ptr::write
  invoke void @_ZN4core3ptr5write17hc8c54f56a1ee4072E({ i8*, i64 }* %dest, i8* align 1 %src.0, i64 %src.1)
          to label %bb2 unwind label %cleanup1

bb6:                                              ; preds = %bb3, %cleanup
  %2 = load i8, i8* %_7, align 1, !range !3
  %3 = trunc i8 %2 to i1
  br i1 %3, label %bb5, label %bb4

cleanup:                                          ; preds = %start
  %4 = landingpad { i8*, i32 }
          cleanup
  %5 = extractvalue { i8*, i32 } %4, 0
  %6 = extractvalue { i8*, i32 } %4, 1
  %7 = getelementptr inbounds { i8*, i32 }, { i8*, i32 }* %0, i32 0, i32 0
  store i8* %5, i8** %7, align 8
  %8 = getelementptr inbounds { i8*, i32 }, { i8*, i32 }* %0, i32 0, i32 1
  store i32 %6, i32* %8, align 8
  br label %bb6

bb2:                                              ; preds = %bb1
  %9 = insertvalue { i8*, i64 } undef, i8* %result.0, 0
  %10 = insertvalue { i8*, i64 } %9, i64 %result.1, 1
  ret { i8*, i64 } %10

bb3:                                              ; preds = %cleanup1
  br label %bb6

cleanup1:                                         ; preds = %bb1
  %11 = landingpad { i8*, i32 }
          cleanup
  %12 = extractvalue { i8*, i32 } %11, 0
  %13 = extractvalue { i8*, i32 } %11, 1
  %14 = getelementptr inbounds { i8*, i32 }, { i8*, i32 }* %0, i32 0, i32 0
  store i8* %12, i8** %14, align 8
  %15 = getelementptr inbounds { i8*, i32 }, { i8*, i32 }* %0, i32 0, i32 1
  store i32 %13, i32* %15, align 8
  br label %bb3

bb4:                                              ; preds = %bb5, %bb6
  %16 = bitcast { i8*, i32 }* %0 to i8**
  %17 = load i8*, i8** %16, align 8
  %18 = getelementptr inbounds { i8*, i32 }, { i8*, i32 }* %0, i32 0, i32 1
  %19 = load i32, i32* %18, align 8
  %20 = insertvalue { i8*, i32 } undef, i8* %17, 0
  %21 = insertvalue { i8*, i32 } %20, i32 %19, 1
  resume { i8*, i32 } %21

bb5:                                              ; preds = %bb6
  br label %bb4
}

; core::mem::replace
; Function Attrs: inlinehint nonlazybind uwtable
define internal i64 @_ZN4core3mem7replace17h59f85e1f361292c2E(i64* align 8 dereferenceable(8) %dest, i64 %src) unnamed_addr #0 personality i32 (i32, i32, i64, %"unwind::libunwind::_Unwind_Exception"*, %"unwind::libunwind::_Unwind_Context"*)* @rust_eh_personality {
start:
  %0 = alloca { i8*, i32 }, align 8
  %_7 = alloca i8, align 1
  store i8 0, i8* %_7, align 1
  store i8 1, i8* %_7, align 1
; invoke core::ptr::read
  %result = invoke i64 @_ZN4core3ptr4read17h7fea044783768356E(i64* %dest)
          to label %bb1 unwind label %cleanup

bb1:                                              ; preds = %start
  store i8 0, i8* %_7, align 1
; invoke core::ptr::write
  invoke void @_ZN4core3ptr5write17h2216db72121a77efE(i64* %dest, i64 %src)
          to label %bb2 unwind label %cleanup1

bb6:                                              ; preds = %bb3, %cleanup
  %1 = load i8, i8* %_7, align 1, !range !3
  %2 = trunc i8 %1 to i1
  br i1 %2, label %bb5, label %bb4

cleanup:                                          ; preds = %start
  %3 = landingpad { i8*, i32 }
          cleanup
  %4 = extractvalue { i8*, i32 } %3, 0
  %5 = extractvalue { i8*, i32 } %3, 1
  %6 = getelementptr inbounds { i8*, i32 }, { i8*, i32 }* %0, i32 0, i32 0
  store i8* %4, i8** %6, align 8
  %7 = getelementptr inbounds { i8*, i32 }, { i8*, i32 }* %0, i32 0, i32 1
  store i32 %5, i32* %7, align 8
  br label %bb6

bb2:                                              ; preds = %bb1
  ret i64 %result

bb3:                                              ; preds = %cleanup1
  br label %bb6

cleanup1:                                         ; preds = %bb1
  %8 = landingpad { i8*, i32 }
          cleanup
  %9 = extractvalue { i8*, i32 } %8, 0
  %10 = extractvalue { i8*, i32 } %8, 1
  %11 = getelementptr inbounds { i8*, i32 }, { i8*, i32 }* %0, i32 0, i32 0
  store i8* %9, i8** %11, align 8
  %12 = getelementptr inbounds { i8*, i32 }, { i8*, i32 }* %0, i32 0, i32 1
  store i32 %10, i32* %12, align 8
  br label %bb3

bb4:                                              ; preds = %bb5, %bb6
  %13 = bitcast { i8*, i32 }* %0 to i8**
  %14 = load i8*, i8** %13, align 8
  %15 = getelementptr inbounds { i8*, i32 }, { i8*, i32 }* %0, i32 0, i32 1
  %16 = load i32, i32* %15, align 8
  %17 = insertvalue { i8*, i32 } undef, i8* %14, 0
  %18 = insertvalue { i8*, i32 } %17, i32 %16, 1
  resume { i8*, i32 } %18

bb5:                                              ; preds = %bb6
  br label %bb4
}

; core::mem::replace
; Function Attrs: inlinehint nonlazybind uwtable
define internal { i64, i64* } @_ZN4core3mem7replace17h74c9678c17494ed3E({ i64, i64* }* align 8 dereferenceable(16) %dest, i64 %src.0, i64* %src.1) unnamed_addr #0 personality i32 (i32, i32, i64, %"unwind::libunwind::_Unwind_Exception"*, %"unwind::libunwind::_Unwind_Context"*)* @rust_eh_personality {
start:
  %0 = alloca { i8*, i32 }, align 8
  %_7 = alloca i8, align 1
  store i8 0, i8* %_7, align 1
  store i8 1, i8* %_7, align 1
; invoke core::ptr::read
  %1 = invoke { i64, i64* } @_ZN4core3ptr4read17h53e136638814dca8E({ i64, i64* }* %dest)
          to label %bb1 unwind label %cleanup

bb1:                                              ; preds = %start
  %result.0 = extractvalue { i64, i64* } %1, 0
  %result.1 = extractvalue { i64, i64* } %1, 1
  store i8 0, i8* %_7, align 1
; invoke core::ptr::write
  invoke void @_ZN4core3ptr5write17h947e8efe7dc1c246E({ i64, i64* }* %dest, i64 %src.0, i64* %src.1)
          to label %bb2 unwind label %cleanup1

bb6:                                              ; preds = %bb3, %cleanup
  %2 = load i8, i8* %_7, align 1, !range !3
  %3 = trunc i8 %2 to i1
  br i1 %3, label %bb5, label %bb4

cleanup:                                          ; preds = %start
  %4 = landingpad { i8*, i32 }
          cleanup
  %5 = extractvalue { i8*, i32 } %4, 0
  %6 = extractvalue { i8*, i32 } %4, 1
  %7 = getelementptr inbounds { i8*, i32 }, { i8*, i32 }* %0, i32 0, i32 0
  store i8* %5, i8** %7, align 8
  %8 = getelementptr inbounds { i8*, i32 }, { i8*, i32 }* %0, i32 0, i32 1
  store i32 %6, i32* %8, align 8
  br label %bb6

bb2:                                              ; preds = %bb1
  %9 = insertvalue { i64, i64* } undef, i64 %result.0, 0
  %10 = insertvalue { i64, i64* } %9, i64* %result.1, 1
  ret { i64, i64* } %10

bb3:                                              ; preds = %cleanup1
  br label %bb6

cleanup1:                                         ; preds = %bb1
  %11 = landingpad { i8*, i32 }
          cleanup
  %12 = extractvalue { i8*, i32 } %11, 0
  %13 = extractvalue { i8*, i32 } %11, 1
  %14 = getelementptr inbounds { i8*, i32 }, { i8*, i32 }* %0, i32 0, i32 0
  store i8* %12, i8** %14, align 8
  %15 = getelementptr inbounds { i8*, i32 }, { i8*, i32 }* %0, i32 0, i32 1
  store i32 %13, i32* %15, align 8
  br label %bb3

bb4:                                              ; preds = %bb5, %bb6
  %16 = bitcast { i8*, i32 }* %0 to i8**
  %17 = load i8*, i8** %16, align 8
  %18 = getelementptr inbounds { i8*, i32 }, { i8*, i32 }* %0, i32 0, i32 1
  %19 = load i32, i32* %18, align 8
  %20 = insertvalue { i8*, i32 } undef, i8* %17, 0
  %21 = insertvalue { i8*, i32 } %20, i32 %19, 1
  resume { i8*, i32 } %21

bb5:                                              ; preds = %bb6
  br label %bb4
}

; core::num::nonzero::NonZeroUsize::new_unchecked
; Function Attrs: inlinehint nonlazybind uwtable
define internal i64 @_ZN4core3num7nonzero12NonZeroUsize13new_unchecked17h56fe74ddb26bdb20E(i64 %n) unnamed_addr #0 {
start:
  %0 = alloca i64, align 8
  store i64 %n, i64* %0, align 8
  %1 = load i64, i64* %0, align 8, !range !11
  ret i64 %1
}

; core::num::nonzero::NonZeroUsize::get
; Function Attrs: inlinehint nonlazybind uwtable
define internal i64 @_ZN4core3num7nonzero12NonZeroUsize3get17hb69466337f9d5117E(i64 %self) unnamed_addr #0 {
start:
  ret i64 %self
}

; core::ops::function::FnOnce::call_once{{vtable.shim}}
; Function Attrs: inlinehint nonlazybind uwtable
define internal i32 @"_ZN4core3ops8function6FnOnce40call_once$u7b$$u7b$vtable.shim$u7d$$u7d$17h6289ab4c2a77e1e9E"(i64** %_1) unnamed_addr #0 {
start:
  %_2 = alloca {}, align 1
  %0 = load i64*, i64** %_1, align 8, !nonnull !9
; call core::ops::function::FnOnce::call_once
  %1 = call i32 @_ZN4core3ops8function6FnOnce9call_once17hc8b93188c67664b3E(i64* nonnull %0)
  br label %bb1

bb1:                                              ; preds = %start
  ret i32 %1
}

; core::ops::function::FnOnce::call_once
; Function Attrs: inlinehint nonlazybind uwtable
define internal void @_ZN4core3ops8function6FnOnce9call_once17h8e84673ba7cb1debE(void ()* nonnull %_1) unnamed_addr #0 {
start:
  %_2 = alloca {}, align 1
  call void %_1()
  br label %bb1

bb1:                                              ; preds = %start
  ret void
}

; core::ops::function::FnOnce::call_once
; Function Attrs: inlinehint nonlazybind uwtable
define internal i32 @_ZN4core3ops8function6FnOnce9call_once17hc8b93188c67664b3E(i64* nonnull %0) unnamed_addr #0 personality i32 (i32, i32, i64, %"unwind::libunwind::_Unwind_Exception"*, %"unwind::libunwind::_Unwind_Context"*)* @rust_eh_personality {
start:
  %1 = alloca { i8*, i32 }, align 8
  %_2 = alloca {}, align 1
  %_1 = alloca i64*, align 8
  store i64* %0, i64** %_1, align 8
; invoke std::rt::lang_start::{{closure}}
  %2 = invoke i32 @"_ZN3std2rt10lang_start28_$u7b$$u7b$closure$u7d$$u7d$17h98aa37b02d749be6E"(i64** align 8 dereferenceable(8) %_1)
          to label %bb1 unwind label %cleanup

bb1:                                              ; preds = %start
  br label %bb2

bb3:                                              ; preds = %cleanup
  br label %bb4

cleanup:                                          ; preds = %start
  %3 = landingpad { i8*, i32 }
          cleanup
  %4 = extractvalue { i8*, i32 } %3, 0
  %5 = extractvalue { i8*, i32 } %3, 1
  %6 = getelementptr inbounds { i8*, i32 }, { i8*, i32 }* %1, i32 0, i32 0
  store i8* %4, i8** %6, align 8
  %7 = getelementptr inbounds { i8*, i32 }, { i8*, i32 }* %1, i32 0, i32 1
  store i32 %5, i32* %7, align 8
  br label %bb3

bb4:                                              ; preds = %bb3
  %8 = bitcast { i8*, i32 }* %1 to i8**
  %9 = load i8*, i8** %8, align 8
  %10 = getelementptr inbounds { i8*, i32 }, { i8*, i32 }* %1, i32 0, i32 1
  %11 = load i32, i32* %10, align 8
  %12 = insertvalue { i8*, i32 } undef, i8* %9, 0
  %13 = insertvalue { i8*, i32 } %12, i32 %11, 1
  resume { i8*, i32 } %13

bb2:                                              ; preds = %bb1
  ret i32 %2
}

; core::ptr::drop_in_place<core::result::Result<alloc::string::String,alloc::string::FromUtf8Error>>
; Function Attrs: nonlazybind uwtable
define internal void @"_ZN4core3ptr101drop_in_place$LT$core..result..Result$LT$alloc..string..String$C$alloc..string..FromUtf8Error$GT$$GT$17h7be13ab9be0454b8E"(%"core::result::Result<alloc::string::String, alloc::string::FromUtf8Error>"* %_1) unnamed_addr #1 {
start:
  %0 = bitcast %"core::result::Result<alloc::string::String, alloc::string::FromUtf8Error>"* %_1 to i64*
  %_2 = load i64, i64* %0, align 8, !range !10
  %1 = icmp eq i64 %_2, 0
  br i1 %1, label %bb2, label %bb3

bb2:                                              ; preds = %start
  %2 = bitcast %"core::result::Result<alloc::string::String, alloc::string::FromUtf8Error>"* %_1 to %"core::result::Result<alloc::string::String, alloc::string::FromUtf8Error>::Ok"*
  %3 = getelementptr inbounds %"core::result::Result<alloc::string::String, alloc::string::FromUtf8Error>::Ok", %"core::result::Result<alloc::string::String, alloc::string::FromUtf8Error>::Ok"* %2, i32 0, i32 1
; call core::ptr::drop_in_place<alloc::string::String>
  call void @"_ZN4core3ptr42drop_in_place$LT$alloc..string..String$GT$17h5313a1f9b243016fE"(%"alloc::string::String"* %3)
  br label %bb1

bb3:                                              ; preds = %start
  %4 = bitcast %"core::result::Result<alloc::string::String, alloc::string::FromUtf8Error>"* %_1 to %"core::result::Result<alloc::string::String, alloc::string::FromUtf8Error>::Err"*
  %5 = getelementptr inbounds %"core::result::Result<alloc::string::String, alloc::string::FromUtf8Error>::Err", %"core::result::Result<alloc::string::String, alloc::string::FromUtf8Error>::Err"* %4, i32 0, i32 1
; call core::ptr::drop_in_place<alloc::string::FromUtf8Error>
  call void @"_ZN4core3ptr49drop_in_place$LT$alloc..string..FromUtf8Error$GT$17h39534005df4e90cfE"(%"alloc::string::FromUtf8Error"* %5)
  br label %bb1

bb1:                                              ; preds = %bb2, %bb3
  ret void
}

; core::ptr::drop_in_place<alloc::boxed::Box<dyn std::error::Error+core::marker::Send+core::marker::Sync>>
; Function Attrs: nonlazybind uwtable
define internal void @"_ZN4core3ptr117drop_in_place$LT$alloc..boxed..Box$LT$dyn$u20$std..error..Error$u2b$core..marker..Send$u2b$core..marker..Sync$GT$$GT$17h8eaa64c023bd8cb5E"({ {}*, [3 x i64]* }* %_1) unnamed_addr #1 personality i32 (i32, i32, i64, %"unwind::libunwind::_Unwind_Exception"*, %"unwind::libunwind::_Unwind_Context"*)* @rust_eh_personality {
start:
  %0 = alloca { i8*, i32 }, align 8
  %1 = getelementptr inbounds { {}*, [3 x i64]* }, { {}*, [3 x i64]* }* %_1, i32 0, i32 0
  %2 = load {}*, {}** %1, align 8, !nonnull !9
  %3 = getelementptr inbounds { {}*, [3 x i64]* }, { {}*, [3 x i64]* }* %_1, i32 0, i32 1
  %4 = load [3 x i64]*, [3 x i64]** %3, align 8, !nonnull !9
  %5 = bitcast [3 x i64]* %4 to void ({}*)**
  %6 = getelementptr inbounds void ({}*)*, void ({}*)** %5, i64 0
  %7 = load void ({}*)*, void ({}*)** %6, align 8, !invariant.load !9, !nonnull !9
  invoke void %7({}* %2)
          to label %bb3 unwind label %cleanup

bb3:                                              ; preds = %start
  %8 = bitcast { {}*, [3 x i64]* }* %_1 to { i8*, i64* }*
  %9 = getelementptr inbounds { i8*, i64* }, { i8*, i64* }* %8, i32 0, i32 0
  %10 = load i8*, i8** %9, align 8, !nonnull !9
  %11 = getelementptr inbounds { i8*, i64* }, { i8*, i64* }* %8, i32 0, i32 1
  %12 = load i64*, i64** %11, align 8, !nonnull !9
; call alloc::alloc::box_free
  call void @_ZN5alloc5alloc8box_free17h2e6b230fdf94623bE(i8* nonnull %10, i64* align 8 dereferenceable(24) %12)
  br label %bb1

bb4:                                              ; preds = %cleanup
  %13 = bitcast { {}*, [3 x i64]* }* %_1 to { i8*, i64* }*
  %14 = getelementptr inbounds { i8*, i64* }, { i8*, i64* }* %13, i32 0, i32 0
  %15 = load i8*, i8** %14, align 8, !nonnull !9
  %16 = getelementptr inbounds { i8*, i64* }, { i8*, i64* }* %13, i32 0, i32 1
  %17 = load i64*, i64** %16, align 8, !nonnull !9
; call alloc::alloc::box_free
  call void @_ZN5alloc5alloc8box_free17h2e6b230fdf94623bE(i8* nonnull %15, i64* align 8 dereferenceable(24) %17) #18
  br label %bb2

cleanup:                                          ; preds = %start
  %18 = landingpad { i8*, i32 }
          cleanup
  %19 = extractvalue { i8*, i32 } %18, 0
  %20 = extractvalue { i8*, i32 } %18, 1
  %21 = getelementptr inbounds { i8*, i32 }, { i8*, i32 }* %0, i32 0, i32 0
  store i8* %19, i8** %21, align 8
  %22 = getelementptr inbounds { i8*, i32 }, { i8*, i32 }* %0, i32 0, i32 1
  store i32 %20, i32* %22, align 8
  br label %bb4

bb2:                                              ; preds = %bb4
  %23 = bitcast { i8*, i32 }* %0 to i8**
  %24 = load i8*, i8** %23, align 8
  %25 = getelementptr inbounds { i8*, i32 }, { i8*, i32 }* %0, i32 0, i32 1
  %26 = load i32, i32* %25, align 8
  %27 = insertvalue { i8*, i32 } undef, i8* %24, 0
  %28 = insertvalue { i8*, i32 } %27, i32 %26, 1
  resume { i8*, i32 } %28

bb1:                                              ; preds = %bb3
  ret void
}

; core::ptr::drop_in_place<alloc::collections::btree::map::BTreeMap<std::ffi::os_str::OsString,core::option::Option<std::ffi::os_str::OsString>>>
; Function Attrs: nonlazybind uwtable
define internal void @"_ZN4core3ptr152drop_in_place$LT$alloc..collections..btree..map..BTreeMap$LT$std..ffi..os_str..OsString$C$core..option..Option$LT$std..ffi..os_str..OsString$GT$$GT$$GT$17hdb095c0dde52d5b9E"(%"alloc::collections::btree::map::BTreeMap<std::ffi::os_str::OsString, core::option::Option<std::ffi::os_str::OsString>>"* %_1) unnamed_addr #1 {
start:
; call <alloc::collections::btree::map::BTreeMap<K,V> as core::ops::drop::Drop>::drop
  call void @"_ZN95_$LT$alloc..collections..btree..map..BTreeMap$LT$K$C$V$GT$$u20$as$u20$core..ops..drop..Drop$GT$4drop17h7760062f37335069E"(%"alloc::collections::btree::map::BTreeMap<std::ffi::os_str::OsString, core::option::Option<std::ffi::os_str::OsString>>"* align 8 dereferenceable(24) %_1)
  br label %bb1

bb1:                                              ; preds = %start
  ret void
}

; core::ptr::drop_in_place<alloc::collections::btree::map::IntoIter<std::ffi::os_str::OsString,core::option::Option<std::ffi::os_str::OsString>>>
; Function Attrs: nonlazybind uwtable
define internal void @"_ZN4core3ptr152drop_in_place$LT$alloc..collections..btree..map..IntoIter$LT$std..ffi..os_str..OsString$C$core..option..Option$LT$std..ffi..os_str..OsString$GT$$GT$$GT$17h2df475c756a010c1E"(%"alloc::collections::btree::map::IntoIter<std::ffi::os_str::OsString, core::option::Option<std::ffi::os_str::OsString>>"* %_1) unnamed_addr #1 {
start:
; call <alloc::collections::btree::map::IntoIter<K,V> as core::ops::drop::Drop>::drop
  call void @"_ZN95_$LT$alloc..collections..btree..map..IntoIter$LT$K$C$V$GT$$u20$as$u20$core..ops..drop..Drop$GT$4drop17h131fd900c2375d37E"(%"alloc::collections::btree::map::IntoIter<std::ffi::os_str::OsString, core::option::Option<std::ffi::os_str::OsString>>"* align 8 dereferenceable(72) %_1)
  br label %bb1

bb1:                                              ; preds = %start
  ret void
}

; core::ptr::drop_in_place<dyn core::ops::function::FnMut<()>+Output = core::result::Result<(),std::io::error::Error>+core::marker::Send+core::marker::Sync>
; Function Attrs: nonlazybind uwtable
define internal void @"_ZN4core3ptr203drop_in_place$LT$dyn$u20$core..ops..function..FnMut$LT$$LP$$RP$$GT$$u2b$Output$u20$$u3d$$u20$core..result..Result$LT$$LP$$RP$$C$std..io..error..Error$GT$$u2b$core..marker..Send$u2b$core..marker..Sync$GT$17hae1b2c4a6ef9ee54E"({}* %_1.0, [3 x i64]* align 8 dereferenceable(24) %_1.1) unnamed_addr #1 {
start:
  %0 = bitcast [3 x i64]* %_1.1 to void ({}*)**
  %1 = getelementptr inbounds void ({}*)*, void ({}*)** %0, i64 0
  %2 = load void ({}*)*, void ({}*)** %1, align 8, !invariant.load !9, !nonnull !9
  call void %2({}* %_1.0)
  br label %bb1

bb1:                                              ; preds = %start
  ret void
}

; core::ptr::slice_from_raw_parts
; Function Attrs: inlinehint nonlazybind uwtable
define internal { [0 x i8]*, i64 } @_ZN4core3ptr20slice_from_raw_parts17hac7827c8e81c7e62E(i8* %data, i64 %len) unnamed_addr #0 {
start:
; call core::ptr::const_ptr::<impl *const T>::cast
  %_3 = call {}* @"_ZN4core3ptr9const_ptr33_$LT$impl$u20$$BP$const$u20$T$GT$4cast17h2aa269db36923360E"(i8* %data)
  br label %bb1

bb1:                                              ; preds = %start
; call core::ptr::metadata::from_raw_parts
  %0 = call { [0 x i8]*, i64 } @_ZN4core3ptr8metadata14from_raw_parts17h37336b75f3c54811E({}* %_3, i64 %len)
  %1 = extractvalue { [0 x i8]*, i64 } %0, 0
  %2 = extractvalue { [0 x i8]*, i64 } %0, 1
  br label %bb2

bb2:                                              ; preds = %bb1
  %3 = insertvalue { [0 x i8]*, i64 } undef, [0 x i8]* %1, 0
  %4 = insertvalue { [0 x i8]*, i64 } %3, i64 %2, 1
  ret { [0 x i8]*, i64 } %4
}

; core::ptr::drop_in_place<<alloc::collections::btree::map::IntoIter<K,V> as core::ops::drop::Drop>::drop::DropGuard<std::ffi::os_str::OsString,core::option::Option<std::ffi::os_str::OsString>>>
; Function Attrs: nonlazybind uwtable
define internal void @"_ZN4core3ptr223drop_in_place$LT$$LT$alloc..collections..btree..map..IntoIter$LT$K$C$V$GT$$u20$as$u20$core..ops..drop..Drop$GT$..drop..DropGuard$LT$std..ffi..os_str..OsString$C$core..option..Option$LT$std..ffi..os_str..OsString$GT$$GT$$GT$17hc0d4d4ba767b7b00E"(i64** %_1) unnamed_addr #1 {
start:
; call <<alloc::collections::btree::map::IntoIter<K,V> as core::ops::drop::Drop>::drop::DropGuard<K,V> as core::ops::drop::Drop>::drop
  call void @"_ZN166_$LT$$LT$alloc..collections..btree..map..IntoIter$LT$K$C$V$GT$$u20$as$u20$core..ops..drop..Drop$GT$..drop..DropGuard$LT$K$C$V$GT$$u20$as$u20$core..ops..drop..Drop$GT$4drop17he43f9d9185172ad9E"(i64** align 8 dereferenceable(8) %_1)
  br label %bb1

bb1:                                              ; preds = %start
  ret void
}

; core::ptr::drop_in_place<alloc::boxed::Box<dyn core::ops::function::FnMut<()>+Output = core::result::Result<(),std::io::error::Error>+core::marker::Send+core::marker::Sync>>
; Function Attrs: nonlazybind uwtable
define internal void @"_ZN4core3ptr228drop_in_place$LT$alloc..boxed..Box$LT$dyn$u20$core..ops..function..FnMut$LT$$LP$$RP$$GT$$u2b$Output$u20$$u3d$$u20$core..result..Result$LT$$LP$$RP$$C$std..io..error..Error$GT$$u2b$core..marker..Send$u2b$core..marker..Sync$GT$$GT$17hdce7ad675932bb32E"({ {}*, [3 x i64]* }* %_1) unnamed_addr #1 personality i32 (i32, i32, i64, %"unwind::libunwind::_Unwind_Exception"*, %"unwind::libunwind::_Unwind_Context"*)* @rust_eh_personality {
start:
  %0 = alloca { i8*, i32 }, align 8
  %1 = getelementptr inbounds { {}*, [3 x i64]* }, { {}*, [3 x i64]* }* %_1, i32 0, i32 0
  %2 = load {}*, {}** %1, align 8, !nonnull !9
  %3 = getelementptr inbounds { {}*, [3 x i64]* }, { {}*, [3 x i64]* }* %_1, i32 0, i32 1
  %4 = load [3 x i64]*, [3 x i64]** %3, align 8, !nonnull !9
  %5 = bitcast [3 x i64]* %4 to void ({}*)**
  %6 = getelementptr inbounds void ({}*)*, void ({}*)** %5, i64 0
  %7 = load void ({}*)*, void ({}*)** %6, align 8, !invariant.load !9, !nonnull !9
  invoke void %7({}* %2)
          to label %bb3 unwind label %cleanup

bb3:                                              ; preds = %start
  %8 = bitcast { {}*, [3 x i64]* }* %_1 to { i8*, i64* }*
  %9 = getelementptr inbounds { i8*, i64* }, { i8*, i64* }* %8, i32 0, i32 0
  %10 = load i8*, i8** %9, align 8, !nonnull !9
  %11 = getelementptr inbounds { i8*, i64* }, { i8*, i64* }* %8, i32 0, i32 1
  %12 = load i64*, i64** %11, align 8, !nonnull !9
; call alloc::alloc::box_free
  call void @_ZN5alloc5alloc8box_free17h70758275d9b9a2fdE(i8* nonnull %10, i64* align 8 dereferenceable(24) %12)
  br label %bb1

bb4:                                              ; preds = %cleanup
  %13 = bitcast { {}*, [3 x i64]* }* %_1 to { i8*, i64* }*
  %14 = getelementptr inbounds { i8*, i64* }, { i8*, i64* }* %13, i32 0, i32 0
  %15 = load i8*, i8** %14, align 8, !nonnull !9
  %16 = getelementptr inbounds { i8*, i64* }, { i8*, i64* }* %13, i32 0, i32 1
  %17 = load i64*, i64** %16, align 8, !nonnull !9
; call alloc::alloc::box_free
  call void @_ZN5alloc5alloc8box_free17h70758275d9b9a2fdE(i8* nonnull %15, i64* align 8 dereferenceable(24) %17) #18
  br label %bb2

cleanup:                                          ; preds = %start
  %18 = landingpad { i8*, i32 }
          cleanup
  %19 = extractvalue { i8*, i32 } %18, 0
  %20 = extractvalue { i8*, i32 } %18, 1
  %21 = getelementptr inbounds { i8*, i32 }, { i8*, i32 }* %0, i32 0, i32 0
  store i8* %19, i8** %21, align 8
  %22 = getelementptr inbounds { i8*, i32 }, { i8*, i32 }* %0, i32 0, i32 1
  store i32 %20, i32* %22, align 8
  br label %bb4

bb2:                                              ; preds = %bb4
  %23 = bitcast { i8*, i32 }* %0 to i8**
  %24 = load i8*, i8** %23, align 8
  %25 = getelementptr inbounds { i8*, i32 }, { i8*, i32 }* %0, i32 0, i32 1
  %26 = load i32, i32* %25, align 8
  %27 = insertvalue { i8*, i32 } undef, i8* %24, 0
  %28 = insertvalue { i8*, i32 } %27, i32 %26, 1
  resume { i8*, i32 } %28

bb1:                                              ; preds = %bb3
  ret void
}

; core::ptr::drop_in_place<[alloc::boxed::Box<dyn core::ops::function::FnMut<()>+Output = core::result::Result<(),std::io::error::Error>+core::marker::Send+core::marker::Sync>]>
; Function Attrs: nonlazybind uwtable
define internal void @"_ZN4core3ptr238drop_in_place$LT$$u5b$alloc..boxed..Box$LT$dyn$u20$core..ops..function..FnMut$LT$$LP$$RP$$GT$$u2b$Output$u20$$u3d$$u20$core..result..Result$LT$$LP$$RP$$C$std..io..error..Error$GT$$u2b$core..marker..Send$u2b$core..marker..Sync$GT$$u5d$$GT$17h7cfc730d3b00acbaE"([0 x { {}*, [3 x i64]* }]* %_1.0, i64 %_1.1) unnamed_addr #1 personality i32 (i32, i32, i64, %"unwind::libunwind::_Unwind_Exception"*, %"unwind::libunwind::_Unwind_Context"*)* @rust_eh_personality {
start:
  %0 = alloca { i8*, i32 }, align 8
  %_9 = alloca { {}*, [3 x i64]* }*, align 8
  %_4 = alloca i64, align 8
  br i1 false, label %bb7, label %bb12

bb7:                                              ; preds = %start
  store i64 0, i64* %_4, align 8
  br label %bb6

bb12:                                             ; preds = %start
  %1 = bitcast [0 x { {}*, [3 x i64]* }]* %_1.0 to { {}*, [3 x i64]* }*
  store { {}*, [3 x i64]* }* %1, { {}*, [3 x i64]* }** %_9, align 8
  %2 = load { {}*, [3 x i64]* }*, { {}*, [3 x i64]* }** %_9, align 8
  %_10 = getelementptr inbounds { {}*, [3 x i64]* }, { {}*, [3 x i64]* }* %2, i64 %_1.1
  br label %bb11

bb11:                                             ; preds = %bb10, %bb12
  %3 = load { {}*, [3 x i64]* }*, { {}*, [3 x i64]* }** %_9, align 8
  %_14 = icmp eq { {}*, [3 x i64]* }* %3, %_10
  br i1 %_14, label %bb1, label %bb10

bb10:                                             ; preds = %bb11
  %_13 = load { {}*, [3 x i64]* }*, { {}*, [3 x i64]* }** %_9, align 8
  %4 = load { {}*, [3 x i64]* }*, { {}*, [3 x i64]* }** %_9, align 8
  %5 = getelementptr inbounds { {}*, [3 x i64]* }, { {}*, [3 x i64]* }* %4, i64 1
  store { {}*, [3 x i64]* }* %5, { {}*, [3 x i64]* }** %_9, align 8
; invoke core::ptr::drop_in_place<alloc::boxed::Box<dyn core::ops::function::FnMut<()>+Output = core::result::Result<(),std::io::error::Error>+core::marker::Send+core::marker::Sync>>
  invoke void @"_ZN4core3ptr228drop_in_place$LT$alloc..boxed..Box$LT$dyn$u20$core..ops..function..FnMut$LT$$LP$$RP$$GT$$u2b$Output$u20$$u3d$$u20$core..result..Result$LT$$LP$$RP$$C$std..io..error..Error$GT$$u2b$core..marker..Send$u2b$core..marker..Sync$GT$$GT$17hdce7ad675932bb32E"({ {}*, [3 x i64]* }* %_13)
          to label %bb11 unwind label %cleanup

bb1:                                              ; preds = %bb6, %bb11
  ret void

bb9:                                              ; preds = %bb8, %cleanup
  %6 = load { {}*, [3 x i64]* }*, { {}*, [3 x i64]* }** %_9, align 8
  %_12 = icmp eq { {}*, [3 x i64]* }* %6, %_10
  br i1 %_12, label %bb2, label %bb8

cleanup:                                          ; preds = %bb10
  %7 = landingpad { i8*, i32 }
          cleanup
  %8 = extractvalue { i8*, i32 } %7, 0
  %9 = extractvalue { i8*, i32 } %7, 1
  %10 = getelementptr inbounds { i8*, i32 }, { i8*, i32 }* %0, i32 0, i32 0
  store i8* %8, i8** %10, align 8
  %11 = getelementptr inbounds { i8*, i32 }, { i8*, i32 }* %0, i32 0, i32 1
  store i32 %9, i32* %11, align 8
  br label %bb9

bb8:                                              ; preds = %bb9
  %_11 = load { {}*, [3 x i64]* }*, { {}*, [3 x i64]* }** %_9, align 8
  %12 = load { {}*, [3 x i64]* }*, { {}*, [3 x i64]* }** %_9, align 8
  %13 = getelementptr inbounds { {}*, [3 x i64]* }, { {}*, [3 x i64]* }* %12, i64 1
  store { {}*, [3 x i64]* }* %13, { {}*, [3 x i64]* }** %_9, align 8
; call core::ptr::drop_in_place<alloc::boxed::Box<dyn core::ops::function::FnMut<()>+Output = core::result::Result<(),std::io::error::Error>+core::marker::Send+core::marker::Sync>>
  call void @"_ZN4core3ptr228drop_in_place$LT$alloc..boxed..Box$LT$dyn$u20$core..ops..function..FnMut$LT$$LP$$RP$$GT$$u2b$Output$u20$$u3d$$u20$core..result..Result$LT$$LP$$RP$$C$std..io..error..Error$GT$$u2b$core..marker..Send$u2b$core..marker..Sync$GT$$GT$17hdce7ad675932bb32E"({ {}*, [3 x i64]* }* %_11) #18
  br label %bb9

bb2:                                              ; preds = %bb4, %bb9
  %14 = bitcast { i8*, i32 }* %0 to i8**
  %15 = load i8*, i8** %14, align 8
  %16 = getelementptr inbounds { i8*, i32 }, { i8*, i32 }* %0, i32 0, i32 1
  %17 = load i32, i32* %16, align 8
  %18 = insertvalue { i8*, i32 } undef, i8* %15, 0
  %19 = insertvalue { i8*, i32 } %18, i32 %17, 1
  resume { i8*, i32 } %19

bb6:                                              ; preds = %bb5, %bb7
  %20 = load i64, i64* %_4, align 8
  %_8 = icmp eq i64 %20, %_1.1
  br i1 %_8, label %bb1, label %bb5

bb5:                                              ; preds = %bb6
  %21 = load i64, i64* %_4, align 8
  %_7 = getelementptr inbounds [0 x { {}*, [3 x i64]* }], [0 x { {}*, [3 x i64]* }]* %_1.0, i64 0, i64 %21
  %22 = load i64, i64* %_4, align 8
  %23 = add i64 %22, 1
  store i64 %23, i64* %_4, align 8
; invoke core::ptr::drop_in_place<alloc::boxed::Box<dyn core::ops::function::FnMut<()>+Output = core::result::Result<(),std::io::error::Error>+core::marker::Send+core::marker::Sync>>
  invoke void @"_ZN4core3ptr228drop_in_place$LT$alloc..boxed..Box$LT$dyn$u20$core..ops..function..FnMut$LT$$LP$$RP$$GT$$u2b$Output$u20$$u3d$$u20$core..result..Result$LT$$LP$$RP$$C$std..io..error..Error$GT$$u2b$core..marker..Send$u2b$core..marker..Sync$GT$$GT$17hdce7ad675932bb32E"({ {}*, [3 x i64]* }* %_7)
          to label %bb6 unwind label %cleanup1

bb4:                                              ; preds = %bb3, %cleanup1
  %24 = load i64, i64* %_4, align 8
  %_6 = icmp eq i64 %24, %_1.1
  br i1 %_6, label %bb2, label %bb3

cleanup1:                                         ; preds = %bb5
  %25 = landingpad { i8*, i32 }
          cleanup
  %26 = extractvalue { i8*, i32 } %25, 0
  %27 = extractvalue { i8*, i32 } %25, 1
  %28 = getelementptr inbounds { i8*, i32 }, { i8*, i32 }* %0, i32 0, i32 0
  store i8* %26, i8** %28, align 8
  %29 = getelementptr inbounds { i8*, i32 }, { i8*, i32 }* %0, i32 0, i32 1
  store i32 %27, i32* %29, align 8
  br label %bb4

bb3:                                              ; preds = %bb4
  %30 = load i64, i64* %_4, align 8
  %_5 = getelementptr inbounds [0 x { {}*, [3 x i64]* }], [0 x { {}*, [3 x i64]* }]* %_1.0, i64 0, i64 %30
  %31 = load i64, i64* %_4, align 8
  %32 = add i64 %31, 1
  store i64 %32, i64* %_4, align 8
; call core::ptr::drop_in_place<alloc::boxed::Box<dyn core::ops::function::FnMut<()>+Output = core::result::Result<(),std::io::error::Error>+core::marker::Send+core::marker::Sync>>
  call void @"_ZN4core3ptr228drop_in_place$LT$alloc..boxed..Box$LT$dyn$u20$core..ops..function..FnMut$LT$$LP$$RP$$GT$$u2b$Output$u20$$u3d$$u20$core..result..Result$LT$$LP$$RP$$C$std..io..error..Error$GT$$u2b$core..marker..Send$u2b$core..marker..Sync$GT$$GT$17hdce7ad675932bb32E"({ {}*, [3 x i64]* }* %_5) #18
  br label %bb4
}

; core::ptr::slice_from_raw_parts_mut
; Function Attrs: inlinehint nonlazybind uwtable
define internal { [0 x i8]*, i64 } @_ZN4core3ptr24slice_from_raw_parts_mut17h0ab8db256932ad4dE(i8* %data, i64 %len) unnamed_addr #0 {
start:
  %0 = bitcast i8* %data to {}*
  br label %bb1

bb1:                                              ; preds = %start
; call core::ptr::metadata::from_raw_parts_mut
  %1 = call { [0 x i8]*, i64 } @_ZN4core3ptr8metadata18from_raw_parts_mut17h721457bfee3aebbaE({}* %0, i64 %len)
  %2 = extractvalue { [0 x i8]*, i64 } %1, 0
  %3 = extractvalue { [0 x i8]*, i64 } %1, 1
  br label %bb2

bb2:                                              ; preds = %bb1
  %4 = insertvalue { [0 x i8]*, i64 } undef, [0 x i8]* %2, 0
  %5 = insertvalue { [0 x i8]*, i64 } %4, i64 %3, 1
  ret { [0 x i8]*, i64 } %5
}

; core::ptr::slice_from_raw_parts_mut
; Function Attrs: inlinehint nonlazybind uwtable
define internal { [0 x { {}*, [3 x i64]* }]*, i64 } @_ZN4core3ptr24slice_from_raw_parts_mut17h8bd694f0a9bbedecE({ {}*, [3 x i64]* }* %data, i64 %len) unnamed_addr #0 {
start:
  %0 = bitcast { {}*, [3 x i64]* }* %data to {}*
  br label %bb1

bb1:                                              ; preds = %start
; call core::ptr::metadata::from_raw_parts_mut
  %1 = call { [0 x { {}*, [3 x i64]* }]*, i64 } @_ZN4core3ptr8metadata18from_raw_parts_mut17hd81082e70e7e5663E({}* %0, i64 %len)
  %2 = extractvalue { [0 x { {}*, [3 x i64]* }]*, i64 } %1, 0
  %3 = extractvalue { [0 x { {}*, [3 x i64]* }]*, i64 } %1, 1
  br label %bb2

bb2:                                              ; preds = %bb1
  %4 = insertvalue { [0 x { {}*, [3 x i64]* }]*, i64 } undef, [0 x { {}*, [3 x i64]* }]* %2, 0
  %5 = insertvalue { [0 x { {}*, [3 x i64]* }]*, i64 } %4, i64 %3, 1
  ret { [0 x { {}*, [3 x i64]* }]*, i64 } %5
}

; core::ptr::slice_from_raw_parts_mut
; Function Attrs: inlinehint nonlazybind uwtable
define internal { [0 x { i8*, i64 }]*, i64 } @_ZN4core3ptr24slice_from_raw_parts_mut17h8d3e5d2e83804220E({ i8*, i64 }* %data, i64 %len) unnamed_addr #0 {
start:
  %0 = bitcast { i8*, i64 }* %data to {}*
  br label %bb1

bb1:                                              ; preds = %start
; call core::ptr::metadata::from_raw_parts_mut
  %1 = call { [0 x { i8*, i64 }]*, i64 } @_ZN4core3ptr8metadata18from_raw_parts_mut17h5aa20f2e3df9cbd5E({}* %0, i64 %len)
  %2 = extractvalue { [0 x { i8*, i64 }]*, i64 } %1, 0
  %3 = extractvalue { [0 x { i8*, i64 }]*, i64 } %1, 1
  br label %bb2

bb2:                                              ; preds = %bb1
  %4 = insertvalue { [0 x { i8*, i64 }]*, i64 } undef, [0 x { i8*, i64 }]* %2, 0
  %5 = insertvalue { [0 x { i8*, i64 }]*, i64 } %4, i64 %3, 1
  ret { [0 x { i8*, i64 }]*, i64 } %5
}

; core::ptr::slice_from_raw_parts_mut
; Function Attrs: inlinehint nonlazybind uwtable
define internal { [0 x i8*]*, i64 } @_ZN4core3ptr24slice_from_raw_parts_mut17hfe07de5cf6efbd17E(i8** %data, i64 %len) unnamed_addr #0 {
start:
  %0 = bitcast i8** %data to {}*
  br label %bb1

bb1:                                              ; preds = %start
; call core::ptr::metadata::from_raw_parts_mut
  %1 = call { [0 x i8*]*, i64 } @_ZN4core3ptr8metadata18from_raw_parts_mut17h54dcbf49b189aa8dE({}* %0, i64 %len)
  %2 = extractvalue { [0 x i8*]*, i64 } %1, 0
  %3 = extractvalue { [0 x i8*]*, i64 } %1, 1
  br label %bb2

bb2:                                              ; preds = %bb1
  %4 = insertvalue { [0 x i8*]*, i64 } undef, [0 x i8*]* %2, 0
  %5 = insertvalue { [0 x i8*]*, i64 } %4, i64 %3, 1
  ret { [0 x i8*]*, i64 } %5
}

; core::ptr::drop_in_place<alloc::vec::Vec<alloc::boxed::Box<dyn core::ops::function::FnMut<()>+Output = core::result::Result<(),std::io::error::Error>+core::marker::Send+core::marker::Sync>>>
; Function Attrs: nonlazybind uwtable
define internal void @"_ZN4core3ptr251drop_in_place$LT$alloc..vec..Vec$LT$alloc..boxed..Box$LT$dyn$u20$core..ops..function..FnMut$LT$$LP$$RP$$GT$$u2b$Output$u20$$u3d$$u20$core..result..Result$LT$$LP$$RP$$C$std..io..error..Error$GT$$u2b$core..marker..Send$u2b$core..marker..Sync$GT$$GT$$GT$17h4f04042ff4116fcfE"(%"alloc::vec::Vec<alloc::boxed::Box<dyn core::ops::function::FnMut() -> core::result::Result<(), std::io::error::Error> + core::marker::Send + core::marker::Sync>>"* %_1) unnamed_addr #1 personality i32 (i32, i32, i64, %"unwind::libunwind::_Unwind_Exception"*, %"unwind::libunwind::_Unwind_Context"*)* @rust_eh_personality {
start:
  %0 = alloca { i8*, i32 }, align 8
; invoke <alloc::vec::Vec<T,A> as core::ops::drop::Drop>::drop
  invoke void @"_ZN70_$LT$alloc..vec..Vec$LT$T$C$A$GT$$u20$as$u20$core..ops..drop..Drop$GT$4drop17h990031e26e5bcfb0E"(%"alloc::vec::Vec<alloc::boxed::Box<dyn core::ops::function::FnMut() -> core::result::Result<(), std::io::error::Error> + core::marker::Send + core::marker::Sync>>"* align 8 dereferenceable(24) %_1)
          to label %bb4 unwind label %cleanup

bb4:                                              ; preds = %start
  %1 = bitcast %"alloc::vec::Vec<alloc::boxed::Box<dyn core::ops::function::FnMut() -> core::result::Result<(), std::io::error::Error> + core::marker::Send + core::marker::Sync>>"* %_1 to { i64*, i64 }*
; call core::ptr::drop_in_place<alloc::raw_vec::RawVec<alloc::boxed::Box<dyn core::ops::function::FnMut<()>+Output = core::result::Result<(),std::io::error::Error>+core::marker::Send+core::marker::Sync>>>
  call void @"_ZN4core3ptr258drop_in_place$LT$alloc..raw_vec..RawVec$LT$alloc..boxed..Box$LT$dyn$u20$core..ops..function..FnMut$LT$$LP$$RP$$GT$$u2b$Output$u20$$u3d$$u20$core..result..Result$LT$$LP$$RP$$C$std..io..error..Error$GT$$u2b$core..marker..Send$u2b$core..marker..Sync$GT$$GT$$GT$17h59405dc23dc5c491E"({ i64*, i64 }* %1)
  br label %bb2

bb3:                                              ; preds = %cleanup
  %2 = bitcast %"alloc::vec::Vec<alloc::boxed::Box<dyn core::ops::function::FnMut() -> core::result::Result<(), std::io::error::Error> + core::marker::Send + core::marker::Sync>>"* %_1 to { i64*, i64 }*
; call core::ptr::drop_in_place<alloc::raw_vec::RawVec<alloc::boxed::Box<dyn core::ops::function::FnMut<()>+Output = core::result::Result<(),std::io::error::Error>+core::marker::Send+core::marker::Sync>>>
  call void @"_ZN4core3ptr258drop_in_place$LT$alloc..raw_vec..RawVec$LT$alloc..boxed..Box$LT$dyn$u20$core..ops..function..FnMut$LT$$LP$$RP$$GT$$u2b$Output$u20$$u3d$$u20$core..result..Result$LT$$LP$$RP$$C$std..io..error..Error$GT$$u2b$core..marker..Send$u2b$core..marker..Sync$GT$$GT$$GT$17h59405dc23dc5c491E"({ i64*, i64 }* %2) #18
  br label %bb1

cleanup:                                          ; preds = %start
  %3 = landingpad { i8*, i32 }
          cleanup
  %4 = extractvalue { i8*, i32 } %3, 0
  %5 = extractvalue { i8*, i32 } %3, 1
  %6 = getelementptr inbounds { i8*, i32 }, { i8*, i32 }* %0, i32 0, i32 0
  store i8* %4, i8** %6, align 8
  %7 = getelementptr inbounds { i8*, i32 }, { i8*, i32 }* %0, i32 0, i32 1
  store i32 %5, i32* %7, align 8
  br label %bb3

bb1:                                              ; preds = %bb3
  %8 = bitcast { i8*, i32 }* %0 to i8**
  %9 = load i8*, i8** %8, align 8
  %10 = getelementptr inbounds { i8*, i32 }, { i8*, i32 }* %0, i32 0, i32 1
  %11 = load i32, i32* %10, align 8
  %12 = insertvalue { i8*, i32 } undef, i8* %9, 0
  %13 = insertvalue { i8*, i32 } %12, i32 %11, 1
  resume { i8*, i32 } %13

bb2:                                              ; preds = %bb4
  ret void
}

; core::ptr::drop_in_place<alloc::raw_vec::RawVec<alloc::boxed::Box<dyn core::ops::function::FnMut<()>+Output = core::result::Result<(),std::io::error::Error>+core::marker::Send+core::marker::Sync>>>
; Function Attrs: nonlazybind uwtable
define internal void @"_ZN4core3ptr258drop_in_place$LT$alloc..raw_vec..RawVec$LT$alloc..boxed..Box$LT$dyn$u20$core..ops..function..FnMut$LT$$LP$$RP$$GT$$u2b$Output$u20$$u3d$$u20$core..result..Result$LT$$LP$$RP$$C$std..io..error..Error$GT$$u2b$core..marker..Send$u2b$core..marker..Sync$GT$$GT$$GT$17h59405dc23dc5c491E"({ i64*, i64 }* %_1) unnamed_addr #1 {
start:
; call <alloc::raw_vec::RawVec<T,A> as core::ops::drop::Drop>::drop
  call void @"_ZN77_$LT$alloc..raw_vec..RawVec$LT$T$C$A$GT$$u20$as$u20$core..ops..drop..Drop$GT$4drop17h2b34d351a6811802E"({ i64*, i64 }* align 8 dereferenceable(16) %_1)
  br label %bb1

bb1:                                              ; preds = %start
  ret void
}

; core::ptr::drop_in_place<&str>
; Function Attrs: inlinehint nonlazybind uwtable
define internal void @"_ZN4core3ptr28drop_in_place$LT$$RF$str$GT$17h41e067d0b9396e25E"({ [0 x i8]*, i64 }* %_1) unnamed_addr #0 {
start:
  ret void
}

; core::ptr::drop_in_place<std::env::VarError>
; Function Attrs: nonlazybind uwtable
define internal void @"_ZN4core3ptr39drop_in_place$LT$std..env..VarError$GT$17hbfcc06164146e7d7E"(%"std::env::VarError"* %_1) unnamed_addr #1 {
start:
  %0 = bitcast %"std::env::VarError"* %_1 to {}**
  %1 = load {}*, {}** %0, align 8
  %2 = icmp eq {}* %1, null
  %_2 = select i1 %2, i64 0, i64 1
  %3 = icmp eq i64 %_2, 0
  br i1 %3, label %bb1, label %bb2

bb1:                                              ; preds = %bb2, %start
  ret void

bb2:                                              ; preds = %start
  %4 = bitcast %"std::env::VarError"* %_1 to %"std::env::VarError::NotUnicode"*
  %5 = bitcast %"std::env::VarError::NotUnicode"* %4 to %"std::ffi::os_str::OsString"*
; call core::ptr::drop_in_place<std::ffi::os_str::OsString>
  call void @"_ZN4core3ptr47drop_in_place$LT$std..ffi..os_str..OsString$GT$17h81076ec3f81b57f3E"(%"std::ffi::os_str::OsString"* %5)
  br label %bb1
}

; core::ptr::drop_in_place<std::io::error::Repr>
; Function Attrs: nonlazybind uwtable
define internal void @"_ZN4core3ptr41drop_in_place$LT$std..io..error..Repr$GT$17h0d9cdd2aa78e8b8fE"(%"std::io::error::Repr"* %_1) unnamed_addr #1 {
start:
  %0 = bitcast %"std::io::error::Repr"* %_1 to i8*
  %1 = load i8, i8* %0, align 8, !range !12
  %_2 = zext i8 %1 to i64
  switch i64 %_2, label %bb2 [
    i64 0, label %bb1
    i64 1, label %bb1
    i64 2, label %bb1
  ]

bb2:                                              ; preds = %start
  %2 = bitcast %"std::io::error::Repr"* %_1 to %"std::io::error::Repr::Custom"*
  %3 = getelementptr inbounds %"std::io::error::Repr::Custom", %"std::io::error::Repr::Custom"* %2, i32 0, i32 1
; call core::ptr::drop_in_place<alloc::boxed::Box<std::io::error::Custom>>
  call void @"_ZN4core3ptr68drop_in_place$LT$alloc..boxed..Box$LT$std..io..error..Custom$GT$$GT$17h4eeffe9dd08bcd37E"(%"std::io::error::Custom"** %3)
  br label %bb1

bb1:                                              ; preds = %bb2, %start, %start, %start
  ret void
}

; core::ptr::drop_in_place<std::process::Output>
; Function Attrs: nonlazybind uwtable
define internal void @"_ZN4core3ptr41drop_in_place$LT$std..process..Output$GT$17ha606e035c75cbdbeE"(%"std::process::Output"* %_1) unnamed_addr #1 personality i32 (i32, i32, i64, %"unwind::libunwind::_Unwind_Exception"*, %"unwind::libunwind::_Unwind_Context"*)* @rust_eh_personality {
start:
  %0 = alloca { i8*, i32 }, align 8
  %1 = bitcast %"std::process::Output"* %_1 to %"alloc::vec::Vec<u8>"*
; invoke core::ptr::drop_in_place<alloc::vec::Vec<u8>>
  invoke void @"_ZN4core3ptr46drop_in_place$LT$alloc..vec..Vec$LT$u8$GT$$GT$17hd318e0a8248f9380E"(%"alloc::vec::Vec<u8>"* %1)
          to label %bb4 unwind label %cleanup

bb4:                                              ; preds = %start
  %2 = getelementptr inbounds %"std::process::Output", %"std::process::Output"* %_1, i32 0, i32 1
; call core::ptr::drop_in_place<alloc::vec::Vec<u8>>
  call void @"_ZN4core3ptr46drop_in_place$LT$alloc..vec..Vec$LT$u8$GT$$GT$17hd318e0a8248f9380E"(%"alloc::vec::Vec<u8>"* %2)
  br label %bb2

bb3:                                              ; preds = %cleanup
  %3 = getelementptr inbounds %"std::process::Output", %"std::process::Output"* %_1, i32 0, i32 1
; call core::ptr::drop_in_place<alloc::vec::Vec<u8>>
  call void @"_ZN4core3ptr46drop_in_place$LT$alloc..vec..Vec$LT$u8$GT$$GT$17hd318e0a8248f9380E"(%"alloc::vec::Vec<u8>"* %3) #18
  br label %bb1

cleanup:                                          ; preds = %start
  %4 = landingpad { i8*, i32 }
          cleanup
  %5 = extractvalue { i8*, i32 } %4, 0
  %6 = extractvalue { i8*, i32 } %4, 1
  %7 = getelementptr inbounds { i8*, i32 }, { i8*, i32 }* %0, i32 0, i32 0
  store i8* %5, i8** %7, align 8
  %8 = getelementptr inbounds { i8*, i32 }, { i8*, i32 }* %0, i32 0, i32 1
  store i32 %6, i32* %8, align 8
  br label %bb3

bb1:                                              ; preds = %bb3
  %9 = bitcast { i8*, i32 }* %0 to i8**
  %10 = load i8*, i8** %9, align 8
  %11 = getelementptr inbounds { i8*, i32 }, { i8*, i32 }* %0, i32 0, i32 1
  %12 = load i32, i32* %11, align 8
  %13 = insertvalue { i8*, i32 } undef, i8* %10, 0
  %14 = insertvalue { i8*, i32 } %13, i32 %12, 1
  resume { i8*, i32 } %14

bb2:                                              ; preds = %bb4
  ret void
}

; core::ptr::drop_in_place<alloc::string::String>
; Function Attrs: nonlazybind uwtable
define internal void @"_ZN4core3ptr42drop_in_place$LT$alloc..string..String$GT$17h5313a1f9b243016fE"(%"alloc::string::String"* %_1) unnamed_addr #1 {
start:
  %0 = bitcast %"alloc::string::String"* %_1 to %"alloc::vec::Vec<u8>"*
; call core::ptr::drop_in_place<alloc::vec::Vec<u8>>
  call void @"_ZN4core3ptr46drop_in_place$LT$alloc..vec..Vec$LT$u8$GT$$GT$17hd318e0a8248f9380E"(%"alloc::vec::Vec<u8>"* %0)
  br label %bb1

bb1:                                              ; preds = %start
  ret void
}

; core::ptr::drop_in_place<std::io::error::Error>
; Function Attrs: nonlazybind uwtable
define internal void @"_ZN4core3ptr42drop_in_place$LT$std..io..error..Error$GT$17ha89061d76eac9c67E"(%"std::io::error::Error"* %_1) unnamed_addr #1 {
start:
  %0 = bitcast %"std::io::error::Error"* %_1 to %"std::io::error::Repr"*
; call core::ptr::drop_in_place<std::io::error::Repr>
  call void @"_ZN4core3ptr41drop_in_place$LT$std..io..error..Repr$GT$17h0d9cdd2aa78e8b8fE"(%"std::io::error::Repr"* %0)
  br label %bb1

bb1:                                              ; preds = %start
  ret void
}

; core::ptr::drop_in_place<std::process::Command>
; Function Attrs: nonlazybind uwtable
define internal void @"_ZN4core3ptr42drop_in_place$LT$std..process..Command$GT$17hd0b2ce2ff1f03592E"(%"std::process::Command"* %_1) unnamed_addr #1 {
start:
  %0 = bitcast %"std::process::Command"* %_1 to %"std::sys::unix::process::process_common::Command"*
; call core::ptr::drop_in_place<std::sys::unix::process::process_common::Command>
  call void @"_ZN4core3ptr69drop_in_place$LT$std..sys..unix..process..process_common..Command$GT$17h78c90304669db88cE"(%"std::sys::unix::process::process_common::Command"* %0)
  br label %bb1

bb1:                                              ; preds = %start
  ret void
}

; core::ptr::drop_in_place<std::io::error::Custom>
; Function Attrs: nonlazybind uwtable
define internal void @"_ZN4core3ptr43drop_in_place$LT$std..io..error..Custom$GT$17hf5269d302d002e13E"(%"std::io::error::Custom"* %_1) unnamed_addr #1 {
start:
  %0 = bitcast %"std::io::error::Custom"* %_1 to { {}*, [3 x i64]* }*
; call core::ptr::drop_in_place<alloc::boxed::Box<dyn std::error::Error+core::marker::Send+core::marker::Sync>>
  call void @"_ZN4core3ptr117drop_in_place$LT$alloc..boxed..Box$LT$dyn$u20$std..error..Error$u2b$core..marker..Send$u2b$core..marker..Sync$GT$$GT$17h8eaa64c023bd8cb5E"({ {}*, [3 x i64]* }* %0)
  br label %bb1

bb1:                                              ; preds = %start
  ret void
}

; core::ptr::drop_in_place<std::ffi::c_str::CString>
; Function Attrs: nonlazybind uwtable
define internal void @"_ZN4core3ptr45drop_in_place$LT$std..ffi..c_str..CString$GT$17hd387a0f5b6898ba7E"({ i8*, i64 }* %_1) unnamed_addr #1 personality i32 (i32, i32, i64, %"unwind::libunwind::_Unwind_Exception"*, %"unwind::libunwind::_Unwind_Context"*)* @rust_eh_personality {
start:
  %0 = alloca { i8*, i32 }, align 8
; invoke <std::ffi::c_str::CString as core::ops::drop::Drop>::drop
  invoke void @"_ZN66_$LT$std..ffi..c_str..CString$u20$as$u20$core..ops..drop..Drop$GT$4drop17h2c521be26069c387E"({ i8*, i64 }* align 8 dereferenceable(16) %_1)
          to label %bb4 unwind label %cleanup

bb4:                                              ; preds = %start
  %1 = bitcast { i8*, i64 }* %_1 to { [0 x i8]*, i64 }*
; call core::ptr::drop_in_place<alloc::boxed::Box<[u8]>>
  call void @"_ZN4core3ptr58drop_in_place$LT$alloc..boxed..Box$LT$$u5b$u8$u5d$$GT$$GT$17hd250bdcf689e3643E"({ [0 x i8]*, i64 }* %1)
  br label %bb2

bb3:                                              ; preds = %cleanup
  %2 = bitcast { i8*, i64 }* %_1 to { [0 x i8]*, i64 }*
; call core::ptr::drop_in_place<alloc::boxed::Box<[u8]>>
  call void @"_ZN4core3ptr58drop_in_place$LT$alloc..boxed..Box$LT$$u5b$u8$u5d$$GT$$GT$17hd250bdcf689e3643E"({ [0 x i8]*, i64 }* %2) #18
  br label %bb1

cleanup:                                          ; preds = %start
  %3 = landingpad { i8*, i32 }
          cleanup
  %4 = extractvalue { i8*, i32 } %3, 0
  %5 = extractvalue { i8*, i32 } %3, 1
  %6 = getelementptr inbounds { i8*, i32 }, { i8*, i32 }* %0, i32 0, i32 0
  store i8* %4, i8** %6, align 8
  %7 = getelementptr inbounds { i8*, i32 }, { i8*, i32 }* %0, i32 0, i32 1
  store i32 %5, i32* %7, align 8
  br label %bb3

bb1:                                              ; preds = %bb3
  %8 = bitcast { i8*, i32 }* %0 to i8**
  %9 = load i8*, i8** %8, align 8
  %10 = getelementptr inbounds { i8*, i32 }, { i8*, i32 }* %0, i32 0, i32 1
  %11 = load i32, i32* %10, align 8
  %12 = insertvalue { i8*, i32 } undef, i8* %9, 0
  %13 = insertvalue { i8*, i32 } %12, i32 %11, 1
  resume { i8*, i32 } %13

bb2:                                              ; preds = %bb4
  ret void
}

; core::ptr::drop_in_place<alloc::vec::Vec<u8>>
; Function Attrs: nonlazybind uwtable
define internal void @"_ZN4core3ptr46drop_in_place$LT$alloc..vec..Vec$LT$u8$GT$$GT$17hd318e0a8248f9380E"(%"alloc::vec::Vec<u8>"* %_1) unnamed_addr #1 personality i32 (i32, i32, i64, %"unwind::libunwind::_Unwind_Exception"*, %"unwind::libunwind::_Unwind_Context"*)* @rust_eh_personality {
start:
  %0 = alloca { i8*, i32 }, align 8
; invoke <alloc::vec::Vec<T,A> as core::ops::drop::Drop>::drop
  invoke void @"_ZN70_$LT$alloc..vec..Vec$LT$T$C$A$GT$$u20$as$u20$core..ops..drop..Drop$GT$4drop17h526622f28c2d911dE"(%"alloc::vec::Vec<u8>"* align 8 dereferenceable(24) %_1)
          to label %bb4 unwind label %cleanup

bb4:                                              ; preds = %start
  %1 = bitcast %"alloc::vec::Vec<u8>"* %_1 to { i8*, i64 }*
; call core::ptr::drop_in_place<alloc::raw_vec::RawVec<u8>>
  call void @"_ZN4core3ptr53drop_in_place$LT$alloc..raw_vec..RawVec$LT$u8$GT$$GT$17ha14d0e644848eb2aE"({ i8*, i64 }* %1)
  br label %bb2

bb3:                                              ; preds = %cleanup
  %2 = bitcast %"alloc::vec::Vec<u8>"* %_1 to { i8*, i64 }*
; call core::ptr::drop_in_place<alloc::raw_vec::RawVec<u8>>
  call void @"_ZN4core3ptr53drop_in_place$LT$alloc..raw_vec..RawVec$LT$u8$GT$$GT$17ha14d0e644848eb2aE"({ i8*, i64 }* %2) #18
  br label %bb1

cleanup:                                          ; preds = %start
  %3 = landingpad { i8*, i32 }
          cleanup
  %4 = extractvalue { i8*, i32 } %3, 0
  %5 = extractvalue { i8*, i32 } %3, 1
  %6 = getelementptr inbounds { i8*, i32 }, { i8*, i32 }* %0, i32 0, i32 0
  store i8* %4, i8** %6, align 8
  %7 = getelementptr inbounds { i8*, i32 }, { i8*, i32 }* %0, i32 0, i32 1
  store i32 %5, i32* %7, align 8
  br label %bb3

bb1:                                              ; preds = %bb3
  %8 = bitcast { i8*, i32 }* %0 to i8**
  %9 = load i8*, i8** %8, align 8
  %10 = getelementptr inbounds { i8*, i32 }, { i8*, i32 }* %0, i32 0, i32 1
  %11 = load i32, i32* %10, align 8
  %12 = insertvalue { i8*, i32 } undef, i8* %9, 0
  %13 = insertvalue { i8*, i32 } %12, i32 %11, 1
  resume { i8*, i32 } %13

bb2:                                              ; preds = %bb4
  ret void
}

; core::ptr::drop_in_place<std::ffi::os_str::OsString>
; Function Attrs: nonlazybind uwtable
define internal void @"_ZN4core3ptr47drop_in_place$LT$std..ffi..os_str..OsString$GT$17h81076ec3f81b57f3E"(%"std::ffi::os_str::OsString"* %_1) unnamed_addr #1 {
start:
  %0 = bitcast %"std::ffi::os_str::OsString"* %_1 to %"std::sys::unix::os_str::Buf"*
; call core::ptr::drop_in_place<std::sys::unix::os_str::Buf>
  call void @"_ZN4core3ptr48drop_in_place$LT$std..sys..unix..os_str..Buf$GT$17h2a32ee185cd05b71E"(%"std::sys::unix::os_str::Buf"* %0)
  br label %bb1

bb1:                                              ; preds = %start
  ret void
}

; core::ptr::drop_in_place<std::os::fd::owned::OwnedFd>
; Function Attrs: nonlazybind uwtable
define internal void @"_ZN4core3ptr48drop_in_place$LT$std..os..fd..owned..OwnedFd$GT$17h05f013909f158bd8E"(i32* %_1) unnamed_addr #1 {
start:
; call <std::os::fd::owned::OwnedFd as core::ops::drop::Drop>::drop
  call void @"_ZN69_$LT$std..os..fd..owned..OwnedFd$u20$as$u20$core..ops..drop..Drop$GT$4drop17hb0ed3710bd307834E"(i32* align 4 dereferenceable(4) %_1)
  br label %bb1

bb1:                                              ; preds = %start
  ret void
}

; core::ptr::drop_in_place<std::sys::unix::os_str::Buf>
; Function Attrs: nonlazybind uwtable
define internal void @"_ZN4core3ptr48drop_in_place$LT$std..sys..unix..os_str..Buf$GT$17h2a32ee185cd05b71E"(%"std::sys::unix::os_str::Buf"* %_1) unnamed_addr #1 {
start:
  %0 = bitcast %"std::sys::unix::os_str::Buf"* %_1 to %"alloc::vec::Vec<u8>"*
; call core::ptr::drop_in_place<alloc::vec::Vec<u8>>
  call void @"_ZN4core3ptr46drop_in_place$LT$alloc..vec..Vec$LT$u8$GT$$GT$17hd318e0a8248f9380E"(%"alloc::vec::Vec<u8>"* %0)
  br label %bb1

bb1:                                              ; preds = %start
  ret void
}

; core::ptr::drop_in_place<alloc::string::FromUtf8Error>
; Function Attrs: nonlazybind uwtable
define internal void @"_ZN4core3ptr49drop_in_place$LT$alloc..string..FromUtf8Error$GT$17h39534005df4e90cfE"(%"alloc::string::FromUtf8Error"* %_1) unnamed_addr #1 {
start:
  %0 = bitcast %"alloc::string::FromUtf8Error"* %_1 to %"alloc::vec::Vec<u8>"*
; call core::ptr::drop_in_place<alloc::vec::Vec<u8>>
  call void @"_ZN4core3ptr46drop_in_place$LT$alloc..vec..Vec$LT$u8$GT$$GT$17hd318e0a8248f9380E"(%"alloc::vec::Vec<u8>"* %0)
  br label %bb1

bb1:                                              ; preds = %start
  ret void
}

; core::ptr::drop_in_place<std::sys::unix::fd::FileDesc>
; Function Attrs: nonlazybind uwtable
define internal void @"_ZN4core3ptr49drop_in_place$LT$std..sys..unix..fd..FileDesc$GT$17hbc51807fc5656399E"(i32* %_1) unnamed_addr #1 {
start:
; call core::ptr::drop_in_place<std::os::fd::owned::OwnedFd>
  call void @"_ZN4core3ptr48drop_in_place$LT$std..os..fd..owned..OwnedFd$GT$17h05f013909f158bd8E"(i32* %_1)
  br label %bb1

bb1:                                              ; preds = %start
  ret void
}

; core::ptr::read
; Function Attrs: inlinehint nonlazybind uwtable
define internal { i64, i64* } @_ZN4core3ptr4read17h17ff3459cbef0bbeE({ i64, i64* }* %src) unnamed_addr #0 {
start:
  %0 = alloca { i64, i8* }, align 8
  %tmp = alloca { i64, i8* }, align 8
  %1 = bitcast { i64, i8* }* %0 to {}*
  %2 = getelementptr inbounds { i64, i8* }, { i64, i8* }* %0, i32 0, i32 0
  %3 = load i64, i64* %2, align 8
  %4 = getelementptr inbounds { i64, i8* }, { i64, i8* }* %0, i32 0, i32 1
  %5 = load i8*, i8** %4, align 8
  %6 = insertvalue { i64, i8* } undef, i64 %3, 0
  %7 = insertvalue { i64, i8* } %6, i8* %5, 1
  store { i64, i8* } %7, { i64, i8* }* %tmp, align 8
  br label %bb1

bb1:                                              ; preds = %start
  %8 = bitcast { i64, i8* }* %tmp to { i64, i64* }*
  br label %bb2

bb2:                                              ; preds = %bb1
  %9 = bitcast { i64, i64* }* %8 to i8*
  %10 = bitcast { i64, i64* }* %src to i8*
  call void @llvm.memcpy.p0i8.p0i8.i64(i8* align 8 %9, i8* align 8 %10, i64 16, i1 false)
  %11 = getelementptr inbounds { i64, i8* }, { i64, i8* }* %tmp, i32 0, i32 0
  %_6.0 = load i64, i64* %11, align 8
  %12 = getelementptr inbounds { i64, i8* }, { i64, i8* }* %tmp, i32 0, i32 1
  %_6.1 = load i8*, i8** %12, align 8
  %_3.1.i = bitcast i8* %_6.1 to i64*
  %13 = insertvalue { i64, i64* } undef, i64 %_6.0, 0
  %14 = insertvalue { i64, i64* } %13, i64* %_3.1.i, 1
  %15 = extractvalue { i64, i64* } %14, 0
  %16 = extractvalue { i64, i64* } %14, 1
  %17 = extractvalue { i64, i64* } %14, 0
  %18 = extractvalue { i64, i64* } %14, 1
  br label %bb3

bb3:                                              ; preds = %bb2
  %19 = insertvalue { i64, i64* } undef, i64 %17, 0
  %20 = insertvalue { i64, i64* } %19, i64* %18, 1
  ret { i64, i64* } %20
}

; core::ptr::read
; Function Attrs: inlinehint nonlazybind uwtable
define internal { i8*, i64 } @_ZN4core3ptr4read17h48c24e568b57fb75E({ i8*, i64 }* %src) unnamed_addr #0 {
start:
  %0 = alloca { i8*, i64 }, align 8
  %tmp = alloca { i8*, i64 }, align 8
  %1 = bitcast { i8*, i64 }* %0 to {}*
  %2 = getelementptr inbounds { i8*, i64 }, { i8*, i64 }* %0, i32 0, i32 0
  %3 = load i8*, i8** %2, align 8
  %4 = getelementptr inbounds { i8*, i64 }, { i8*, i64 }* %0, i32 0, i32 1
  %5 = load i64, i64* %4, align 8
  %6 = insertvalue { i8*, i64 } undef, i8* %3, 0
  %7 = insertvalue { i8*, i64 } %6, i64 %5, 1
  store { i8*, i64 } %7, { i8*, i64 }* %tmp, align 8
  br label %bb1

bb1:                                              ; preds = %start
  br label %bb2

bb2:                                              ; preds = %bb1
  %8 = bitcast { i8*, i64 }* %tmp to i8*
  %9 = bitcast { i8*, i64 }* %src to i8*
  call void @llvm.memcpy.p0i8.p0i8.i64(i8* align 8 %8, i8* align 8 %9, i64 16, i1 false)
  %10 = getelementptr inbounds { i8*, i64 }, { i8*, i64 }* %tmp, i32 0, i32 0
  %_6.0 = load i8*, i8** %10, align 8
  %11 = getelementptr inbounds { i8*, i64 }, { i8*, i64 }* %tmp, i32 0, i32 1
  %_6.1 = load i64, i64* %11, align 8
  %12 = insertvalue { i8*, i64 } undef, i8* %_6.0, 0
  %13 = insertvalue { i8*, i64 } %12, i64 %_6.1, 1
  %14 = extractvalue { i8*, i64 } %13, 0
  %15 = extractvalue { i8*, i64 } %13, 1
  %16 = extractvalue { i8*, i64 } %13, 0
  %17 = extractvalue { i8*, i64 } %13, 1
  br label %bb3

bb3:                                              ; preds = %bb2
  %18 = insertvalue { i8*, i64 } undef, i8* %16, 0
  %19 = insertvalue { i8*, i64 } %18, i64 %17, 1
  ret { i8*, i64 } %19
}

; core::ptr::read
; Function Attrs: inlinehint nonlazybind uwtable
define internal { i64, i64* } @_ZN4core3ptr4read17h53e136638814dca8E({ i64, i64* }* %src) unnamed_addr #0 {
start:
  %0 = alloca { i64, i8* }, align 8
  %tmp = alloca { i64, i8* }, align 8
  %1 = bitcast { i64, i8* }* %0 to {}*
  %2 = getelementptr inbounds { i64, i8* }, { i64, i8* }* %0, i32 0, i32 0
  %3 = load i64, i64* %2, align 8
  %4 = getelementptr inbounds { i64, i8* }, { i64, i8* }* %0, i32 0, i32 1
  %5 = load i8*, i8** %4, align 8
  %6 = insertvalue { i64, i8* } undef, i64 %3, 0
  %7 = insertvalue { i64, i8* } %6, i8* %5, 1
  store { i64, i8* } %7, { i64, i8* }* %tmp, align 8
  br label %bb1

bb1:                                              ; preds = %start
  %8 = bitcast { i64, i8* }* %tmp to { i64, i64* }*
  br label %bb2

bb2:                                              ; preds = %bb1
  %9 = bitcast { i64, i64* }* %8 to i8*
  %10 = bitcast { i64, i64* }* %src to i8*
  call void @llvm.memcpy.p0i8.p0i8.i64(i8* align 8 %9, i8* align 8 %10, i64 16, i1 false)
  %11 = getelementptr inbounds { i64, i8* }, { i64, i8* }* %tmp, i32 0, i32 0
  %_6.0 = load i64, i64* %11, align 8
  %12 = getelementptr inbounds { i64, i8* }, { i64, i8* }* %tmp, i32 0, i32 1
  %_6.1 = load i8*, i8** %12, align 8
  %_3.1.i = bitcast i8* %_6.1 to i64*
  %13 = insertvalue { i64, i64* } undef, i64 %_6.0, 0
  %14 = insertvalue { i64, i64* } %13, i64* %_3.1.i, 1
  %15 = extractvalue { i64, i64* } %14, 0
  %16 = extractvalue { i64, i64* } %14, 1
  %17 = extractvalue { i64, i64* } %14, 0
  %18 = extractvalue { i64, i64* } %14, 1
  br label %bb3

bb3:                                              ; preds = %bb2
  %19 = insertvalue { i64, i64* } undef, i64 %17, 0
  %20 = insertvalue { i64, i64* } %19, i64* %18, 1
  ret { i64, i64* } %20
}

; core::ptr::read
; Function Attrs: inlinehint nonlazybind uwtable
define internal i64 @_ZN4core3ptr4read17h7fea044783768356E(i64* %src) unnamed_addr #0 {
start:
  %0 = alloca i64, align 8
  %tmp = alloca i64, align 8
  %1 = bitcast i64* %0 to {}*
  %2 = load i64, i64* %0, align 8
  store i64 %2, i64* %tmp, align 8
  br label %bb1

bb1:                                              ; preds = %start
  br label %bb2

bb2:                                              ; preds = %bb1
  %3 = bitcast i64* %tmp to i8*
  %4 = bitcast i64* %src to i8*
  call void @llvm.memcpy.p0i8.p0i8.i64(i8* align 8 %3, i8* align 8 %4, i64 8, i1 false)
  %_6 = load i64, i64* %tmp, align 8
  br label %bb3

bb3:                                              ; preds = %bb2
  ret i64 %_6
}

; core::ptr::read
; Function Attrs: inlinehint nonlazybind uwtable
define internal nonnull i64* @_ZN4core3ptr4read17h91d670b15322531fE(i64** %src) unnamed_addr #0 {
start:
  %0 = alloca i8*, align 8
  %tmp = alloca i8*, align 8
  %1 = bitcast i8** %0 to {}*
  %2 = load i8*, i8** %0, align 8
  store i8* %2, i8** %tmp, align 8
  br label %bb1

bb1:                                              ; preds = %start
  %3 = bitcast i8** %tmp to i64**
  br label %bb2

bb2:                                              ; preds = %bb1
  %4 = bitcast i64** %3 to i8*
  %5 = bitcast i64** %src to i8*
  call void @llvm.memcpy.p0i8.p0i8.i64(i8* align 8 %4, i8* align 8 %5, i64 8, i1 false)
  %_6 = load i8*, i8** %tmp, align 8
  %_3.i = bitcast i8* %_6 to i64*
  br label %bb3

bb3:                                              ; preds = %bb2
  ret i64* %_3.i
}

; core::ptr::read
; Function Attrs: inlinehint nonlazybind uwtable
define internal void @_ZN4core3ptr4read17ha7b264cfdda64225E(%"core::option::Option<alloc::collections::btree::navigate::LazyLeafHandle<alloc::collections::btree::node::marker::Dying, std::ffi::os_str::OsString, core::option::Option<std::ffi::os_str::OsString>>>"* noalias nocapture sret(%"core::option::Option<alloc::collections::btree::navigate::LazyLeafHandle<alloc::collections::btree::node::marker::Dying, std::ffi::os_str::OsString, core::option::Option<std::ffi::os_str::OsString>>>") dereferenceable(32) %0, %"core::option::Option<alloc::collections::btree::navigate::LazyLeafHandle<alloc::collections::btree::node::marker::Dying, std::ffi::os_str::OsString, core::option::Option<std::ffi::os_str::OsString>>>"* %src) unnamed_addr #0 {
start:
  %_3.i = alloca %"core::mem::manually_drop::ManuallyDrop<core::option::Option<alloc::collections::btree::navigate::LazyLeafHandle<alloc::collections::btree::node::marker::Dying, std::ffi::os_str::OsString, core::option::Option<std::ffi::os_str::OsString>>>>", align 8
  %_6 = alloca %"core::mem::maybe_uninit::MaybeUninit<core::option::Option<alloc::collections::btree::navigate::LazyLeafHandle<alloc::collections::btree::node::marker::Dying, std::ffi::os_str::OsString, core::option::Option<std::ffi::os_str::OsString>>>>", align 8
  %tmp = alloca %"core::mem::maybe_uninit::MaybeUninit<core::option::Option<alloc::collections::btree::navigate::LazyLeafHandle<alloc::collections::btree::node::marker::Dying, std::ffi::os_str::OsString, core::option::Option<std::ffi::os_str::OsString>>>>", align 8
  call void @llvm.experimental.noalias.scope.decl(metadata !13)
  %1 = bitcast %"core::mem::maybe_uninit::MaybeUninit<core::option::Option<alloc::collections::btree::navigate::LazyLeafHandle<alloc::collections::btree::node::marker::Dying, std::ffi::os_str::OsString, core::option::Option<std::ffi::os_str::OsString>>>>"* %tmp to {}*
  br label %bb1

bb1:                                              ; preds = %start
  %2 = bitcast %"core::mem::maybe_uninit::MaybeUninit<core::option::Option<alloc::collections::btree::navigate::LazyLeafHandle<alloc::collections::btree::node::marker::Dying, std::ffi::os_str::OsString, core::option::Option<std::ffi::os_str::OsString>>>>"* %tmp to %"core::option::Option<alloc::collections::btree::navigate::LazyLeafHandle<alloc::collections::btree::node::marker::Dying, std::ffi::os_str::OsString, core::option::Option<std::ffi::os_str::OsString>>>"*
  br label %bb2

bb2:                                              ; preds = %bb1
  %3 = bitcast %"core::option::Option<alloc::collections::btree::navigate::LazyLeafHandle<alloc::collections::btree::node::marker::Dying, std::ffi::os_str::OsString, core::option::Option<std::ffi::os_str::OsString>>>"* %2 to i8*
  %4 = bitcast %"core::option::Option<alloc::collections::btree::navigate::LazyLeafHandle<alloc::collections::btree::node::marker::Dying, std::ffi::os_str::OsString, core::option::Option<std::ffi::os_str::OsString>>>"* %src to i8*
  call void @llvm.memcpy.p0i8.p0i8.i64(i8* align 8 %3, i8* align 8 %4, i64 32, i1 false)
  %5 = bitcast %"core::mem::maybe_uninit::MaybeUninit<core::option::Option<alloc::collections::btree::navigate::LazyLeafHandle<alloc::collections::btree::node::marker::Dying, std::ffi::os_str::OsString, core::option::Option<std::ffi::os_str::OsString>>>>"* %_6 to i8*
  %6 = bitcast %"core::mem::maybe_uninit::MaybeUninit<core::option::Option<alloc::collections::btree::navigate::LazyLeafHandle<alloc::collections::btree::node::marker::Dying, std::ffi::os_str::OsString, core::option::Option<std::ffi::os_str::OsString>>>>"* %tmp to i8*
  call void @llvm.memcpy.p0i8.p0i8.i64(i8* align 8 %5, i8* align 8 %6, i64 32, i1 false)
  call void @llvm.experimental.noalias.scope.decl(metadata !16)
  call void @llvm.experimental.noalias.scope.decl(metadata !19)
  %7 = bitcast %"core::mem::maybe_uninit::MaybeUninit<core::option::Option<alloc::collections::btree::navigate::LazyLeafHandle<alloc::collections::btree::node::marker::Dying, std::ffi::os_str::OsString, core::option::Option<std::ffi::os_str::OsString>>>>"* %_6 to %"core::mem::manually_drop::ManuallyDrop<core::option::Option<alloc::collections::btree::navigate::LazyLeafHandle<alloc::collections::btree::node::marker::Dying, std::ffi::os_str::OsString, core::option::Option<std::ffi::os_str::OsString>>>>"*
  %8 = bitcast %"core::mem::manually_drop::ManuallyDrop<core::option::Option<alloc::collections::btree::navigate::LazyLeafHandle<alloc::collections::btree::node::marker::Dying, std::ffi::os_str::OsString, core::option::Option<std::ffi::os_str::OsString>>>>"* %_3.i to i8*
  %9 = bitcast %"core::mem::manually_drop::ManuallyDrop<core::option::Option<alloc::collections::btree::navigate::LazyLeafHandle<alloc::collections::btree::node::marker::Dying, std::ffi::os_str::OsString, core::option::Option<std::ffi::os_str::OsString>>>>"* %7 to i8*
  call void @llvm.memcpy.p0i8.p0i8.i64(i8* align 8 %8, i8* align 8 %9, i64 32, i1 false), !noalias !16
  call void @llvm.experimental.noalias.scope.decl(metadata !21)
  call void @llvm.experimental.noalias.scope.decl(metadata !24)
  %10 = bitcast %"core::mem::manually_drop::ManuallyDrop<core::option::Option<alloc::collections::btree::navigate::LazyLeafHandle<alloc::collections::btree::node::marker::Dying, std::ffi::os_str::OsString, core::option::Option<std::ffi::os_str::OsString>>>>"* %_3.i to %"core::option::Option<alloc::collections::btree::navigate::LazyLeafHandle<alloc::collections::btree::node::marker::Dying, std::ffi::os_str::OsString, core::option::Option<std::ffi::os_str::OsString>>>"*
  %11 = bitcast %"core::option::Option<alloc::collections::btree::navigate::LazyLeafHandle<alloc::collections::btree::node::marker::Dying, std::ffi::os_str::OsString, core::option::Option<std::ffi::os_str::OsString>>>"* %0 to i8*
  %12 = bitcast %"core::option::Option<alloc::collections::btree::navigate::LazyLeafHandle<alloc::collections::btree::node::marker::Dying, std::ffi::os_str::OsString, core::option::Option<std::ffi::os_str::OsString>>>"* %10 to i8*
  call void @llvm.memcpy.p0i8.p0i8.i64(i8* align 8 %11, i8* align 8 %12, i64 32, i1 false), !alias.scope !26, !noalias !19
  br label %bb3

bb3:                                              ; preds = %bb2
  ret void
}

; core::ptr::read
; Function Attrs: inlinehint nonlazybind uwtable
define internal void @_ZN4core3ptr4read17haabc90bcfbc9ef3dE(%"alloc::collections::btree::node::Handle<alloc::collections::btree::node::NodeRef<alloc::collections::btree::node::marker::Dying, std::ffi::os_str::OsString, core::option::Option<std::ffi::os_str::OsString>, alloc::collections::btree::node::marker::Leaf>, alloc::collections::btree::node::marker::Edge>"* noalias nocapture sret(%"alloc::collections::btree::node::Handle<alloc::collections::btree::node::NodeRef<alloc::collections::btree::node::marker::Dying, std::ffi::os_str::OsString, core::option::Option<std::ffi::os_str::OsString>, alloc::collections::btree::node::marker::Leaf>, alloc::collections::btree::node::marker::Edge>") dereferenceable(24) %0, %"alloc::collections::btree::node::Handle<alloc::collections::btree::node::NodeRef<alloc::collections::btree::node::marker::Dying, std::ffi::os_str::OsString, core::option::Option<std::ffi::os_str::OsString>, alloc::collections::btree::node::marker::Leaf>, alloc::collections::btree::node::marker::Edge>"* %src) unnamed_addr #0 {
start:
  %_3.i = alloca %"core::mem::manually_drop::ManuallyDrop<alloc::collections::btree::node::Handle<alloc::collections::btree::node::NodeRef<alloc::collections::btree::node::marker::Dying, std::ffi::os_str::OsString, core::option::Option<std::ffi::os_str::OsString>, alloc::collections::btree::node::marker::Leaf>, alloc::collections::btree::node::marker::Edge>>", align 8
  %_6 = alloca %"core::mem::maybe_uninit::MaybeUninit<alloc::collections::btree::node::Handle<alloc::collections::btree::node::NodeRef<alloc::collections::btree::node::marker::Dying, std::ffi::os_str::OsString, core::option::Option<std::ffi::os_str::OsString>, alloc::collections::btree::node::marker::Leaf>, alloc::collections::btree::node::marker::Edge>>", align 8
  %tmp = alloca %"core::mem::maybe_uninit::MaybeUninit<alloc::collections::btree::node::Handle<alloc::collections::btree::node::NodeRef<alloc::collections::btree::node::marker::Dying, std::ffi::os_str::OsString, core::option::Option<std::ffi::os_str::OsString>, alloc::collections::btree::node::marker::Leaf>, alloc::collections::btree::node::marker::Edge>>", align 8
  call void @llvm.experimental.noalias.scope.decl(metadata !27)
  %1 = bitcast %"core::mem::maybe_uninit::MaybeUninit<alloc::collections::btree::node::Handle<alloc::collections::btree::node::NodeRef<alloc::collections::btree::node::marker::Dying, std::ffi::os_str::OsString, core::option::Option<std::ffi::os_str::OsString>, alloc::collections::btree::node::marker::Leaf>, alloc::collections::btree::node::marker::Edge>>"* %tmp to {}*
  br label %bb1

bb1:                                              ; preds = %start
  %2 = bitcast %"core::mem::maybe_uninit::MaybeUninit<alloc::collections::btree::node::Handle<alloc::collections::btree::node::NodeRef<alloc::collections::btree::node::marker::Dying, std::ffi::os_str::OsString, core::option::Option<std::ffi::os_str::OsString>, alloc::collections::btree::node::marker::Leaf>, alloc::collections::btree::node::marker::Edge>>"* %tmp to %"alloc::collections::btree::node::Handle<alloc::collections::btree::node::NodeRef<alloc::collections::btree::node::marker::Dying, std::ffi::os_str::OsString, core::option::Option<std::ffi::os_str::OsString>, alloc::collections::btree::node::marker::Leaf>, alloc::collections::btree::node::marker::Edge>"*
  br label %bb2

bb2:                                              ; preds = %bb1
  %3 = bitcast %"alloc::collections::btree::node::Handle<alloc::collections::btree::node::NodeRef<alloc::collections::btree::node::marker::Dying, std::ffi::os_str::OsString, core::option::Option<std::ffi::os_str::OsString>, alloc::collections::btree::node::marker::Leaf>, alloc::collections::btree::node::marker::Edge>"* %2 to i8*
  %4 = bitcast %"alloc::collections::btree::node::Handle<alloc::collections::btree::node::NodeRef<alloc::collections::btree::node::marker::Dying, std::ffi::os_str::OsString, core::option::Option<std::ffi::os_str::OsString>, alloc::collections::btree::node::marker::Leaf>, alloc::collections::btree::node::marker::Edge>"* %src to i8*
  call void @llvm.memcpy.p0i8.p0i8.i64(i8* align 8 %3, i8* align 8 %4, i64 24, i1 false)
  %5 = bitcast %"core::mem::maybe_uninit::MaybeUninit<alloc::collections::btree::node::Handle<alloc::collections::btree::node::NodeRef<alloc::collections::btree::node::marker::Dying, std::ffi::os_str::OsString, core::option::Option<std::ffi::os_str::OsString>, alloc::collections::btree::node::marker::Leaf>, alloc::collections::btree::node::marker::Edge>>"* %_6 to i8*
  %6 = bitcast %"core::mem::maybe_uninit::MaybeUninit<alloc::collections::btree::node::Handle<alloc::collections::btree::node::NodeRef<alloc::collections::btree::node::marker::Dying, std::ffi::os_str::OsString, core::option::Option<std::ffi::os_str::OsString>, alloc::collections::btree::node::marker::Leaf>, alloc::collections::btree::node::marker::Edge>>"* %tmp to i8*
  call void @llvm.memcpy.p0i8.p0i8.i64(i8* align 8 %5, i8* align 8 %6, i64 24, i1 false)
  call void @llvm.experimental.noalias.scope.decl(metadata !30)
  call void @llvm.experimental.noalias.scope.decl(metadata !33)
  %7 = bitcast %"core::mem::maybe_uninit::MaybeUninit<alloc::collections::btree::node::Handle<alloc::collections::btree::node::NodeRef<alloc::collections::btree::node::marker::Dying, std::ffi::os_str::OsString, core::option::Option<std::ffi::os_str::OsString>, alloc::collections::btree::node::marker::Leaf>, alloc::collections::btree::node::marker::Edge>>"* %_6 to %"core::mem::manually_drop::ManuallyDrop<alloc::collections::btree::node::Handle<alloc::collections::btree::node::NodeRef<alloc::collections::btree::node::marker::Dying, std::ffi::os_str::OsString, core::option::Option<std::ffi::os_str::OsString>, alloc::collections::btree::node::marker::Leaf>, alloc::collections::btree::node::marker::Edge>>"*
  %8 = bitcast %"core::mem::manually_drop::ManuallyDrop<alloc::collections::btree::node::Handle<alloc::collections::btree::node::NodeRef<alloc::collections::btree::node::marker::Dying, std::ffi::os_str::OsString, core::option::Option<std::ffi::os_str::OsString>, alloc::collections::btree::node::marker::Leaf>, alloc::collections::btree::node::marker::Edge>>"* %_3.i to i8*
  %9 = bitcast %"core::mem::manually_drop::ManuallyDrop<alloc::collections::btree::node::Handle<alloc::collections::btree::node::NodeRef<alloc::collections::btree::node::marker::Dying, std::ffi::os_str::OsString, core::option::Option<std::ffi::os_str::OsString>, alloc::collections::btree::node::marker::Leaf>, alloc::collections::btree::node::marker::Edge>>"* %7 to i8*
  call void @llvm.memcpy.p0i8.p0i8.i64(i8* align 8 %8, i8* align 8 %9, i64 24, i1 false), !noalias !30
  call void @llvm.experimental.noalias.scope.decl(metadata !35)
  call void @llvm.experimental.noalias.scope.decl(metadata !38)
  %10 = bitcast %"core::mem::manually_drop::ManuallyDrop<alloc::collections::btree::node::Handle<alloc::collections::btree::node::NodeRef<alloc::collections::btree::node::marker::Dying, std::ffi::os_str::OsString, core::option::Option<std::ffi::os_str::OsString>, alloc::collections::btree::node::marker::Leaf>, alloc::collections::btree::node::marker::Edge>>"* %_3.i to %"alloc::collections::btree::node::Handle<alloc::collections::btree::node::NodeRef<alloc::collections::btree::node::marker::Dying, std::ffi::os_str::OsString, core::option::Option<std::ffi::os_str::OsString>, alloc::collections::btree::node::marker::Leaf>, alloc::collections::btree::node::marker::Edge>"*
  %11 = bitcast %"alloc::collections::btree::node::Handle<alloc::collections::btree::node::NodeRef<alloc::collections::btree::node::marker::Dying, std::ffi::os_str::OsString, core::option::Option<std::ffi::os_str::OsString>, alloc::collections::btree::node::marker::Leaf>, alloc::collections::btree::node::marker::Edge>"* %0 to i8*
  %12 = bitcast %"alloc::collections::btree::node::Handle<alloc::collections::btree::node::NodeRef<alloc::collections::btree::node::marker::Dying, std::ffi::os_str::OsString, core::option::Option<std::ffi::os_str::OsString>, alloc::collections::btree::node::marker::Leaf>, alloc::collections::btree::node::marker::Edge>"* %10 to i8*
  call void @llvm.memcpy.p0i8.p0i8.i64(i8* align 8 %11, i8* align 8 %12, i64 24, i1 false), !alias.scope !40, !noalias !33
  br label %bb3

bb3:                                              ; preds = %bb2
  ret void
}

; core::ptr::read
; Function Attrs: inlinehint nonlazybind uwtable
define internal void @_ZN4core3ptr4read17hd11a7244914d42f0E(%"alloc::alloc::Global"* %src) unnamed_addr #0 {
start:
  %0 = alloca %"core::mem::maybe_uninit::MaybeUninit<alloc::alloc::Global>", align 1
  %tmp = alloca %"core::mem::maybe_uninit::MaybeUninit<alloc::alloc::Global>", align 1
  %1 = bitcast %"core::mem::maybe_uninit::MaybeUninit<alloc::alloc::Global>"* %0 to {}*
  br label %bb1

bb1:                                              ; preds = %start
  %2 = bitcast %"core::mem::maybe_uninit::MaybeUninit<alloc::alloc::Global>"* %tmp to %"alloc::alloc::Global"*
  br label %bb2

bb2:                                              ; preds = %bb1
  %3 = bitcast %"alloc::alloc::Global"* %2 to i8*
  %4 = bitcast %"alloc::alloc::Global"* %src to i8*
  call void @llvm.memcpy.p0i8.p0i8.i64(i8* align 1 %3, i8* align 1 %4, i64 0, i1 false)
  br label %bb3

bb3:                                              ; preds = %bb2
  ret void
}

; core::ptr::read
; Function Attrs: inlinehint nonlazybind uwtable
define internal void @_ZN4core3ptr4read17he5151551911e59eaE(%"alloc::collections::btree::node::Handle<alloc::collections::btree::node::NodeRef<alloc::collections::btree::node::marker::Dying, std::ffi::os_str::OsString, core::option::Option<std::ffi::os_str::OsString>, alloc::collections::btree::node::marker::LeafOrInternal>, alloc::collections::btree::node::marker::KV>"* noalias nocapture sret(%"alloc::collections::btree::node::Handle<alloc::collections::btree::node::NodeRef<alloc::collections::btree::node::marker::Dying, std::ffi::os_str::OsString, core::option::Option<std::ffi::os_str::OsString>, alloc::collections::btree::node::marker::LeafOrInternal>, alloc::collections::btree::node::marker::KV>") dereferenceable(24) %0, %"alloc::collections::btree::node::Handle<alloc::collections::btree::node::NodeRef<alloc::collections::btree::node::marker::Dying, std::ffi::os_str::OsString, core::option::Option<std::ffi::os_str::OsString>, alloc::collections::btree::node::marker::LeafOrInternal>, alloc::collections::btree::node::marker::KV>"* %src) unnamed_addr #0 {
start:
  %_3.i = alloca %"core::mem::manually_drop::ManuallyDrop<alloc::collections::btree::node::Handle<alloc::collections::btree::node::NodeRef<alloc::collections::btree::node::marker::Dying, std::ffi::os_str::OsString, core::option::Option<std::ffi::os_str::OsString>, alloc::collections::btree::node::marker::LeafOrInternal>, alloc::collections::btree::node::marker::KV>>", align 8
  %_6 = alloca %"core::mem::maybe_uninit::MaybeUninit<alloc::collections::btree::node::Handle<alloc::collections::btree::node::NodeRef<alloc::collections::btree::node::marker::Dying, std::ffi::os_str::OsString, core::option::Option<std::ffi::os_str::OsString>, alloc::collections::btree::node::marker::LeafOrInternal>, alloc::collections::btree::node::marker::KV>>", align 8
  %tmp = alloca %"core::mem::maybe_uninit::MaybeUninit<alloc::collections::btree::node::Handle<alloc::collections::btree::node::NodeRef<alloc::collections::btree::node::marker::Dying, std::ffi::os_str::OsString, core::option::Option<std::ffi::os_str::OsString>, alloc::collections::btree::node::marker::LeafOrInternal>, alloc::collections::btree::node::marker::KV>>", align 8
  call void @llvm.experimental.noalias.scope.decl(metadata !41)
  %1 = bitcast %"core::mem::maybe_uninit::MaybeUninit<alloc::collections::btree::node::Handle<alloc::collections::btree::node::NodeRef<alloc::collections::btree::node::marker::Dying, std::ffi::os_str::OsString, core::option::Option<std::ffi::os_str::OsString>, alloc::collections::btree::node::marker::LeafOrInternal>, alloc::collections::btree::node::marker::KV>>"* %tmp to {}*
  br label %bb1

bb1:                                              ; preds = %start
  %2 = bitcast %"core::mem::maybe_uninit::MaybeUninit<alloc::collections::btree::node::Handle<alloc::collections::btree::node::NodeRef<alloc::collections::btree::node::marker::Dying, std::ffi::os_str::OsString, core::option::Option<std::ffi::os_str::OsString>, alloc::collections::btree::node::marker::LeafOrInternal>, alloc::collections::btree::node::marker::KV>>"* %tmp to %"alloc::collections::btree::node::Handle<alloc::collections::btree::node::NodeRef<alloc::collections::btree::node::marker::Dying, std::ffi::os_str::OsString, core::option::Option<std::ffi::os_str::OsString>, alloc::collections::btree::node::marker::LeafOrInternal>, alloc::collections::btree::node::marker::KV>"*
  br label %bb2

bb2:                                              ; preds = %bb1
  %3 = bitcast %"alloc::collections::btree::node::Handle<alloc::collections::btree::node::NodeRef<alloc::collections::btree::node::marker::Dying, std::ffi::os_str::OsString, core::option::Option<std::ffi::os_str::OsString>, alloc::collections::btree::node::marker::LeafOrInternal>, alloc::collections::btree::node::marker::KV>"* %2 to i8*
  %4 = bitcast %"alloc::collections::btree::node::Handle<alloc::collections::btree::node::NodeRef<alloc::collections::btree::node::marker::Dying, std::ffi::os_str::OsString, core::option::Option<std::ffi::os_str::OsString>, alloc::collections::btree::node::marker::LeafOrInternal>, alloc::collections::btree::node::marker::KV>"* %src to i8*
  call void @llvm.memcpy.p0i8.p0i8.i64(i8* align 8 %3, i8* align 8 %4, i64 24, i1 false)
  %5 = bitcast %"core::mem::maybe_uninit::MaybeUninit<alloc::collections::btree::node::Handle<alloc::collections::btree::node::NodeRef<alloc::collections::btree::node::marker::Dying, std::ffi::os_str::OsString, core::option::Option<std::ffi::os_str::OsString>, alloc::collections::btree::node::marker::LeafOrInternal>, alloc::collections::btree::node::marker::KV>>"* %_6 to i8*
  %6 = bitcast %"core::mem::maybe_uninit::MaybeUninit<alloc::collections::btree::node::Handle<alloc::collections::btree::node::NodeRef<alloc::collections::btree::node::marker::Dying, std::ffi::os_str::OsString, core::option::Option<std::ffi::os_str::OsString>, alloc::collections::btree::node::marker::LeafOrInternal>, alloc::collections::btree::node::marker::KV>>"* %tmp to i8*
  call void @llvm.memcpy.p0i8.p0i8.i64(i8* align 8 %5, i8* align 8 %6, i64 24, i1 false)
  call void @llvm.experimental.noalias.scope.decl(metadata !44)
  call void @llvm.experimental.noalias.scope.decl(metadata !47)
  %7 = bitcast %"core::mem::maybe_uninit::MaybeUninit<alloc::collections::btree::node::Handle<alloc::collections::btree::node::NodeRef<alloc::collections::btree::node::marker::Dying, std::ffi::os_str::OsString, core::option::Option<std::ffi::os_str::OsString>, alloc::collections::btree::node::marker::LeafOrInternal>, alloc::collections::btree::node::marker::KV>>"* %_6 to %"core::mem::manually_drop::ManuallyDrop<alloc::collections::btree::node::Handle<alloc::collections::btree::node::NodeRef<alloc::collections::btree::node::marker::Dying, std::ffi::os_str::OsString, core::option::Option<std::ffi::os_str::OsString>, alloc::collections::btree::node::marker::LeafOrInternal>, alloc::collections::btree::node::marker::KV>>"*
  %8 = bitcast %"core::mem::manually_drop::ManuallyDrop<alloc::collections::btree::node::Handle<alloc::collections::btree::node::NodeRef<alloc::collections::btree::node::marker::Dying, std::ffi::os_str::OsString, core::option::Option<std::ffi::os_str::OsString>, alloc::collections::btree::node::marker::LeafOrInternal>, alloc::collections::btree::node::marker::KV>>"* %_3.i to i8*
  %9 = bitcast %"core::mem::manually_drop::ManuallyDrop<alloc::collections::btree::node::Handle<alloc::collections::btree::node::NodeRef<alloc::collections::btree::node::marker::Dying, std::ffi::os_str::OsString, core::option::Option<std::ffi::os_str::OsString>, alloc::collections::btree::node::marker::LeafOrInternal>, alloc::collections::btree::node::marker::KV>>"* %7 to i8*
  call void @llvm.memcpy.p0i8.p0i8.i64(i8* align 8 %8, i8* align 8 %9, i64 24, i1 false), !noalias !44
  call void @llvm.experimental.noalias.scope.decl(metadata !49)
  call void @llvm.experimental.noalias.scope.decl(metadata !52)
  %10 = bitcast %"core::mem::manually_drop::ManuallyDrop<alloc::collections::btree::node::Handle<alloc::collections::btree::node::NodeRef<alloc::collections::btree::node::marker::Dying, std::ffi::os_str::OsString, core::option::Option<std::ffi::os_str::OsString>, alloc::collections::btree::node::marker::LeafOrInternal>, alloc::collections::btree::node::marker::KV>>"* %_3.i to %"alloc::collections::btree::node::Handle<alloc::collections::btree::node::NodeRef<alloc::collections::btree::node::marker::Dying, std::ffi::os_str::OsString, core::option::Option<std::ffi::os_str::OsString>, alloc::collections::btree::node::marker::LeafOrInternal>, alloc::collections::btree::node::marker::KV>"*
  %11 = bitcast %"alloc::collections::btree::node::Handle<alloc::collections::btree::node::NodeRef<alloc::collections::btree::node::marker::Dying, std::ffi::os_str::OsString, core::option::Option<std::ffi::os_str::OsString>, alloc::collections::btree::node::marker::LeafOrInternal>, alloc::collections::btree::node::marker::KV>"* %0 to i8*
  %12 = bitcast %"alloc::collections::btree::node::Handle<alloc::collections::btree::node::NodeRef<alloc::collections::btree::node::marker::Dying, std::ffi::os_str::OsString, core::option::Option<std::ffi::os_str::OsString>, alloc::collections::btree::node::marker::LeafOrInternal>, alloc::collections::btree::node::marker::KV>"* %10 to i8*
  call void @llvm.memcpy.p0i8.p0i8.i64(i8* align 8 %11, i8* align 8 %12, i64 24, i1 false), !alias.scope !54, !noalias !47
  br label %bb3

bb3:                                              ; preds = %bb2
  ret void
}

; core::ptr::read
; Function Attrs: inlinehint nonlazybind uwtable
define internal void @_ZN4core3ptr4read17he5fbd61a26e3130dE(%"alloc::collections::btree::map::BTreeMap<std::ffi::os_str::OsString, core::option::Option<std::ffi::os_str::OsString>>"* noalias nocapture sret(%"alloc::collections::btree::map::BTreeMap<std::ffi::os_str::OsString, core::option::Option<std::ffi::os_str::OsString>>") dereferenceable(24) %0, %"alloc::collections::btree::map::BTreeMap<std::ffi::os_str::OsString, core::option::Option<std::ffi::os_str::OsString>>"* %src) unnamed_addr #0 {
start:
  %_3.i = alloca %"core::mem::manually_drop::ManuallyDrop<alloc::collections::btree::map::BTreeMap<std::ffi::os_str::OsString, core::option::Option<std::ffi::os_str::OsString>>>", align 8
  %_6 = alloca %"core::mem::maybe_uninit::MaybeUninit<alloc::collections::btree::map::BTreeMap<std::ffi::os_str::OsString, core::option::Option<std::ffi::os_str::OsString>>>", align 8
  %tmp = alloca %"core::mem::maybe_uninit::MaybeUninit<alloc::collections::btree::map::BTreeMap<std::ffi::os_str::OsString, core::option::Option<std::ffi::os_str::OsString>>>", align 8
  call void @llvm.experimental.noalias.scope.decl(metadata !55)
  %1 = bitcast %"core::mem::maybe_uninit::MaybeUninit<alloc::collections::btree::map::BTreeMap<std::ffi::os_str::OsString, core::option::Option<std::ffi::os_str::OsString>>>"* %tmp to {}*
  br label %bb1

bb1:                                              ; preds = %start
  %2 = bitcast %"core::mem::maybe_uninit::MaybeUninit<alloc::collections::btree::map::BTreeMap<std::ffi::os_str::OsString, core::option::Option<std::ffi::os_str::OsString>>>"* %tmp to %"alloc::collections::btree::map::BTreeMap<std::ffi::os_str::OsString, core::option::Option<std::ffi::os_str::OsString>>"*
  br label %bb2

bb2:                                              ; preds = %bb1
  %3 = bitcast %"alloc::collections::btree::map::BTreeMap<std::ffi::os_str::OsString, core::option::Option<std::ffi::os_str::OsString>>"* %2 to i8*
  %4 = bitcast %"alloc::collections::btree::map::BTreeMap<std::ffi::os_str::OsString, core::option::Option<std::ffi::os_str::OsString>>"* %src to i8*
  call void @llvm.memcpy.p0i8.p0i8.i64(i8* align 8 %3, i8* align 8 %4, i64 24, i1 false)
  %5 = bitcast %"core::mem::maybe_uninit::MaybeUninit<alloc::collections::btree::map::BTreeMap<std::ffi::os_str::OsString, core::option::Option<std::ffi::os_str::OsString>>>"* %_6 to i8*
  %6 = bitcast %"core::mem::maybe_uninit::MaybeUninit<alloc::collections::btree::map::BTreeMap<std::ffi::os_str::OsString, core::option::Option<std::ffi::os_str::OsString>>>"* %tmp to i8*
  call void @llvm.memcpy.p0i8.p0i8.i64(i8* align 8 %5, i8* align 8 %6, i64 24, i1 false)
  call void @llvm.experimental.noalias.scope.decl(metadata !58)
  call void @llvm.experimental.noalias.scope.decl(metadata !61)
  %7 = bitcast %"core::mem::maybe_uninit::MaybeUninit<alloc::collections::btree::map::BTreeMap<std::ffi::os_str::OsString, core::option::Option<std::ffi::os_str::OsString>>>"* %_6 to %"core::mem::manually_drop::ManuallyDrop<alloc::collections::btree::map::BTreeMap<std::ffi::os_str::OsString, core::option::Option<std::ffi::os_str::OsString>>>"*
  %8 = bitcast %"core::mem::manually_drop::ManuallyDrop<alloc::collections::btree::map::BTreeMap<std::ffi::os_str::OsString, core::option::Option<std::ffi::os_str::OsString>>>"* %_3.i to i8*
  %9 = bitcast %"core::mem::manually_drop::ManuallyDrop<alloc::collections::btree::map::BTreeMap<std::ffi::os_str::OsString, core::option::Option<std::ffi::os_str::OsString>>>"* %7 to i8*
  call void @llvm.memcpy.p0i8.p0i8.i64(i8* align 8 %8, i8* align 8 %9, i64 24, i1 false), !noalias !58
  call void @llvm.experimental.noalias.scope.decl(metadata !63)
  call void @llvm.experimental.noalias.scope.decl(metadata !66)
  %10 = bitcast %"core::mem::manually_drop::ManuallyDrop<alloc::collections::btree::map::BTreeMap<std::ffi::os_str::OsString, core::option::Option<std::ffi::os_str::OsString>>>"* %_3.i to %"alloc::collections::btree::map::BTreeMap<std::ffi::os_str::OsString, core::option::Option<std::ffi::os_str::OsString>>"*
  %11 = bitcast %"alloc::collections::btree::map::BTreeMap<std::ffi::os_str::OsString, core::option::Option<std::ffi::os_str::OsString>>"* %0 to i8*
  %12 = bitcast %"alloc::collections::btree::map::BTreeMap<std::ffi::os_str::OsString, core::option::Option<std::ffi::os_str::OsString>>"* %10 to i8*
  call void @llvm.memcpy.p0i8.p0i8.i64(i8* align 8 %11, i8* align 8 %12, i64 24, i1 false), !alias.scope !68, !noalias !61
  br label %bb3

bb3:                                              ; preds = %bb2
  ret void
}

; core::ptr::drop_in_place<alloc::raw_vec::RawVec<u8>>
; Function Attrs: nonlazybind uwtable
define internal void @"_ZN4core3ptr53drop_in_place$LT$alloc..raw_vec..RawVec$LT$u8$GT$$GT$17ha14d0e644848eb2aE"({ i8*, i64 }* %_1) unnamed_addr #1 {
start:
; call <alloc::raw_vec::RawVec<T,A> as core::ops::drop::Drop>::drop
  call void @"_ZN77_$LT$alloc..raw_vec..RawVec$LT$T$C$A$GT$$u20$as$u20$core..ops..drop..Drop$GT$4drop17h0edabf3858cd8685E"({ i8*, i64 }* align 8 dereferenceable(16) %_1)
  br label %bb1

bb1:                                              ; preds = %start
  ret void
}

; core::ptr::drop_in_place<[std::ffi::c_str::CString]>
; Function Attrs: nonlazybind uwtable
define internal void @"_ZN4core3ptr55drop_in_place$LT$$u5b$std..ffi..c_str..CString$u5d$$GT$17h543466ed856a75b9E"([0 x { i8*, i64 }]* %_1.0, i64 %_1.1) unnamed_addr #1 personality i32 (i32, i32, i64, %"unwind::libunwind::_Unwind_Exception"*, %"unwind::libunwind::_Unwind_Context"*)* @rust_eh_personality {
start:
  %0 = alloca { i8*, i32 }, align 8
  %_9 = alloca { i8*, i64 }*, align 8
  %_4 = alloca i64, align 8
  br i1 false, label %bb7, label %bb12

bb7:                                              ; preds = %start
  store i64 0, i64* %_4, align 8
  br label %bb6

bb12:                                             ; preds = %start
  %1 = bitcast [0 x { i8*, i64 }]* %_1.0 to { i8*, i64 }*
  store { i8*, i64 }* %1, { i8*, i64 }** %_9, align 8
  %2 = load { i8*, i64 }*, { i8*, i64 }** %_9, align 8
  %_10 = getelementptr inbounds { i8*, i64 }, { i8*, i64 }* %2, i64 %_1.1
  br label %bb11

bb11:                                             ; preds = %bb10, %bb12
  %3 = load { i8*, i64 }*, { i8*, i64 }** %_9, align 8
  %_14 = icmp eq { i8*, i64 }* %3, %_10
  br i1 %_14, label %bb1, label %bb10

bb10:                                             ; preds = %bb11
  %_13 = load { i8*, i64 }*, { i8*, i64 }** %_9, align 8
  %4 = load { i8*, i64 }*, { i8*, i64 }** %_9, align 8
  %5 = getelementptr inbounds { i8*, i64 }, { i8*, i64 }* %4, i64 1
  store { i8*, i64 }* %5, { i8*, i64 }** %_9, align 8
; invoke core::ptr::drop_in_place<std::ffi::c_str::CString>
  invoke void @"_ZN4core3ptr45drop_in_place$LT$std..ffi..c_str..CString$GT$17hd387a0f5b6898ba7E"({ i8*, i64 }* %_13)
          to label %bb11 unwind label %cleanup

bb1:                                              ; preds = %bb6, %bb11
  ret void

bb9:                                              ; preds = %bb8, %cleanup
  %6 = load { i8*, i64 }*, { i8*, i64 }** %_9, align 8
  %_12 = icmp eq { i8*, i64 }* %6, %_10
  br i1 %_12, label %bb2, label %bb8

cleanup:                                          ; preds = %bb10
  %7 = landingpad { i8*, i32 }
          cleanup
  %8 = extractvalue { i8*, i32 } %7, 0
  %9 = extractvalue { i8*, i32 } %7, 1
  %10 = getelementptr inbounds { i8*, i32 }, { i8*, i32 }* %0, i32 0, i32 0
  store i8* %8, i8** %10, align 8
  %11 = getelementptr inbounds { i8*, i32 }, { i8*, i32 }* %0, i32 0, i32 1
  store i32 %9, i32* %11, align 8
  br label %bb9

bb8:                                              ; preds = %bb9
  %_11 = load { i8*, i64 }*, { i8*, i64 }** %_9, align 8
  %12 = load { i8*, i64 }*, { i8*, i64 }** %_9, align 8
  %13 = getelementptr inbounds { i8*, i64 }, { i8*, i64 }* %12, i64 1
  store { i8*, i64 }* %13, { i8*, i64 }** %_9, align 8
; call core::ptr::drop_in_place<std::ffi::c_str::CString>
  call void @"_ZN4core3ptr45drop_in_place$LT$std..ffi..c_str..CString$GT$17hd387a0f5b6898ba7E"({ i8*, i64 }* %_11) #18
  br label %bb9

bb2:                                              ; preds = %bb4, %bb9
  %14 = bitcast { i8*, i32 }* %0 to i8**
  %15 = load i8*, i8** %14, align 8
  %16 = getelementptr inbounds { i8*, i32 }, { i8*, i32 }* %0, i32 0, i32 1
  %17 = load i32, i32* %16, align 8
  %18 = insertvalue { i8*, i32 } undef, i8* %15, 0
  %19 = insertvalue { i8*, i32 } %18, i32 %17, 1
  resume { i8*, i32 } %19

bb6:                                              ; preds = %bb5, %bb7
  %20 = load i64, i64* %_4, align 8
  %_8 = icmp eq i64 %20, %_1.1
  br i1 %_8, label %bb1, label %bb5

bb5:                                              ; preds = %bb6
  %21 = load i64, i64* %_4, align 8
  %_7 = getelementptr inbounds [0 x { i8*, i64 }], [0 x { i8*, i64 }]* %_1.0, i64 0, i64 %21
  %22 = load i64, i64* %_4, align 8
  %23 = add i64 %22, 1
  store i64 %23, i64* %_4, align 8
; invoke core::ptr::drop_in_place<std::ffi::c_str::CString>
  invoke void @"_ZN4core3ptr45drop_in_place$LT$std..ffi..c_str..CString$GT$17hd387a0f5b6898ba7E"({ i8*, i64 }* %_7)
          to label %bb6 unwind label %cleanup1

bb4:                                              ; preds = %bb3, %cleanup1
  %24 = load i64, i64* %_4, align 8
  %_6 = icmp eq i64 %24, %_1.1
  br i1 %_6, label %bb2, label %bb3

cleanup1:                                         ; preds = %bb5
  %25 = landingpad { i8*, i32 }
          cleanup
  %26 = extractvalue { i8*, i32 } %25, 0
  %27 = extractvalue { i8*, i32 } %25, 1
  %28 = getelementptr inbounds { i8*, i32 }, { i8*, i32 }* %0, i32 0, i32 0
  store i8* %26, i8** %28, align 8
  %29 = getelementptr inbounds { i8*, i32 }, { i8*, i32 }* %0, i32 0, i32 1
  store i32 %27, i32* %29, align 8
  br label %bb4

bb3:                                              ; preds = %bb4
  %30 = load i64, i64* %_4, align 8
  %_5 = getelementptr inbounds [0 x { i8*, i64 }], [0 x { i8*, i64 }]* %_1.0, i64 0, i64 %30
  %31 = load i64, i64* %_4, align 8
  %32 = add i64 %31, 1
  store i64 %32, i64* %_4, align 8
; call core::ptr::drop_in_place<std::ffi::c_str::CString>
  call void @"_ZN4core3ptr45drop_in_place$LT$std..ffi..c_str..CString$GT$17hd387a0f5b6898ba7E"({ i8*, i64 }* %_5) #18
  br label %bb4
}

; core::ptr::drop_in_place<std::sys_common::process::CommandEnv>
; Function Attrs: nonlazybind uwtable
define internal void @"_ZN4core3ptr57drop_in_place$LT$std..sys_common..process..CommandEnv$GT$17had5edbf1e3a32899E"(%"std::sys_common::process::CommandEnv"* %_1) unnamed_addr #1 {
start:
  %0 = bitcast %"std::sys_common::process::CommandEnv"* %_1 to %"alloc::collections::btree::map::BTreeMap<std::ffi::os_str::OsString, core::option::Option<std::ffi::os_str::OsString>>"*
; call core::ptr::drop_in_place<alloc::collections::btree::map::BTreeMap<std::ffi::os_str::OsString,core::option::Option<std::ffi::os_str::OsString>>>
  call void @"_ZN4core3ptr152drop_in_place$LT$alloc..collections..btree..map..BTreeMap$LT$std..ffi..os_str..OsString$C$core..option..Option$LT$std..ffi..os_str..OsString$GT$$GT$$GT$17hdb095c0dde52d5b9E"(%"alloc::collections::btree::map::BTreeMap<std::ffi::os_str::OsString, core::option::Option<std::ffi::os_str::OsString>>"* %0)
  br label %bb1

bb1:                                              ; preds = %start
  ret void
}

; core::ptr::drop_in_place<alloc::boxed::Box<[u8]>>
; Function Attrs: nonlazybind uwtable
define internal void @"_ZN4core3ptr58drop_in_place$LT$alloc..boxed..Box$LT$$u5b$u8$u5d$$GT$$GT$17hd250bdcf689e3643E"({ [0 x i8]*, i64 }* %_1) unnamed_addr #1 personality i32 (i32, i32, i64, %"unwind::libunwind::_Unwind_Exception"*, %"unwind::libunwind::_Unwind_Context"*)* @rust_eh_personality {
start:
  %0 = alloca { i8*, i32 }, align 8
  br label %bb3

bb3:                                              ; preds = %start
  %1 = bitcast { [0 x i8]*, i64 }* %_1 to { i8*, i64 }*
  %2 = getelementptr inbounds { i8*, i64 }, { i8*, i64 }* %1, i32 0, i32 0
  %3 = load i8*, i8** %2, align 8, !nonnull !9
  %4 = getelementptr inbounds { i8*, i64 }, { i8*, i64 }* %1, i32 0, i32 1
  %5 = load i64, i64* %4, align 8
; call alloc::alloc::box_free
  call void @_ZN5alloc5alloc8box_free17h06d1e0f99b25a3bdE(i8* nonnull %3, i64 %5)
  br label %bb1

bb4:                                              ; No predecessors!
  %6 = bitcast { [0 x i8]*, i64 }* %_1 to { i8*, i64 }*
  %7 = getelementptr inbounds { i8*, i64 }, { i8*, i64 }* %6, i32 0, i32 0
  %8 = load i8*, i8** %7, align 8, !nonnull !9
  %9 = getelementptr inbounds { i8*, i64 }, { i8*, i64 }* %6, i32 0, i32 1
  %10 = load i64, i64* %9, align 8
; call alloc::alloc::box_free
  call void @_ZN5alloc5alloc8box_free17h06d1e0f99b25a3bdE(i8* nonnull %8, i64 %10) #18
  br label %bb2

bb2:                                              ; preds = %bb4
  %11 = bitcast { i8*, i32 }* %0 to i8**
  %12 = load i8*, i8** %11, align 8
  %13 = getelementptr inbounds { i8*, i32 }, { i8*, i32 }* %0, i32 0, i32 1
  %14 = load i32, i32* %13, align 8
  %15 = insertvalue { i8*, i32 } undef, i8* %12, 0
  %16 = insertvalue { i8*, i32 } %15, i32 %14, 1
  resume { i8*, i32 } %16

bb1:                                              ; preds = %bb3
  ret void
}

; core::ptr::drop_in_place<alloc::boxed::Box<[u32]>>
; Function Attrs: nonlazybind uwtable
define internal void @"_ZN4core3ptr59drop_in_place$LT$alloc..boxed..Box$LT$$u5b$u32$u5d$$GT$$GT$17had0ecc00037bb372E"({ [0 x i32]*, i64 }* %_1) unnamed_addr #1 personality i32 (i32, i32, i64, %"unwind::libunwind::_Unwind_Exception"*, %"unwind::libunwind::_Unwind_Context"*)* @rust_eh_personality {
start:
  %0 = alloca { i8*, i32 }, align 8
  br label %bb3

bb3:                                              ; preds = %start
  %1 = bitcast { [0 x i32]*, i64 }* %_1 to { i32*, i64 }*
  %2 = getelementptr inbounds { i32*, i64 }, { i32*, i64 }* %1, i32 0, i32 0
  %3 = load i32*, i32** %2, align 8, !nonnull !9
  %4 = getelementptr inbounds { i32*, i64 }, { i32*, i64 }* %1, i32 0, i32 1
  %5 = load i64, i64* %4, align 8
; call alloc::alloc::box_free
  call void @_ZN5alloc5alloc8box_free17haf955eca8fec651cE(i32* nonnull %3, i64 %5)
  br label %bb1

bb4:                                              ; No predecessors!
  %6 = bitcast { [0 x i32]*, i64 }* %_1 to { i32*, i64 }*
  %7 = getelementptr inbounds { i32*, i64 }, { i32*, i64 }* %6, i32 0, i32 0
  %8 = load i32*, i32** %7, align 8, !nonnull !9
  %9 = getelementptr inbounds { i32*, i64 }, { i32*, i64 }* %6, i32 0, i32 1
  %10 = load i64, i64* %9, align 8
; call alloc::alloc::box_free
  call void @_ZN5alloc5alloc8box_free17haf955eca8fec651cE(i32* nonnull %8, i64 %10) #18
  br label %bb2

bb2:                                              ; preds = %bb4
  %11 = bitcast { i8*, i32 }* %0 to i8**
  %12 = load i8*, i8** %11, align 8
  %13 = getelementptr inbounds { i8*, i32 }, { i8*, i32 }* %0, i32 0, i32 1
  %14 = load i32, i32* %13, align 8
  %15 = insertvalue { i8*, i32 } undef, i8* %12, 0
  %16 = insertvalue { i8*, i32 } %15, i32 %14, 1
  resume { i8*, i32 } %16

bb1:                                              ; preds = %bb3
  ret void
}

; core::ptr::write
; Function Attrs: inlinehint nonlazybind uwtable
define internal void @_ZN4core3ptr5write17h015731dcc83a00eaE(%"core::option::Option<alloc::collections::btree::navigate::LazyLeafHandle<alloc::collections::btree::node::marker::Dying, std::ffi::os_str::OsString, core::option::Option<std::ffi::os_str::OsString>>>"* %dst, %"core::option::Option<alloc::collections::btree::navigate::LazyLeafHandle<alloc::collections::btree::node::marker::Dying, std::ffi::os_str::OsString, core::option::Option<std::ffi::os_str::OsString>>>"* noalias nocapture dereferenceable(32) %src) unnamed_addr #0 {
start:
  %0 = bitcast %"core::option::Option<alloc::collections::btree::navigate::LazyLeafHandle<alloc::collections::btree::node::marker::Dying, std::ffi::os_str::OsString, core::option::Option<std::ffi::os_str::OsString>>>"* %dst to i8*
  %1 = bitcast %"core::option::Option<alloc::collections::btree::navigate::LazyLeafHandle<alloc::collections::btree::node::marker::Dying, std::ffi::os_str::OsString, core::option::Option<std::ffi::os_str::OsString>>>"* %src to i8*
  call void @llvm.memcpy.p0i8.p0i8.i64(i8* align 8 %0, i8* align 8 %1, i64 32, i1 false)
  ret void
}

; core::ptr::write
; Function Attrs: inlinehint nonlazybind uwtable
define internal void @_ZN4core3ptr5write17h2216db72121a77efE(i64* %dst, i64 %0) unnamed_addr #0 {
start:
  %src = alloca i64, align 8
  store i64 %0, i64* %src, align 8
  %1 = bitcast i64* %dst to i8*
  %2 = bitcast i64* %src to i8*
  call void @llvm.memcpy.p0i8.p0i8.i64(i8* align 8 %1, i8* align 8 %2, i64 8, i1 false)
  ret void
}

; core::ptr::write
; Function Attrs: inlinehint nonlazybind uwtable
define internal void @_ZN4core3ptr5write17h3eb97738b29273eaE(%"alloc::collections::btree::node::Handle<alloc::collections::btree::node::NodeRef<alloc::collections::btree::node::marker::Dying, std::ffi::os_str::OsString, core::option::Option<std::ffi::os_str::OsString>, alloc::collections::btree::node::marker::Leaf>, alloc::collections::btree::node::marker::Edge>"* %dst, %"alloc::collections::btree::node::Handle<alloc::collections::btree::node::NodeRef<alloc::collections::btree::node::marker::Dying, std::ffi::os_str::OsString, core::option::Option<std::ffi::os_str::OsString>, alloc::collections::btree::node::marker::Leaf>, alloc::collections::btree::node::marker::Edge>"* noalias nocapture dereferenceable(24) %src) unnamed_addr #0 {
start:
  %0 = bitcast %"alloc::collections::btree::node::Handle<alloc::collections::btree::node::NodeRef<alloc::collections::btree::node::marker::Dying, std::ffi::os_str::OsString, core::option::Option<std::ffi::os_str::OsString>, alloc::collections::btree::node::marker::Leaf>, alloc::collections::btree::node::marker::Edge>"* %dst to i8*
  %1 = bitcast %"alloc::collections::btree::node::Handle<alloc::collections::btree::node::NodeRef<alloc::collections::btree::node::marker::Dying, std::ffi::os_str::OsString, core::option::Option<std::ffi::os_str::OsString>, alloc::collections::btree::node::marker::Leaf>, alloc::collections::btree::node::marker::Edge>"* %src to i8*
  call void @llvm.memcpy.p0i8.p0i8.i64(i8* align 8 %0, i8* align 8 %1, i64 24, i1 false)
  ret void
}

; core::ptr::write
; Function Attrs: inlinehint nonlazybind uwtable
define internal void @_ZN4core3ptr5write17h947e8efe7dc1c246E({ i64, i64* }* %dst, i64 %0, i64* %1) unnamed_addr #0 {
start:
  %src = alloca { i64, i64* }, align 8
  %2 = getelementptr inbounds { i64, i64* }, { i64, i64* }* %src, i32 0, i32 0
  store i64 %0, i64* %2, align 8
  %3 = getelementptr inbounds { i64, i64* }, { i64, i64* }* %src, i32 0, i32 1
  store i64* %1, i64** %3, align 8
  %4 = bitcast { i64, i64* }* %dst to i8*
  %5 = bitcast { i64, i64* }* %src to i8*
  call void @llvm.memcpy.p0i8.p0i8.i64(i8* align 8 %4, i8* align 8 %5, i64 16, i1 false)
  ret void
}

; core::ptr::write
; Function Attrs: inlinehint nonlazybind uwtable
