; ModuleID = 'build_script_build.c99649dc-cgu.0'
source_filename = "build_script_build.c99649dc-cgu.0"
target datalayout = "e-m:e-p270:32:32-p271:32:32-p272:64:64-i64:64-f80:128-n8:16:32:64-S128"
target triple = "x86_64-unknown-linux-gnu"

%"alloc::string::String" = type { %"alloc::vec::Vec<u8>" }
%"alloc::vec::Vec<u8>" = type { { i8*, i64 }, i64 }
%"core::panic::location::Location" = type { { [0 x i8]*, i64 }, i32, i32 }
%"core::result::Result<alloc::string::String, std::env::VarError>" = type { i64, [3 x i64] }
%"std::ffi::os_str::OsStr" = type { %"std::sys::unix::os_str::Slice" }
%"std::sys::unix::os_str::Slice" = type { [0 x i8] }
%"core::fmt::Arguments" = type { { [0 x { [0 x i8]*, i64 }]*, i64 }, { i64*, i64 }, { [0 x { i8*, i64* }]*, i64 } }
%"std::env::VarError" = type { {}*, [2 x i64] }
%"std::env::VarError::NotUnicode" = type { %"std::ffi::os_str::OsString" }
%"std::ffi::os_str::OsString" = type { %"std::sys::unix::os_str::Buf" }
%"std::sys::unix::os_str::Buf" = type { %"alloc::vec::Vec<u8>" }
%"core::ptr::metadata::PtrRepr<[u8]>" = type { [2 x i64] }
%"core::result::Result<alloc::string::String, std::env::VarError>::Ok" = type { [1 x i64], %"alloc::string::String" }
%"core::result::Result<alloc::string::String, std::env::VarError>::Err" = type { [1 x i64], %"std::env::VarError" }
%"core::option::Option<(core::ptr::non_null::NonNull<u8>, core::alloc::layout::Layout)>" = type { {}*, [2 x i64] }
%"core::option::Option<(core::ptr::non_null::NonNull<u8>, core::alloc::layout::Layout)>::Some" = type { { i8*, { i64, i64 } } }
%"alloc::alloc::Global" = type {}
%"unwind::libunwind::_Unwind_Exception" = type { i64, void (i32, %"unwind::libunwind::_Unwind_Exception"*)*, [6 x i64] }
%"unwind::libunwind::_Unwind_Context" = type { [0 x i8] }
%"core::fmt::Formatter" = type { { i64, i64 }, { i64, i64 }, { {}*, [3 x i64]* }, i32, i32, i8, [7 x i8] }

@vtable.0 = private unnamed_addr constant <{ i8*, [16 x i8], i8*, i8*, i8*, [0 x i8] }> <{ i8* bitcast (void (i64**)* @"_ZN4core3ptr85drop_in_place$LT$std..rt..lang_start$LT$$LP$$RP$$GT$..$u7b$$u7b$closure$u7d$$u7d$$GT$17h3b17158f6dc79f97E" to i8*), [16 x i8] c"\08\00\00\00\00\00\00\00\08\00\00\00\00\00\00\00", i8* bitcast (i32 (i64**)* @"_ZN4core3ops8function6FnOnce40call_once$u7b$$u7b$vtable.shim$u7d$$u7d$17hb95f18a58a0dd44aE" to i8*), i8* bitcast (i32 (i64**)* @"_ZN3std2rt10lang_start28_$u7b$$u7b$closure$u7d$$u7d$17h7295317749e851b0E" to i8*), i8* bitcast (i32 (i64**)* @"_ZN3std2rt10lang_start28_$u7b$$u7b$closure$u7d$$u7d$17h7295317749e851b0E" to i8*), [0 x i8] zeroinitializer }>, align 8
@alloc42 = private unnamed_addr constant <{ [12 x i8] }> <{ [12 x i8] c"invalid args" }>, align 1
@alloc43 = private unnamed_addr constant <{ [75 x i8] }> <{ [75 x i8] c"/rustc/34926f0a1681458588a2d4240c0715ef9eff7d35/library/core/src/fmt/mod.rs" }>, align 1
@alloc44 = private unnamed_addr constant <{ i8*, [16 x i8] }> <{ i8* getelementptr inbounds (<{ [75 x i8] }>, <{ [75 x i8] }>* @alloc43, i32 0, i32 0, i32 0), [16 x i8] c"K\00\00\00\00\00\00\00k\01\00\00\0D\00\00\00" }>, align 8
@alloc45 = private unnamed_addr constant <{ [43 x i8] }> <{ [43 x i8] c"called `Result::unwrap()` on an `Err` value" }>, align 1
@vtable.1 = private unnamed_addr constant <{ i8*, [16 x i8], i8*, [0 x i8] }> <{ i8* bitcast (void (%"std::env::VarError"*)* @"_ZN4core3ptr39drop_in_place$LT$std..env..VarError$GT$17h99629bd95fda8381E" to i8*), [16 x i8] c"\18\00\00\00\00\00\00\00\08\00\00\00\00\00\00\00", i8* bitcast (i1 (%"std::env::VarError"*, %"core::fmt::Formatter"*)* @"_ZN55_$LT$std..env..VarError$u20$as$u20$core..fmt..Debug$GT$3fmt17hd28f418a0de5ba91E" to i8*), [0 x i8] zeroinitializer }>, align 8
@alloc49 = private unnamed_addr constant <{ [75 x i8] }> <{ [75 x i8] c"/rustc/34926f0a1681458588a2d4240c0715ef9eff7d35/library/alloc/src/string.rs" }>, align 1
@alloc50 = private unnamed_addr constant <{ i8*, [16 x i8] }> <{ i8* getelementptr inbounds (<{ [75 x i8] }>, <{ [75 x i8] }>* @alloc49, i32 0, i32 0, i32 0), [16 x i8] c"K\00\00\00\00\00\00\00C\08\00\00\01\00\00\00" }>, align 8
@alloc2 = private unnamed_addr constant <{ [32 x i8] }> <{ [32 x i8] c"cargo:rerun-if-changed=build.rs\0A" }>, align 1
@alloc3 = private unnamed_addr constant <{ i8*, [8 x i8] }> <{ i8* getelementptr inbounds (<{ [32 x i8] }>, <{ [32 x i8] }>* @alloc2, i32 0, i32 0, i32 0), [8 x i8] c" \00\00\00\00\00\00\00" }>, align 8
@alloc14 = private unnamed_addr constant <{ [0 x i8] }> zeroinitializer, align 8
@alloc51 = private unnamed_addr constant <{ [9 x i8] }> <{ [9 x i8] c"OPT_LEVEL" }>, align 1
@alloc52 = private unnamed_addr constant <{ [76 x i8] }> <{ [76 x i8] c"/home/cj/.cargo/registry/src/github.com-1ecc6299db9ec823/libm-0.2.2/build.rs" }>, align 1
@alloc53 = private unnamed_addr constant <{ i8*, [16 x i8] }> <{ i8* getelementptr inbounds (<{ [76 x i8] }>, <{ [76 x i8] }>* @alloc52, i32 0, i32 0, i32 0), [16 x i8] c"L\00\00\00\00\00\00\00\0A\00\00\00)\00\00\00" }>, align 8
@alloc8 = private unnamed_addr constant <{ [1 x i8] }> <{ [1 x i8] c"0" }>, align 1
@alloc9 = private unnamed_addr constant <{ i8*, [8 x i8] }> <{ i8* getelementptr inbounds (<{ [1 x i8] }>, <{ [1 x i8] }>* @alloc8, i32 0, i32 0, i32 0), [8 x i8] c"\01\00\00\00\00\00\00\00" }>, align 8
@alloc11 = private unnamed_addr constant <{ [32 x i8] }> <{ [32 x i8] c"cargo:rustc-cfg=assert_no_panic\0A" }>, align 1
@alloc12 = private unnamed_addr constant <{ i8*, [8 x i8] }> <{ i8* getelementptr inbounds (<{ [32 x i8] }>, <{ [32 x i8] }>* @alloc11, i32 0, i32 0, i32 0), [8 x i8] c" \00\00\00\00\00\00\00" }>, align 8

; <alloc::string::String as core::ops::index::Index<core::ops::range::RangeFull>>::index
; Function Attrs: inlinehint nonlazybind uwtable
define internal { [0 x i8]*, i64 } @"_ZN100_$LT$alloc..string..String$u20$as$u20$core..ops..index..Index$LT$core..ops..range..RangeFull$GT$$GT$5index17hef1e87c4df442fedE"(%"alloc::string::String"* align 8 dereferenceable(24) %self, %"core::panic::location::Location"* align 8 dereferenceable(24) %0) unnamed_addr #0 {
start:
  %_6 = bitcast %"alloc::string::String"* %self to %"alloc::vec::Vec<u8>"*
; call <alloc::vec::Vec<T,A> as core::ops::deref::Deref>::deref
  %1 = call { [0 x i8]*, i64 } @"_ZN72_$LT$alloc..vec..Vec$LT$T$C$A$GT$$u20$as$u20$core..ops..deref..Deref$GT$5deref17h27ca76a9b677a0b4E"(%"alloc::vec::Vec<u8>"* align 8 dereferenceable(24) %_6)
  %_4.0 = extractvalue { [0 x i8]*, i64 } %1, 0
  %_4.1 = extractvalue { [0 x i8]*, i64 } %1, 1
  br label %bb1

bb1:                                              ; preds = %start
; call core::str::converts::from_utf8_unchecked
  %2 = call { [0 x i8]*, i64 } @_ZN4core3str8converts19from_utf8_unchecked17hf53b62630479be22E([0 x i8]* nonnull align 1 %_4.0, i64 %_4.1)
  %3 = extractvalue { [0 x i8]*, i64 } %2, 0
  %4 = extractvalue { [0 x i8]*, i64 } %2, 1
  br label %bb2

bb2:                                              ; preds = %bb1
  %5 = insertvalue { [0 x i8]*, i64 } undef, [0 x i8]* %3, 0
  %6 = insertvalue { [0 x i8]*, i64 } %5, i64 %4, 1
  ret { [0 x i8]*, i64 } %6
}

; <core::ptr::non_null::NonNull<T> as core::convert::From<core::ptr::unique::Unique<T>>>::from
; Function Attrs: inlinehint nonlazybind uwtable
define internal nonnull i8* @"_ZN119_$LT$core..ptr..non_null..NonNull$LT$T$GT$$u20$as$u20$core..convert..From$LT$core..ptr..unique..Unique$LT$T$GT$$GT$$GT$4from17h9d45afd5f31ae36cE"(i8* nonnull %unique) unnamed_addr #0 {
start:
; call core::ptr::unique::Unique<T>::as_ptr
  %_2 = call i8* @"_ZN4core3ptr6unique15Unique$LT$T$GT$6as_ptr17h082e92a050c03afdE"(i8* nonnull %unique)
  br label %bb1

bb1:                                              ; preds = %start
; call core::ptr::non_null::NonNull<T>::new_unchecked
  %0 = call nonnull i8* @"_ZN4core3ptr8non_null16NonNull$LT$T$GT$13new_unchecked17h6bdc0b9a79f7f393E"(i8* %_2)
  br label %bb2

bb2:                                              ; preds = %bb1
  ret i8* %0
}

; std::sys_common::backtrace::__rust_begin_short_backtrace
; Function Attrs: noinline nonlazybind uwtable
define internal void @_ZN3std10sys_common9backtrace28__rust_begin_short_backtrace17hf89798fc7f3f8299E(void ()* nonnull %f) unnamed_addr #1 personality i32 (i32, i32, i64, %"unwind::libunwind::_Unwind_Exception"*, %"unwind::libunwind::_Unwind_Context"*)* @rust_eh_personality {
start:
  %0 = alloca { i8*, i32 }, align 8
; call core::ops::function::FnOnce::call_once
  call void @_ZN4core3ops8function6FnOnce9call_once17hbdaef532139a9be4E(void ()* nonnull %f)
  br label %bb1

bb1:                                              ; preds = %start
; invoke core::hint::black_box
  invoke void @_ZN4core4hint9black_box17h15a0fddae87510e1E()
          to label %bb2 unwind label %cleanup

bb2:                                              ; preds = %bb1
  ret void

bb3:                                              ; preds = %cleanup
  br label %bb4

cleanup:                                          ; preds = %bb1
  %1 = landingpad { i8*, i32 }
          cleanup
  %2 = extractvalue { i8*, i32 } %1, 0
  %3 = extractvalue { i8*, i32 } %1, 1
  %4 = getelementptr inbounds { i8*, i32 }, { i8*, i32 }* %0, i32 0, i32 0
  store i8* %2, i8** %4, align 8
  %5 = getelementptr inbounds { i8*, i32 }, { i8*, i32 }* %0, i32 0, i32 1
  store i32 %3, i32* %5, align 8
  br label %bb3

bb4:                                              ; preds = %bb3
  %6 = bitcast { i8*, i32 }* %0 to i8**
  %7 = load i8*, i8** %6, align 8
  %8 = getelementptr inbounds { i8*, i32 }, { i8*, i32 }* %0, i32 0, i32 1
  %9 = load i32, i32* %8, align 8
  %10 = insertvalue { i8*, i32 } undef, i8* %7, 0
  %11 = insertvalue { i8*, i32 } %10, i32 %9, 1
  resume { i8*, i32 } %11
}

; std::rt::lang_start
; Function Attrs: nonlazybind uwtable
define hidden i64 @_ZN3std2rt10lang_start17he145ccedbf7b985cE(void ()* nonnull %main, i64 %argc, i8** %argv) unnamed_addr #2 {
start:
  %_8 = alloca i64*, align 8
  %_4 = alloca i64, align 8
  %0 = bitcast i64** %_8 to void ()**
  store void ()* %main, void ()** %0, align 8
  %_5.0 = bitcast i64** %_8 to {}*
; call std::rt::lang_start_internal
  %1 = call i64 @_ZN3std2rt19lang_start_internal17h75965f95c98f11d8E({}* nonnull align 1 %_5.0, [3 x i64]* align 8 dereferenceable(24) bitcast (<{ i8*, [16 x i8], i8*, i8*, i8*, [0 x i8] }>* @vtable.0 to [3 x i64]*), i64 %argc, i8** %argv)
  store i64 %1, i64* %_4, align 8
  br label %bb1

bb1:                                              ; preds = %start
  %v = load i64, i64* %_4, align 8
  ret i64 %v
}

; std::rt::lang_start::{{closure}}
; Function Attrs: inlinehint nonlazybind uwtable
define internal i32 @"_ZN3std2rt10lang_start28_$u7b$$u7b$closure$u7d$$u7d$17h7295317749e851b0E"(i64** align 8 dereferenceable(8) %_1) unnamed_addr #0 {
start:
  %0 = bitcast i64** %_1 to void ()**
  %_3 = load void ()*, void ()** %0, align 8, !nonnull !3
; call std::sys_common::backtrace::__rust_begin_short_backtrace
  call void @_ZN3std10sys_common9backtrace28__rust_begin_short_backtrace17hf89798fc7f3f8299E(void ()* nonnull %_3)
  br label %bb1

bb1:                                              ; preds = %start
; call <() as std::process::Termination>::report
  %1 = call i32 @"_ZN54_$LT$$LP$$RP$$u20$as$u20$std..process..Termination$GT$6report17hd7b3f1a4f9b0bbe3E"()
  br label %bb2

bb2:                                              ; preds = %bb1
  ret i32 %1
}

; std::env::var
; Function Attrs: nonlazybind uwtable
define internal void @_ZN3std3env3var17h73e2ff6f4947071dE(%"core::result::Result<alloc::string::String, std::env::VarError>"* noalias nocapture sret(%"core::result::Result<alloc::string::String, std::env::VarError>") dereferenceable(32) %0, [0 x i8]* nonnull align 1 %1, i64 %2) unnamed_addr #2 personality i32 (i32, i32, i64, %"unwind::libunwind::_Unwind_Exception"*, %"unwind::libunwind::_Unwind_Context"*)* @rust_eh_personality {
start:
  %3 = alloca { i8*, i32 }, align 8
  %key = alloca { [0 x i8]*, i64 }, align 8
  %4 = getelementptr inbounds { [0 x i8]*, i64 }, { [0 x i8]*, i64 }* %key, i32 0, i32 0
  store [0 x i8]* %1, [0 x i8]** %4, align 8
  %5 = getelementptr inbounds { [0 x i8]*, i64 }, { [0 x i8]*, i64 }* %key, i32 0, i32 1
  store i64 %2, i64* %5, align 8
; invoke <&T as core::convert::AsRef<U>>::as_ref
  %6 = invoke { %"std::ffi::os_str::OsStr"*, i64 } @"_ZN55_$LT$$RF$T$u20$as$u20$core..convert..AsRef$LT$U$GT$$GT$6as_ref17h2f005362f4e05621E"({ [0 x i8]*, i64 }* align 8 dereferenceable(16) %key)
          to label %bb1 unwind label %cleanup

bb1:                                              ; preds = %start
  %_3.0 = extractvalue { %"std::ffi::os_str::OsStr"*, i64 } %6, 0
  %_3.1 = extractvalue { %"std::ffi::os_str::OsStr"*, i64 } %6, 1
; invoke std::env::_var
  invoke void @_ZN3std3env4_var17he1594e4854f7d5e9E(%"core::result::Result<alloc::string::String, std::env::VarError>"* noalias nocapture sret(%"core::result::Result<alloc::string::String, std::env::VarError>") dereferenceable(32) %0, %"std::ffi::os_str::OsStr"* nonnull align 1 %_3.0, i64 %_3.1)
          to label %bb2 unwind label %cleanup

bb4:                                              ; preds = %cleanup
  br label %bb5

cleanup:                                          ; preds = %bb1, %start
  %7 = landingpad { i8*, i32 }
          cleanup
  %8 = extractvalue { i8*, i32 } %7, 0
  %9 = extractvalue { i8*, i32 } %7, 1
  %10 = getelementptr inbounds { i8*, i32 }, { i8*, i32 }* %3, i32 0, i32 0
  store i8* %8, i8** %10, align 8
  %11 = getelementptr inbounds { i8*, i32 }, { i8*, i32 }* %3, i32 0, i32 1
  store i32 %9, i32* %11, align 8
  br label %bb4

bb2:                                              ; preds = %bb1
  br label %bb3

bb5:                                              ; preds = %bb4
  %12 = bitcast { i8*, i32 }* %3 to i8**
  %13 = load i8*, i8** %12, align 8
  %14 = getelementptr inbounds { i8*, i32 }, { i8*, i32 }* %3, i32 0, i32 1
  %15 = load i32, i32* %14, align 8
  %16 = insertvalue { i8*, i32 } undef, i8* %13, 0
  %17 = insertvalue { i8*, i32 } %16, i32 %15, 1
  resume { i8*, i32 } %17

bb3:                                              ; preds = %bb2
  ret void
}

; std::ffi::os_str::OsStr::from_inner
; Function Attrs: inlinehint nonlazybind uwtable
define internal { %"std::ffi::os_str::OsStr"*, i64 } @_ZN3std3ffi6os_str5OsStr10from_inner17hda4b1e76fb1ee3d1E(%"std::sys::unix::os_str::Slice"* nonnull align 1 %inner.0, i64 %inner.1) unnamed_addr #0 {
start:
  %_2.0 = bitcast %"std::sys::unix::os_str::Slice"* %inner.0 to %"std::ffi::os_str::OsStr"*
  %0 = insertvalue { %"std::ffi::os_str::OsStr"*, i64 } undef, %"std::ffi::os_str::OsStr"* %_2.0, 0
  %1 = insertvalue { %"std::ffi::os_str::OsStr"*, i64 } %0, i64 %inner.1, 1
  ret { %"std::ffi::os_str::OsStr"*, i64 } %1
}

; std::ffi::os_str::<impl core::convert::AsRef<std::ffi::os_str::OsStr> for str>::as_ref
; Function Attrs: inlinehint nonlazybind uwtable
define internal { %"std::ffi::os_str::OsStr"*, i64 } @"_ZN3std3ffi6os_str85_$LT$impl$u20$core..convert..AsRef$LT$std..ffi..os_str..OsStr$GT$$u20$for$u20$str$GT$6as_ref17hde2f0a0458444211E"([0 x i8]* nonnull align 1 %self.0, i64 %self.1) unnamed_addr #0 {
start:
; call std::sys::unix::os_str::Slice::from_str
  %0 = call { %"std::sys::unix::os_str::Slice"*, i64 } @_ZN3std3sys4unix6os_str5Slice8from_str17h005bc4336bd2de9cE([0 x i8]* nonnull align 1 %self.0, i64 %self.1)
  %_3.0 = extractvalue { %"std::sys::unix::os_str::Slice"*, i64 } %0, 0
  %_3.1 = extractvalue { %"std::sys::unix::os_str::Slice"*, i64 } %0, 1
  br label %bb1

bb1:                                              ; preds = %start
; call std::ffi::os_str::OsStr::from_inner
  %1 = call { %"std::ffi::os_str::OsStr"*, i64 } @_ZN3std3ffi6os_str5OsStr10from_inner17hda4b1e76fb1ee3d1E(%"std::sys::unix::os_str::Slice"* nonnull align 1 %_3.0, i64 %_3.1)
  %2 = extractvalue { %"std::ffi::os_str::OsStr"*, i64 } %1, 0
  %3 = extractvalue { %"std::ffi::os_str::OsStr"*, i64 } %1, 1
  br label %bb2

bb2:                                              ; preds = %bb1
  %4 = insertvalue { %"std::ffi::os_str::OsStr"*, i64 } undef, %"std::ffi::os_str::OsStr"* %2, 0
  %5 = insertvalue { %"std::ffi::os_str::OsStr"*, i64 } %4, i64 %3, 1
  ret { %"std::ffi::os_str::OsStr"*, i64 } %5
}

; std::sys::unix::os_str::Slice::from_u8_slice
; Function Attrs: inlinehint nonlazybind uwtable
define internal { %"std::sys::unix::os_str::Slice"*, i64 } @_ZN3std3sys4unix6os_str5Slice13from_u8_slice17h5df5c890f175aeeeE([0 x i8]* nonnull align 1 %s.0, i64 %s.1) unnamed_addr #0 {
start:
  %0 = alloca { %"std::sys::unix::os_str::Slice"*, i64 }, align 8
  %1 = bitcast { %"std::sys::unix::os_str::Slice"*, i64 }* %0 to { [0 x i8]*, i64 }*
  %2 = getelementptr inbounds { [0 x i8]*, i64 }, { [0 x i8]*, i64 }* %1, i32 0, i32 0
  store [0 x i8]* %s.0, [0 x i8]** %2, align 8
  %3 = getelementptr inbounds { [0 x i8]*, i64 }, { [0 x i8]*, i64 }* %1, i32 0, i32 1
  store i64 %s.1, i64* %3, align 8
  %4 = getelementptr inbounds { %"std::sys::unix::os_str::Slice"*, i64 }, { %"std::sys::unix::os_str::Slice"*, i64 }* %0, i32 0, i32 0
  %5 = load %"std::sys::unix::os_str::Slice"*, %"std::sys::unix::os_str::Slice"** %4, align 8, !nonnull !3
  %6 = getelementptr inbounds { %"std::sys::unix::os_str::Slice"*, i64 }, { %"std::sys::unix::os_str::Slice"*, i64 }* %0, i32 0, i32 1
  %7 = load i64, i64* %6, align 8
  br label %bb1

bb1:                                              ; preds = %start
  %8 = insertvalue { %"std::sys::unix::os_str::Slice"*, i64 } undef, %"std::sys::unix::os_str::Slice"* %5, 0
  %9 = insertvalue { %"std::sys::unix::os_str::Slice"*, i64 } %8, i64 %7, 1
  ret { %"std::sys::unix::os_str::Slice"*, i64 } %9
}

; std::sys::unix::os_str::Slice::from_str
; Function Attrs: inlinehint nonlazybind uwtable
define internal { %"std::sys::unix::os_str::Slice"*, i64 } @_ZN3std3sys4unix6os_str5Slice8from_str17h005bc4336bd2de9cE([0 x i8]* nonnull align 1 %s.0, i64 %s.1) unnamed_addr #0 {
start:
  %0 = alloca { [0 x i8]*, i64 }, align 8
  %1 = getelementptr inbounds { [0 x i8]*, i64 }, { [0 x i8]*, i64 }* %0, i32 0, i32 0
  store [0 x i8]* %s.0, [0 x i8]** %1, align 8
  %2 = getelementptr inbounds { [0 x i8]*, i64 }, { [0 x i8]*, i64 }* %0, i32 0, i32 1
  store i64 %s.1, i64* %2, align 8
  %3 = getelementptr inbounds { [0 x i8]*, i64 }, { [0 x i8]*, i64 }* %0, i32 0, i32 0
  %4 = load [0 x i8]*, [0 x i8]** %3, align 8, !nonnull !3
  %5 = getelementptr inbounds { [0 x i8]*, i64 }, { [0 x i8]*, i64 }* %0, i32 0, i32 1
  %6 = load i64, i64* %5, align 8
  %7 = insertvalue { [0 x i8]*, i64 } undef, [0 x i8]* %4, 0
  %8 = insertvalue { [0 x i8]*, i64 } %7, i64 %6, 1
  %_3.0 = extractvalue { [0 x i8]*, i64 } %8, 0
  %_3.1 = extractvalue { [0 x i8]*, i64 } %8, 1
  br label %bb1

bb1:                                              ; preds = %start
; call std::sys::unix::os_str::Slice::from_u8_slice
  %9 = call { %"std::sys::unix::os_str::Slice"*, i64 } @_ZN3std3sys4unix6os_str5Slice13from_u8_slice17h5df5c890f175aeeeE([0 x i8]* nonnull align 1 %_3.0, i64 %_3.1)
  %10 = extractvalue { %"std::sys::unix::os_str::Slice"*, i64 } %9, 0
  %11 = extractvalue { %"std::sys::unix::os_str::Slice"*, i64 } %9, 1
  br label %bb2

bb2:                                              ; preds = %bb1
  %12 = insertvalue { %"std::sys::unix::os_str::Slice"*, i64 } undef, %"std::sys::unix::os_str::Slice"* %10, 0
  %13 = insertvalue { %"std::sys::unix::os_str::Slice"*, i64 } %12, i64 %11, 1
  ret { %"std::sys::unix::os_str::Slice"*, i64 } %13
}

; std::sys::unix::process::process_common::ExitCode::as_i32
; Function Attrs: inlinehint nonlazybind uwtable
define internal i32 @_ZN3std3sys4unix7process14process_common8ExitCode6as_i3217h05a465d6b8f2baa6E(i8* align 1 dereferenceable(1) %self) unnamed_addr #0 {
start:
  %_2 = load i8, i8* %self, align 1
  %0 = zext i8 %_2 to i32
  ret i32 %0
}

; core::cmp::impls::<impl core::cmp::PartialEq<&B> for &A>::eq
; Function Attrs: inlinehint nonlazybind uwtable
define internal zeroext i1 @"_ZN4core3cmp5impls69_$LT$impl$u20$core..cmp..PartialEq$LT$$RF$B$GT$$u20$for$u20$$RF$A$GT$2eq17h18d7be9db1e9998dE"({ [0 x i8]*, i64 }* align 8 dereferenceable(16) %self, { [0 x i8]*, i64 }* align 8 dereferenceable(16) %other) unnamed_addr #0 {
start:
  %0 = getelementptr inbounds { [0 x i8]*, i64 }, { [0 x i8]*, i64 }* %self, i32 0, i32 0
  %_3.0 = load [0 x i8]*, [0 x i8]** %0, align 8, !nonnull !3
  %1 = getelementptr inbounds { [0 x i8]*, i64 }, { [0 x i8]*, i64 }* %self, i32 0, i32 1
  %_3.1 = load i64, i64* %1, align 8
  %2 = getelementptr inbounds { [0 x i8]*, i64 }, { [0 x i8]*, i64 }* %other, i32 0, i32 0
  %_4.0 = load [0 x i8]*, [0 x i8]** %2, align 8, !nonnull !3
  %3 = getelementptr inbounds { [0 x i8]*, i64 }, { [0 x i8]*, i64 }* %other, i32 0, i32 1
  %_4.1 = load i64, i64* %3, align 8
; call core::slice::cmp::<impl core::cmp::PartialEq<[B]> for [A]>::eq
  %4 = call zeroext i1 @"_ZN4core5slice3cmp81_$LT$impl$u20$core..cmp..PartialEq$LT$$u5b$B$u5d$$GT$$u20$for$u20$$u5b$A$u5d$$GT$2eq17h967e0a238c2d61c8E"([0 x i8]* nonnull align 1 %_3.0, i64 %_3.1, [0 x i8]* nonnull align 1 %_4.0, i64 %_4.1)
  br label %bb1

bb1:                                              ; preds = %start
  ret i1 %4
}

; core::fmt::Arguments::new_v1
; Function Attrs: inlinehint nonlazybind uwtable
define internal void @_ZN4core3fmt9Arguments6new_v117h3a85c4253b490724E(%"core::fmt::Arguments"* noalias nocapture sret(%"core::fmt::Arguments") dereferenceable(48) %0, [0 x { [0 x i8]*, i64 }]* nonnull align 8 %pieces.0, i64 %pieces.1, [0 x { i8*, i64* }]* nonnull align 8 %args.0, i64 %args.1) unnamed_addr #0 {
start:
  %_16 = alloca { i64*, i64 }, align 8
  %_3 = alloca i8, align 1
  %_4 = icmp ult i64 %pieces.1, %args.1
  br i1 %_4, label %bb1, label %bb2

bb2:                                              ; preds = %start
  %_12 = add i64 %args.1, 1
  %_9 = icmp ugt i64 %pieces.1, %_12
  %1 = zext i1 %_9 to i8
  store i8 %1, i8* %_3, align 1
  br label %bb3

bb1:                                              ; preds = %start
  store i8 1, i8* %_3, align 1
  br label %bb3

bb3:                                              ; preds = %bb2, %bb1
  %2 = load i8, i8* %_3, align 1, !range !4
  %3 = trunc i8 %2 to i1
  br i1 %3, label %bb4, label %bb5

bb5:                                              ; preds = %bb3
  %4 = bitcast { i64*, i64 }* %_16 to {}**
  store {}* null, {}** %4, align 8
  %5 = bitcast %"core::fmt::Arguments"* %0 to { [0 x { [0 x i8]*, i64 }]*, i64 }*
  %6 = getelementptr inbounds { [0 x { [0 x i8]*, i64 }]*, i64 }, { [0 x { [0 x i8]*, i64 }]*, i64 }* %5, i32 0, i32 0
  store [0 x { [0 x i8]*, i64 }]* %pieces.0, [0 x { [0 x i8]*, i64 }]** %6, align 8
  %7 = getelementptr inbounds { [0 x { [0 x i8]*, i64 }]*, i64 }, { [0 x { [0 x i8]*, i64 }]*, i64 }* %5, i32 0, i32 1
  store i64 %pieces.1, i64* %7, align 8
  %8 = getelementptr inbounds %"core::fmt::Arguments", %"core::fmt::Arguments"* %0, i32 0, i32 1
  %9 = getelementptr inbounds { i64*, i64 }, { i64*, i64 }* %_16, i32 0, i32 0
  %10 = load i64*, i64** %9, align 8
  %11 = getelementptr inbounds { i64*, i64 }, { i64*, i64 }* %_16, i32 0, i32 1
  %12 = load i64, i64* %11, align 8
  %13 = getelementptr inbounds { i64*, i64 }, { i64*, i64 }* %8, i32 0, i32 0
  store i64* %10, i64** %13, align 8
  %14 = getelementptr inbounds { i64*, i64 }, { i64*, i64 }* %8, i32 0, i32 1
  store i64 %12, i64* %14, align 8
  %15 = getelementptr inbounds %"core::fmt::Arguments", %"core::fmt::Arguments"* %0, i32 0, i32 2
  %16 = getelementptr inbounds { [0 x { i8*, i64* }]*, i64 }, { [0 x { i8*, i64* }]*, i64 }* %15, i32 0, i32 0
  store [0 x { i8*, i64* }]* %args.0, [0 x { i8*, i64* }]** %16, align 8
  %17 = getelementptr inbounds { [0 x { i8*, i64* }]*, i64 }, { [0 x { i8*, i64* }]*, i64 }* %15, i32 0, i32 1
  store i64 %args.1, i64* %17, align 8
  ret void

bb4:                                              ; preds = %bb3
; call core::panicking::panic
  call void @_ZN4core9panicking5panic17hac91d6d33ac66361E([0 x i8]* nonnull align 1 bitcast (<{ [12 x i8] }>* @alloc42 to [0 x i8]*), i64 12, %"core::panic::location::Location"* align 8 dereferenceable(24) bitcast (<{ i8*, [16 x i8] }>* @alloc44 to %"core::panic::location::Location"*)) #8
  unreachable
}

; core::mem::size_of_val
; Function Attrs: inlinehint nonlazybind uwtable
define internal i64 @_ZN4core3mem11size_of_val17h632467a9194455ebE([0 x i8]* nonnull align 1 %val.0, i64 %val.1) unnamed_addr #0 {
start:
  %0 = alloca i64, align 8
  %1 = mul i64 %val.1, 1
  store i64 %1, i64* %0, align 8
  %2 = load i64, i64* %0, align 8
  br label %bb1

bb1:                                              ; preds = %start
  ret i64 %2
}

; core::num::nonzero::NonZeroUsize::new_unchecked
; Function Attrs: inlinehint nonlazybind uwtable
define internal i64 @_ZN4core3num7nonzero12NonZeroUsize13new_unchecked17hcf007904291afc86E(i64 %n) unnamed_addr #0 {
start:
  %0 = alloca i64, align 8
  store i64 %n, i64* %0, align 8
  %1 = load i64, i64* %0, align 8, !range !5
  ret i64 %1
}

; core::num::nonzero::NonZeroUsize::get
; Function Attrs: inlinehint nonlazybind uwtable
define internal i64 @_ZN4core3num7nonzero12NonZeroUsize3get17h9b16df28aae1ce21E(i64 %self) unnamed_addr #0 {
start:
  ret i64 %self
}

; core::ops::function::FnOnce::call_once{{vtable.shim}}
; Function Attrs: inlinehint nonlazybind uwtable
define internal i32 @"_ZN4core3ops8function6FnOnce40call_once$u7b$$u7b$vtable.shim$u7d$$u7d$17hb95f18a58a0dd44aE"(i64** %_1) unnamed_addr #0 {
start:
  %_2 = alloca {}, align 1
  %0 = load i64*, i64** %_1, align 8, !nonnull !3
; call core::ops::function::FnOnce::call_once
  %1 = call i32 @_ZN4core3ops8function6FnOnce9call_once17hf174d538db9f0687E(i64* nonnull %0)
  br label %bb1

bb1:                                              ; preds = %start
  ret i32 %1
}

; core::ops::function::FnOnce::call_once
; Function Attrs: inlinehint nonlazybind uwtable
define internal void @_ZN4core3ops8function6FnOnce9call_once17hbdaef532139a9be4E(void ()* nonnull %_1) unnamed_addr #0 {
start:
  %_2 = alloca {}, align 1
  call void %_1()
  br label %bb1

bb1:                                              ; preds = %start
  ret void
}

; core::ops::function::FnOnce::call_once
; Function Attrs: inlinehint nonlazybind uwtable
define internal i32 @_ZN4core3ops8function6FnOnce9call_once17hf174d538db9f0687E(i64* nonnull %0) unnamed_addr #0 personality i32 (i32, i32, i64, %"unwind::libunwind::_Unwind_Exception"*, %"unwind::libunwind::_Unwind_Context"*)* @rust_eh_personality {
start:
  %1 = alloca { i8*, i32 }, align 8
  %_2 = alloca {}, align 1
  %_1 = alloca i64*, align 8
  store i64* %0, i64** %_1, align 8
; invoke std::rt::lang_start::{{closure}}
  %2 = invoke i32 @"_ZN3std2rt10lang_start28_$u7b$$u7b$closure$u7d$$u7d$17h7295317749e851b0E"(i64** align 8 dereferenceable(8) %_1)
          to label %bb1 unwind label %cleanup

bb1:                                              ; preds = %start
  br label %bb2

bb3:                                              ; preds = %cleanup
  br label %bb4

cleanup:                                          ; preds = %start
  %3 = landingpad { i8*, i32 }
          cleanup
  %4 = extractvalue { i8*, i32 } %3, 0
  %5 = extractvalue { i8*, i32 } %3, 1
  %6 = getelementptr inbounds { i8*, i32 }, { i8*, i32 }* %1, i32 0, i32 0
  store i8* %4, i8** %6, align 8
  %7 = getelementptr inbounds { i8*, i32 }, { i8*, i32 }* %1, i32 0, i32 1
  store i32 %5, i32* %7, align 8
  br label %bb3

bb4:                                              ; preds = %bb3
  %8 = bitcast { i8*, i32 }* %1 to i8**
  %9 = load i8*, i8** %8, align 8
  %10 = getelementptr inbounds { i8*, i32 }, { i8*, i32 }* %1, i32 0, i32 1
  %11 = load i32, i32* %10, align 8
  %12 = insertvalue { i8*, i32 } undef, i8* %9, 0
  %13 = insertvalue { i8*, i32 } %12, i32 %11, 1
  resume { i8*, i32 } %13

bb2:                                              ; preds = %bb1
  ret i32 %2
}

; core::ptr::slice_from_raw_parts
; Function Attrs: inlinehint nonlazybind uwtable
define internal { [0 x i8]*, i64 } @_ZN4core3ptr20slice_from_raw_parts17h7c013632499fd229E(i8* %data, i64 %len) unnamed_addr #0 {
start:
; call core::ptr::const_ptr::<impl *const T>::cast
  %_3 = call {}* @"_ZN4core3ptr9const_ptr33_$LT$impl$u20$$BP$const$u20$T$GT$4cast17hce04ffaff1520c13E"(i8* %data)
  br label %bb1

bb1:                                              ; preds = %start
; call core::ptr::metadata::from_raw_parts
  %0 = call { [0 x i8]*, i64 } @_ZN4core3ptr8metadata14from_raw_parts17hb6f5b3c08b56a4f3E({}* %_3, i64 %len)
  %1 = extractvalue { [0 x i8]*, i64 } %0, 0
  %2 = extractvalue { [0 x i8]*, i64 } %0, 1
  br label %bb2

bb2:                                              ; preds = %bb1
  %3 = insertvalue { [0 x i8]*, i64 } undef, [0 x i8]* %1, 0
  %4 = insertvalue { [0 x i8]*, i64 } %3, i64 %2, 1
  ret { [0 x i8]*, i64 } %4
}

; core::ptr::slice_from_raw_parts_mut
; Function Attrs: inlinehint nonlazybind uwtable
define internal { [0 x i8]*, i64 } @_ZN4core3ptr24slice_from_raw_parts_mut17hef167c1b330bd2daE(i8* %data, i64 %len) unnamed_addr #0 {
start:
  %0 = bitcast i8* %data to {}*
  br label %bb1

bb1:                                              ; preds = %start
; call core::ptr::metadata::from_raw_parts_mut
  %1 = call { [0 x i8]*, i64 } @_ZN4core3ptr8metadata18from_raw_parts_mut17h09505e24f525090bE({}* %0, i64 %len)
  %2 = extractvalue { [0 x i8]*, i64 } %1, 0
  %3 = extractvalue { [0 x i8]*, i64 } %1, 1
  br label %bb2

bb2:                                              ; preds = %bb1
  %4 = insertvalue { [0 x i8]*, i64 } undef, [0 x i8]* %2, 0
  %5 = insertvalue { [0 x i8]*, i64 } %4, i64 %3, 1
  ret { [0 x i8]*, i64 } %5
}

; core::ptr::drop_in_place<std::env::VarError>
; Function Attrs: nonlazybind uwtable
define internal void @"_ZN4core3ptr39drop_in_place$LT$std..env..VarError$GT$17h99629bd95fda8381E"(%"std::env::VarError"* %_1) unnamed_addr #2 {
start:
  %0 = bitcast %"std::env::VarError"* %_1 to {}**
  %1 = load {}*, {}** %0, align 8
  %2 = icmp eq {}* %1, null
  %_2 = select i1 %2, i64 0, i64 1
  %3 = icmp eq i64 %_2, 0
  br i1 %3, label %bb1, label %bb2

bb1:                                              ; preds = %bb2, %start
  ret void

bb2:                                              ; preds = %start
  %4 = bitcast %"std::env::VarError"* %_1 to %"std::env::VarError::NotUnicode"*
  %5 = bitcast %"std::env::VarError::NotUnicode"* %4 to %"std::ffi::os_str::OsString"*
; call core::ptr::drop_in_place<std::ffi::os_str::OsString>
  call void @"_ZN4core3ptr47drop_in_place$LT$std..ffi..os_str..OsString$GT$17h7c95de1aeeb17637E"(%"std::ffi::os_str::OsString"* %5)
  br label %bb1
}

; core::ptr::drop_in_place<alloc::string::String>
; Function Attrs: nonlazybind uwtable
define internal void @"_ZN4core3ptr42drop_in_place$LT$alloc..string..String$GT$17h89c55cf58fcbf49aE"(%"alloc::string::String"* %_1) unnamed_addr #2 {
start:
  %0 = bitcast %"alloc::string::String"* %_1 to %"alloc::vec::Vec<u8>"*
; call core::ptr::drop_in_place<alloc::vec::Vec<u8>>
  call void @"_ZN4core3ptr46drop_in_place$LT$alloc..vec..Vec$LT$u8$GT$$GT$17h5124f11b9a151eedE"(%"alloc::vec::Vec<u8>"* %0)
  br label %bb1

bb1:                                              ; preds = %start
  ret void
}

; core::ptr::drop_in_place<alloc::vec::Vec<u8>>
; Function Attrs: nonlazybind uwtable
define internal void @"_ZN4core3ptr46drop_in_place$LT$alloc..vec..Vec$LT$u8$GT$$GT$17h5124f11b9a151eedE"(%"alloc::vec::Vec<u8>"* %_1) unnamed_addr #2 personality i32 (i32, i32, i64, %"unwind::libunwind::_Unwind_Exception"*, %"unwind::libunwind::_Unwind_Context"*)* @rust_eh_personality {
start:
  %0 = alloca { i8*, i32 }, align 8
; invoke <alloc::vec::Vec<T,A> as core::ops::drop::Drop>::drop
  invoke void @"_ZN70_$LT$alloc..vec..Vec$LT$T$C$A$GT$$u20$as$u20$core..ops..drop..Drop$GT$4drop17he15e7e5d24b6bf32E"(%"alloc::vec::Vec<u8>"* align 8 dereferenceable(24) %_1)
          to label %bb4 unwind label %cleanup

bb4:                                              ; preds = %start
  %1 = bitcast %"alloc::vec::Vec<u8>"* %_1 to { i8*, i64 }*
; call core::ptr::drop_in_place<alloc::raw_vec::RawVec<u8>>
  call void @"_ZN4core3ptr53drop_in_place$LT$alloc..raw_vec..RawVec$LT$u8$GT$$GT$17h39d56329a587cc70E"({ i8*, i64 }* %1)
  br label %bb2

bb3:                                              ; preds = %cleanup
  %2 = bitcast %"alloc::vec::Vec<u8>"* %_1 to { i8*, i64 }*
; call core::ptr::drop_in_place<alloc::raw_vec::RawVec<u8>>
  call void @"_ZN4core3ptr53drop_in_place$LT$alloc..raw_vec..RawVec$LT$u8$GT$$GT$17h39d56329a587cc70E"({ i8*, i64 }* %2) #9
  br label %bb1

cleanup:                                          ; preds = %start
  %3 = landingpad { i8*, i32 }
          cleanup
  %4 = extractvalue { i8*, i32 } %3, 0
  %5 = extractvalue { i8*, i32 } %3, 1
  %6 = getelementptr inbounds { i8*, i32 }, { i8*, i32 }* %0, i32 0, i32 0
  store i8* %4, i8** %6, align 8
  %7 = getelementptr inbounds { i8*, i32 }, { i8*, i32 }* %0, i32 0, i32 1
  store i32 %5, i32* %7, align 8
  br label %bb3

bb1:                                              ; preds = %bb3
  %8 = bitcast { i8*, i32 }* %0 to i8**
  %9 = load i8*, i8** %8, align 8
  %10 = getelementptr inbounds { i8*, i32 }, { i8*, i32 }* %0, i32 0, i32 1
  %11 = load i32, i32* %10, align 8
  %12 = insertvalue { i8*, i32 } undef, i8* %9, 0
  %13 = insertvalue { i8*, i32 } %12, i32 %11, 1
  resume { i8*, i32 } %13

bb2:                                              ; preds = %bb4
  ret void
}

; core::ptr::drop_in_place<std::ffi::os_str::OsString>
; Function Attrs: nonlazybind uwtable
define internal void @"_ZN4core3ptr47drop_in_place$LT$std..ffi..os_str..OsString$GT$17h7c95de1aeeb17637E"(%"std::ffi::os_str::OsString"* %_1) unnamed_addr #2 {
start:
  %0 = bitcast %"std::ffi::os_str::OsString"* %_1 to %"std::sys::unix::os_str::Buf"*
; call core::ptr::drop_in_place<std::sys::unix::os_str::Buf>
  call void @"_ZN4core3ptr48drop_in_place$LT$std..sys..unix..os_str..Buf$GT$17h3c1eea08e91b8e4aE"(%"std::sys::unix::os_str::Buf"* %0)
  br label %bb1

bb1:                                              ; preds = %start
  ret void
}

; core::ptr::drop_in_place<std::sys::unix::os_str::Buf>
; Function Attrs: nonlazybind uwtable
define internal void @"_ZN4core3ptr48drop_in_place$LT$std..sys..unix..os_str..Buf$GT$17h3c1eea08e91b8e4aE"(%"std::sys::unix::os_str::Buf"* %_1) unnamed_addr #2 {
start:
  %0 = bitcast %"std::sys::unix::os_str::Buf"* %_1 to %"alloc::vec::Vec<u8>"*
; call core::ptr::drop_in_place<alloc::vec::Vec<u8>>
  call void @"_ZN4core3ptr46drop_in_place$LT$alloc..vec..Vec$LT$u8$GT$$GT$17h5124f11b9a151eedE"(%"alloc::vec::Vec<u8>"* %0)
  br label %bb1

bb1:                                              ; preds = %start
  ret void
}

; core::ptr::drop_in_place<alloc::raw_vec::RawVec<u8>>
; Function Attrs: nonlazybind uwtable
define internal void @"_ZN4core3ptr53drop_in_place$LT$alloc..raw_vec..RawVec$LT$u8$GT$$GT$17h39d56329a587cc70E"({ i8*, i64 }* %_1) unnamed_addr #2 {
start:
; call <alloc::raw_vec::RawVec<T,A> as core::ops::drop::Drop>::drop
  call void @"_ZN77_$LT$alloc..raw_vec..RawVec$LT$T$C$A$GT$$u20$as$u20$core..ops..drop..Drop$GT$4drop17hf10592734cc87dd6E"({ i8*, i64 }* align 8 dereferenceable(16) %_1)
  br label %bb1

bb1:                                              ; preds = %start
  ret void
}

; core::ptr::unique::Unique<T>::new_unchecked
; Function Attrs: inlinehint nonlazybind uwtable
define internal nonnull i8* @"_ZN4core3ptr6unique15Unique$LT$T$GT$13new_unchecked17hcf58c1f5d98ab37dE"(i8* %ptr) unnamed_addr #0 {
start:
  %0 = alloca i8*, align 8
  store i8* %ptr, i8** %0, align 8
  %1 = load i8*, i8** %0, align 8, !nonnull !3
  ret i8* %1
}

; core::ptr::unique::Unique<T>::cast
; Function Attrs: inlinehint nonlazybind uwtable
define internal nonnull i8* @"_ZN4core3ptr6unique15Unique$LT$T$GT$4cast17hc49374e8055b11c4E"(i8* nonnull %self) unnamed_addr #0 {
start:
; call core::ptr::unique::Unique<T>::as_ptr
  %_3 = call i8* @"_ZN4core3ptr6unique15Unique$LT$T$GT$6as_ptr17h082e92a050c03afdE"(i8* nonnull %self)
  br label %bb1

bb1:                                              ; preds = %start
; call core::ptr::unique::Unique<T>::new_unchecked
  %0 = call nonnull i8* @"_ZN4core3ptr6unique15Unique$LT$T$GT$13new_unchecked17hcf58c1f5d98ab37dE"(i8* %_3)
  br label %bb2

bb2:                                              ; preds = %bb1
  ret i8* %0
}

; core::ptr::unique::Unique<T>::as_ptr
; Function Attrs: inlinehint nonlazybind uwtable
define internal i8* @"_ZN4core3ptr6unique15Unique$LT$T$GT$6as_ptr17h082e92a050c03afdE"(i8* nonnull %self) unnamed_addr #0 {
start:
  ret i8* %self
}

; core::ptr::mut_ptr::<impl *mut T>::guaranteed_eq
; Function Attrs: inlinehint nonlazybind uwtable
define internal zeroext i1 @"_ZN4core3ptr7mut_ptr31_$LT$impl$u20$$BP$mut$u20$T$GT$13guaranteed_eq17h86101f5671a00230E"(i8* %self, i8* %other) unnamed_addr #0 {
start:
  %0 = alloca i8, align 1
  %1 = icmp eq i8* %self, %other
  %2 = zext i1 %1 to i8
  store i8 %2, i8* %0, align 1
  %3 = load i8, i8* %0, align 1, !range !4
  %4 = trunc i8 %3 to i1
  br label %bb1

bb1:                                              ; preds = %start
  ret i1 %4
}

; core::ptr::mut_ptr::<impl *mut T>::is_null
; Function Attrs: inlinehint nonlazybind uwtable
define internal zeroext i1 @"_ZN4core3ptr7mut_ptr31_$LT$impl$u20$$BP$mut$u20$T$GT$7is_null17h97a7f3c021487631E"(i8* %self) unnamed_addr #0 {
start:
  br label %bb1

bb1:                                              ; preds = %start
; call core::ptr::mut_ptr::<impl *mut T>::guaranteed_eq
  %0 = call zeroext i1 @"_ZN4core3ptr7mut_ptr31_$LT$impl$u20$$BP$mut$u20$T$GT$13guaranteed_eq17h86101f5671a00230E"(i8* %self, i8* null)
  br label %bb2

bb2:                                              ; preds = %bb1
  ret i1 %0
}

; core::ptr::drop_in_place<std::rt::lang_start<()>::{{closure}}>
; Function Attrs: inlinehint nonlazybind uwtable
define internal void @"_ZN4core3ptr85drop_in_place$LT$std..rt..lang_start$LT$$LP$$RP$$GT$..$u7b$$u7b$closure$u7d$$u7d$$GT$17h3b17158f6dc79f97E"(i64** %_1) unnamed_addr #0 {
start:
  ret void
}

; core::ptr::metadata::from_raw_parts
; Function Attrs: inlinehint nonlazybind uwtable
define internal { [0 x i8]*, i64 } @_ZN4core3ptr8metadata14from_raw_parts17hb6f5b3c08b56a4f3E({}* %data_address, i64 %metadata) unnamed_addr #0 {
start:
  %_4 = alloca { i8*, i64 }, align 8
  %_3 = alloca %"core::ptr::metadata::PtrRepr<[u8]>", align 8
  %0 = bitcast { i8*, i64 }* %_4 to {}**
  store {}* %data_address, {}** %0, align 8
  %1 = getelementptr inbounds { i8*, i64 }, { i8*, i64 }* %_4, i32 0, i32 1
  store i64 %metadata, i64* %1, align 8
  %2 = bitcast %"core::ptr::metadata::PtrRepr<[u8]>"* %_3 to { i8*, i64 }*
  %3 = getelementptr inbounds { i8*, i64 }, { i8*, i64 }* %_4, i32 0, i32 0
  %4 = load i8*, i8** %3, align 8
  %5 = getelementptr inbounds { i8*, i64 }, { i8*, i64 }* %_4, i32 0, i32 1
  %6 = load i64, i64* %5, align 8
  %7 = getelementptr inbounds { i8*, i64 }, { i8*, i64 }* %2, i32 0, i32 0
  store i8* %4, i8** %7, align 8
  %8 = getelementptr inbounds { i8*, i64 }, { i8*, i64 }* %2, i32 0, i32 1
  store i64 %6, i64* %8, align 8
  %9 = bitcast %"core::ptr::metadata::PtrRepr<[u8]>"* %_3 to { [0 x i8]*, i64 }*
  %10 = getelementptr inbounds { [0 x i8]*, i64 }, { [0 x i8]*, i64 }* %9, i32 0, i32 0
  %11 = load [0 x i8]*, [0 x i8]** %10, align 8
  %12 = getelementptr inbounds { [0 x i8]*, i64 }, { [0 x i8]*, i64 }* %9, i32 0, i32 1
  %13 = load i64, i64* %12, align 8
  %14 = insertvalue { [0 x i8]*, i64 } undef, [0 x i8]* %11, 0
  %15 = insertvalue { [0 x i8]*, i64 } %14, i64 %13, 1
  ret { [0 x i8]*, i64 } %15
}

; core::ptr::metadata::from_raw_parts_mut
; Function Attrs: inlinehint nonlazybind uwtable
define internal { [0 x i8]*, i64 } @_ZN4core3ptr8metadata18from_raw_parts_mut17h09505e24f525090bE({}* %data_address, i64 %metadata) unnamed_addr #0 {
start:
  %_4 = alloca { i8*, i64 }, align 8
  %_3 = alloca %"core::ptr::metadata::PtrRepr<[u8]>", align 8
  %0 = bitcast { i8*, i64 }* %_4 to {}**
  store {}* %data_address, {}** %0, align 8
  %1 = getelementptr inbounds { i8*, i64 }, { i8*, i64 }* %_4, i32 0, i32 1
  store i64 %metadata, i64* %1, align 8
  %2 = bitcast %"core::ptr::metadata::PtrRepr<[u8]>"* %_3 to { i8*, i64 }*
  %3 = getelementptr inbounds { i8*, i64 }, { i8*, i64 }* %_4, i32 0, i32 0
  %4 = load i8*, i8** %3, align 8
  %5 = getelementptr inbounds { i8*, i64 }, { i8*, i64 }* %_4, i32 0, i32 1
  %6 = load i64, i64* %5, align 8
  %7 = getelementptr inbounds { i8*, i64 }, { i8*, i64 }* %2, i32 0, i32 0
  store i8* %4, i8** %7, align 8
  %8 = getelementptr inbounds { i8*, i64 }, { i8*, i64 }* %2, i32 0, i32 1
  store i64 %6, i64* %8, align 8
  %9 = bitcast %"core::ptr::metadata::PtrRepr<[u8]>"* %_3 to { [0 x i8]*, i64 }*
  %10 = getelementptr inbounds { [0 x i8]*, i64 }, { [0 x i8]*, i64 }* %9, i32 0, i32 0
  %11 = load [0 x i8]*, [0 x i8]** %10, align 8
  %12 = getelementptr inbounds { [0 x i8]*, i64 }, { [0 x i8]*, i64 }* %9, i32 0, i32 1
  %13 = load i64, i64* %12, align 8
  %14 = insertvalue { [0 x i8]*, i64 } undef, [0 x i8]* %11, 0
  %15 = insertvalue { [0 x i8]*, i64 } %14, i64 %13, 1
  ret { [0 x i8]*, i64 } %15
}

; core::ptr::non_null::NonNull<T>::new_unchecked
; Function Attrs: inlinehint nonlazybind uwtable
define internal nonnull i8* @"_ZN4core3ptr8non_null16NonNull$LT$T$GT$13new_unchecked17h6bdc0b9a79f7f393E"(i8* %ptr) unnamed_addr #0 {
start:
  %0 = alloca i8*, align 8
  store i8* %ptr, i8** %0, align 8
  %1 = load i8*, i8** %0, align 8, !nonnull !3
  ret i8* %1
}

; core::ptr::non_null::NonNull<T>::as_ptr
; Function Attrs: inlinehint nonlazybind uwtable
define internal i8* @"_ZN4core3ptr8non_null16NonNull$LT$T$GT$6as_ptr17hc65c1b1c749f6bacE"(i8* nonnull %self) unnamed_addr #0 {
start:
  ret i8* %self
}

; core::ptr::const_ptr::<impl *const T>::cast
; Function Attrs: inlinehint nonlazybind uwtable
define internal {}* @"_ZN4core3ptr9const_ptr33_$LT$impl$u20$$BP$const$u20$T$GT$4cast17hce04ffaff1520c13E"(i8* %self) unnamed_addr #0 {
start:
  %0 = bitcast i8* %self to {}*
  ret {}* %0
}

; core::str::traits::<impl core::cmp::PartialEq for str>::eq
; Function Attrs: inlinehint nonlazybind uwtable
define internal zeroext i1 @"_ZN4core3str6traits54_$LT$impl$u20$core..cmp..PartialEq$u20$for$u20$str$GT$2eq17h31fc356463e90318E"([0 x i8]* nonnull align 1 %self.0, i64 %self.1, [0 x i8]* nonnull align 1 %other.0, i64 %other.1) unnamed_addr #0 {
start:
  %0 = alloca { [0 x i8]*, i64 }, align 8
  %1 = alloca { [0 x i8]*, i64 }, align 8
  %_7 = alloca { [0 x i8]*, i64 }, align 8
  %_4 = alloca { [0 x i8]*, i64 }, align 8
  %2 = getelementptr inbounds { [0 x i8]*, i64 }, { [0 x i8]*, i64 }* %0, i32 0, i32 0
  store [0 x i8]* %self.0, [0 x i8]** %2, align 8
  %3 = getelementptr inbounds { [0 x i8]*, i64 }, { [0 x i8]*, i64 }* %0, i32 0, i32 1
  store i64 %self.1, i64* %3, align 8
  %4 = getelementptr inbounds { [0 x i8]*, i64 }, { [0 x i8]*, i64 }* %0, i32 0, i32 0
  %5 = load [0 x i8]*, [0 x i8]** %4, align 8, !nonnull !3
  %6 = getelementptr inbounds { [0 x i8]*, i64 }, { [0 x i8]*, i64 }* %0, i32 0, i32 1
  %7 = load i64, i64* %6, align 8
  %8 = insertvalue { [0 x i8]*, i64 } undef, [0 x i8]* %5, 0
  %9 = insertvalue { [0 x i8]*, i64 } %8, i64 %7, 1
  store { [0 x i8]*, i64 } %9, { [0 x i8]*, i64 }* %_4, align 8
  br label %bb1

bb1:                                              ; preds = %start
  %10 = getelementptr inbounds { [0 x i8]*, i64 }, { [0 x i8]*, i64 }* %1, i32 0, i32 0
  store [0 x i8]* %other.0, [0 x i8]** %10, align 8
  %11 = getelementptr inbounds { [0 x i8]*, i64 }, { [0 x i8]*, i64 }* %1, i32 0, i32 1
  store i64 %other.1, i64* %11, align 8
  %12 = getelementptr inbounds { [0 x i8]*, i64 }, { [0 x i8]*, i64 }* %1, i32 0, i32 0
  %13 = load [0 x i8]*, [0 x i8]** %12, align 8, !nonnull !3
  %14 = getelementptr inbounds { [0 x i8]*, i64 }, { [0 x i8]*, i64 }* %1, i32 0, i32 1
  %15 = load i64, i64* %14, align 8
  %16 = insertvalue { [0 x i8]*, i64 } undef, [0 x i8]* %13, 0
  %17 = insertvalue { [0 x i8]*, i64 } %16, i64 %15, 1
  store { [0 x i8]*, i64 } %17, { [0 x i8]*, i64 }* %_7, align 8
  br label %bb2

bb2:                                              ; preds = %bb1
; call core::cmp::impls::<impl core::cmp::PartialEq<&B> for &A>::eq
  %18 = call zeroext i1 @"_ZN4core3cmp5impls69_$LT$impl$u20$core..cmp..PartialEq$LT$$RF$B$GT$$u20$for$u20$$RF$A$GT$2eq17h18d7be9db1e9998dE"({ [0 x i8]*, i64 }* align 8 dereferenceable(16) %_4, { [0 x i8]*, i64 }* align 8 dereferenceable(16) %_7)
  br label %bb3

bb3:                                              ; preds = %bb2
  ret i1 %18
}

; core::str::traits::<impl core::cmp::PartialEq for str>::ne
; Function Attrs: inlinehint nonlazybind uwtable
define internal zeroext i1 @"_ZN4core3str6traits54_$LT$impl$u20$core..cmp..PartialEq$u20$for$u20$str$GT$2ne17h2e282e79b459d883E"([0 x i8]* nonnull align 1 %self.0, i64 %self.1, [0 x i8]* nonnull align 1 %other.0, i64 %other.1) unnamed_addr #0 {
start:
; call core::str::traits::<impl core::cmp::PartialEq for str>::eq
  %_3 = call zeroext i1 @"_ZN4core3str6traits54_$LT$impl$u20$core..cmp..PartialEq$u20$for$u20$str$GT$2eq17h31fc356463e90318E"([0 x i8]* nonnull align 1 %self.0, i64 %self.1, [0 x i8]* nonnull align 1 %other.0, i64 %other.1)
  br label %bb1

bb1:                                              ; preds = %start
  %0 = xor i1 %_3, true
  ret i1 %0
}

; core::str::traits::<impl core::ops::index::Index<I> for str>::index
; Function Attrs: inlinehint nonlazybind uwtable
define internal { [0 x i8]*, i64 } @"_ZN4core3str6traits66_$LT$impl$u20$core..ops..index..Index$LT$I$GT$$u20$for$u20$str$GT$5index17h08bbb7ee457fa250E"([0 x i8]* nonnull align 1 %self.0, i64 %self.1, %"core::panic::location::Location"* align 8 dereferenceable(24) %0) unnamed_addr #0 {
start:
; call core::str::traits::<impl core::slice::index::SliceIndex<str> for core::ops::range::RangeFull>::index
  %1 = call { [0 x i8]*, i64 } @"_ZN4core3str6traits99_$LT$impl$u20$core..slice..index..SliceIndex$LT$str$GT$$u20$for$u20$core..ops..range..RangeFull$GT$5index17h98ba67e117c0aca6E"([0 x i8]* nonnull align 1 %self.0, i64 %self.1, %"core::panic::location::Location"* align 8 dereferenceable(24) %0)
  %2 = extractvalue { [0 x i8]*, i64 } %1, 0
  %3 = extractvalue { [0 x i8]*, i64 } %1, 1
  br label %bb1

bb1:                                              ; preds = %start
  %4 = insertvalue { [0 x i8]*, i64 } undef, [0 x i8]* %2, 0
  %5 = insertvalue { [0 x i8]*, i64 } %4, i64 %3, 1
  ret { [0 x i8]*, i64 } %5
}

; core::str::traits::<impl core::slice::index::SliceIndex<str> for core::ops::range::RangeFull>::index
; Function Attrs: inlinehint nonlazybind uwtable
define internal { [0 x i8]*, i64 } @"_ZN4core3str6traits99_$LT$impl$u20$core..slice..index..SliceIndex$LT$str$GT$$u20$for$u20$core..ops..range..RangeFull$GT$5index17h98ba67e117c0aca6E"([0 x i8]* nonnull align 1 %slice.0, i64 %slice.1, %"core::panic::location::Location"* align 8 dereferenceable(24) %0) unnamed_addr #0 {
start:
  %1 = insertvalue { [0 x i8]*, i64 } undef, [0 x i8]* %slice.0, 0
  %2 = insertvalue { [0 x i8]*, i64 } %1, i64 %slice.1, 1
  ret { [0 x i8]*, i64 } %2
}

; core::str::converts::from_utf8_unchecked
; Function Attrs: inlinehint nonlazybind uwtable
define internal { [0 x i8]*, i64 } @_ZN4core3str8converts19from_utf8_unchecked17hf53b62630479be22E([0 x i8]* nonnull align 1 %v.0, i64 %v.1) unnamed_addr #0 {
start:
  %0 = alloca { [0 x i8]*, i64 }, align 8
  %1 = getelementptr inbounds { [0 x i8]*, i64 }, { [0 x i8]*, i64 }* %0, i32 0, i32 0
  store [0 x i8]* %v.0, [0 x i8]** %1, align 8
  %2 = getelementptr inbounds { [0 x i8]*, i64 }, { [0 x i8]*, i64 }* %0, i32 0, i32 1
  store i64 %v.1, i64* %2, align 8
  %3 = getelementptr inbounds { [0 x i8]*, i64 }, { [0 x i8]*, i64 }* %0, i32 0, i32 0
  %4 = load [0 x i8]*, [0 x i8]** %3, align 8, !nonnull !3
  %5 = getelementptr inbounds { [0 x i8]*, i64 }, { [0 x i8]*, i64 }* %0, i32 0, i32 1
  %6 = load i64, i64* %5, align 8
  br label %bb1

bb1:                                              ; preds = %start
  %7 = insertvalue { [0 x i8]*, i64 } undef, [0 x i8]* %4, 0
  %8 = insertvalue { [0 x i8]*, i64 } %7, i64 %6, 1
  ret { [0 x i8]*, i64 } %8
}

; core::hint::black_box
; Function Attrs: inlinehint nonlazybind uwtable
define internal void @_ZN4core4hint9black_box17h15a0fddae87510e1E() unnamed_addr #0 {
start:
  call void asm sideeffect "", "r,~{memory}"({}* undef), !srcloc !6
  br label %bb1

bb1:                                              ; preds = %start
  ret void
}

; core::alloc::layout::Layout::from_size_align_unchecked
; Function Attrs: inlinehint nonlazybind uwtable
define internal { i64, i64 } @_ZN4core5alloc6layout6Layout25from_size_align_unchecked17hf264996cf21056ecE(i64 %size, i64 %align) unnamed_addr #0 {
start:
  %0 = alloca { i64, i64 }, align 8
; call core::num::nonzero::NonZeroUsize::new_unchecked
  %_4 = call i64 @_ZN4core3num7nonzero12NonZeroUsize13new_unchecked17hcf007904291afc86E(i64 %align), !range !5
  br label %bb1

bb1:                                              ; preds = %start
  %1 = bitcast { i64, i64 }* %0 to i64*
  store i64 %size, i64* %1, align 8
  %2 = getelementptr inbounds { i64, i64 }, { i64, i64 }* %0, i32 0, i32 1
  store i64 %_4, i64* %2, align 8
  %3 = getelementptr inbounds { i64, i64 }, { i64, i64 }* %0, i32 0, i32 0
  %4 = load i64, i64* %3, align 8
  %5 = getelementptr inbounds { i64, i64 }, { i64, i64 }* %0, i32 0, i32 1
  %6 = load i64, i64* %5, align 8, !range !5
  %7 = insertvalue { i64, i64 } undef, i64 %4, 0
  %8 = insertvalue { i64, i64 } %7, i64 %6, 1
  ret { i64, i64 } %8
}

; core::alloc::layout::Layout::size
; Function Attrs: inlinehint nonlazybind uwtable
define internal i64 @_ZN4core5alloc6layout6Layout4size17h1bcb2e951eefb363E({ i64, i64 }* align 8 dereferenceable(16) %self) unnamed_addr #0 {
start:
  %0 = bitcast { i64, i64 }* %self to i64*
  %1 = load i64, i64* %0, align 8
  ret i64 %1
}

; core::alloc::layout::Layout::align
; Function Attrs: inlinehint nonlazybind uwtable
define internal i64 @_ZN4core5alloc6layout6Layout5align17h82298f760ecbc0edE({ i64, i64 }* align 8 dereferenceable(16) %self) unnamed_addr #0 {
start:
  %0 = getelementptr inbounds { i64, i64 }, { i64, i64 }* %self, i32 0, i32 1
  %_2 = load i64, i64* %0, align 8, !range !5
; call core::num::nonzero::NonZeroUsize::get
  %1 = call i64 @_ZN4core3num7nonzero12NonZeroUsize3get17h9b16df28aae1ce21E(i64 %_2)
  br label %bb1

bb1:                                              ; preds = %start
  ret i64 %1
}

; core::slice::<impl [T]>::as_ptr
; Function Attrs: inlinehint nonlazybind uwtable
define internal i8* @"_ZN4core5slice29_$LT$impl$u20$$u5b$T$u5d$$GT$6as_ptr17h473708df924f4423E"([0 x i8]* nonnull align 1 %self.0, i64 %self.1) unnamed_addr #0 {
start:
  %0 = bitcast [0 x i8]* %self.0 to i8*
  ret i8* %0
}

; core::slice::cmp::<impl core::cmp::PartialEq<[B]> for [A]>::eq
; Function Attrs: nonlazybind uwtable
define internal zeroext i1 @"_ZN4core5slice3cmp81_$LT$impl$u20$core..cmp..PartialEq$LT$$u5b$B$u5d$$GT$$u20$for$u20$$u5b$A$u5d$$GT$2eq17h967e0a238c2d61c8E"([0 x i8]* nonnull align 1 %self.0, i64 %self.1, [0 x i8]* nonnull align 1 %other.0, i64 %other.1) unnamed_addr #2 {
start:
; call <[A] as core::slice::cmp::SlicePartialEq<B>>::equal
  %0 = call zeroext i1 @"_ZN73_$LT$$u5b$A$u5d$$u20$as$u20$core..slice..cmp..SlicePartialEq$LT$B$GT$$GT$5equal17h61f49d104d7d8f0aE"([0 x i8]* nonnull align 1 %self.0, i64 %self.1, [0 x i8]* nonnull align 1 %other.0, i64 %other.1)
  br label %bb1

bb1:                                              ; preds = %start
  ret i1 %0
}

; core::slice::raw::from_raw_parts
; Function Attrs: inlinehint nonlazybind uwtable
define internal { [0 x i8]*, i64 } @_ZN4core5slice3raw14from_raw_parts17h3ae06b3599fadee3E(i8* %data, i64 %len) unnamed_addr #0 {
start:
; call core::slice::raw::debug_check_data_len
  call void @_ZN4core5slice3raw20debug_check_data_len17h4f9d4d38f5a3e4dfE(i8* %data, i64 %len)
  br label %bb1

bb1:                                              ; preds = %start
; call core::ptr::slice_from_raw_parts
  %0 = call { [0 x i8]*, i64 } @_ZN4core3ptr20slice_from_raw_parts17h7c013632499fd229E(i8* %data, i64 %len)
  %_6.0 = extractvalue { [0 x i8]*, i64 } %0, 0
  %_6.1 = extractvalue { [0 x i8]*, i64 } %0, 1
  br label %bb2

bb2:                                              ; preds = %bb1
  %1 = insertvalue { [0 x i8]*, i64 } undef, [0 x i8]* %_6.0, 0
  %2 = insertvalue { [0 x i8]*, i64 } %1, i64 %_6.1, 1
  ret { [0 x i8]*, i64 } %2
}

; core::slice::raw::debug_check_data_len
; Function Attrs: nonlazybind uwtable
define internal void @_ZN4core5slice3raw20debug_check_data_len17h4f9d4d38f5a3e4dfE(i8* %_data, i64 %_len) unnamed_addr #2 {
start:
  ret void
}

; core::result::Result<T,E>::unwrap
; Function Attrs: inlinehint nonlazybind uwtable
define internal void @"_ZN4core6result19Result$LT$T$C$E$GT$6unwrap17h7587ad8502fc3818E"(%"alloc::string::String"* noalias nocapture sret(%"alloc::string::String") dereferenceable(24) %t, %"core::result::Result<alloc::string::String, std::env::VarError>"* noalias nocapture dereferenceable(32) %self, %"core::panic::location::Location"* align 8 dereferenceable(24) %0) unnamed_addr #0 personality i32 (i32, i32, i64, %"unwind::libunwind::_Unwind_Exception"*, %"unwind::libunwind::_Unwind_Context"*)* @rust_eh_personality {
start:
  %1 = alloca { i8*, i32 }, align 8
  %e = alloca %"std::env::VarError", align 8
  %2 = bitcast %"core::result::Result<alloc::string::String, std::env::VarError>"* %self to i64*
  %_2 = load i64, i64* %2, align 8, !range !7
  switch i64 %_2, label %bb2 [
    i64 0, label %bb3
    i64 1, label %bb1
  ]

bb2:                                              ; preds = %start
  unreachable

bb3:                                              ; preds = %start
  %3 = bitcast %"core::result::Result<alloc::string::String, std::env::VarError>"* %self to %"core::result::Result<alloc::string::String, std::env::VarError>::Ok"*
  %4 = getelementptr inbounds %"core::result::Result<alloc::string::String, std::env::VarError>::Ok", %"core::result::Result<alloc::string::String, std::env::VarError>::Ok"* %3, i32 0, i32 1
  %5 = bitcast %"alloc::string::String"* %t to i8*
  %6 = bitcast %"alloc::string::String"* %4 to i8*
  call void @llvm.memcpy.p0i8.p0i8.i64(i8* align 8 %5, i8* align 8 %6, i64 24, i1 false)
  ret void

bb1:                                              ; preds = %start
  %7 = bitcast %"core::result::Result<alloc::string::String, std::env::VarError>"* %self to %"core::result::Result<alloc::string::String, std::env::VarError>::Err"*
  %8 = getelementptr inbounds %"core::result::Result<alloc::string::String, std::env::VarError>::Err", %"core::result::Result<alloc::string::String, std::env::VarError>::Err"* %7, i32 0, i32 1
  %9 = bitcast %"std::env::VarError"* %e to i8*
  %10 = bitcast %"std::env::VarError"* %8 to i8*
  call void @llvm.memcpy.p0i8.p0i8.i64(i8* align 8 %9, i8* align 8 %10, i64 24, i1 false)
  %_6.0 = bitcast %"std::env::VarError"* %e to {}*
; invoke core::result::unwrap_failed
  invoke void @_ZN4core6result13unwrap_failed17hddb26cddfa4f23d4E([0 x i8]* nonnull align 1 bitcast (<{ [43 x i8] }>* @alloc45 to [0 x i8]*), i64 43, {}* nonnull align 1 %_6.0, [3 x i64]* align 8 dereferenceable(24) bitcast (<{ i8*, [16 x i8], i8*, [0 x i8] }>* @vtable.1 to [3 x i64]*), %"core::panic::location::Location"* align 8 dereferenceable(24) %0) #8
          to label %unreachable unwind label %cleanup

unreachable:                                      ; preds = %bb1
  unreachable

bb4:                                              ; preds = %cleanup
; call core::ptr::drop_in_place<std::env::VarError>
  call void @"_ZN4core3ptr39drop_in_place$LT$std..env..VarError$GT$17h99629bd95fda8381E"(%"std::env::VarError"* %e) #9
  br label %bb5

cleanup:                                          ; preds = %bb1
  %11 = landingpad { i8*, i32 }
          cleanup
  %12 = extractvalue { i8*, i32 } %11, 0
  %13 = extractvalue { i8*, i32 } %11, 1
  %14 = getelementptr inbounds { i8*, i32 }, { i8*, i32 }* %1, i32 0, i32 0
  store i8* %12, i8** %14, align 8
  %15 = getelementptr inbounds { i8*, i32 }, { i8*, i32 }* %1, i32 0, i32 1
  store i32 %13, i32* %15, align 8
  br label %bb4

bb5:                                              ; preds = %bb4
  %16 = bitcast { i8*, i32 }* %1 to i8**
  %17 = load i8*, i8** %16, align 8
  %18 = getelementptr inbounds { i8*, i32 }, { i8*, i32 }* %1, i32 0, i32 1
  %19 = load i32, i32* %18, align 8
  %20 = insertvalue { i8*, i32 } undef, i8* %17, 0
  %21 = insertvalue { i8*, i32 } %20, i32 %19, 1
  resume { i8*, i32 } %21
}

; <T as core::convert::Into<U>>::into
; Function Attrs: nonlazybind uwtable
define internal nonnull i8* @"_ZN50_$LT$T$u20$as$u20$core..convert..Into$LT$U$GT$$GT$4into17h480e50d07f611f54E"(i8* nonnull %self) unnamed_addr #2 {
start:
; call <core::ptr::non_null::NonNull<T> as core::convert::From<core::ptr::unique::Unique<T>>>::from
  %0 = call nonnull i8* @"_ZN119_$LT$core..ptr..non_null..NonNull$LT$T$GT$$u20$as$u20$core..convert..From$LT$core..ptr..unique..Unique$LT$T$GT$$GT$$GT$4from17h9d45afd5f31ae36cE"(i8* nonnull %self)
  br label %bb1

bb1:                                              ; preds = %start
  ret i8* %0
}

; <() as std::process::Termination>::report
; Function Attrs: inlinehint nonlazybind uwtable
define internal i32 @"_ZN54_$LT$$LP$$RP$$u20$as$u20$std..process..Termination$GT$6report17hd7b3f1a4f9b0bbe3E"() unnamed_addr #0 {
start:
; call <std::process::ExitCode as std::process::Termination>::report
  %0 = call i32 @"_ZN68_$LT$std..process..ExitCode$u20$as$u20$std..process..Termination$GT$6report17h3df80fc2f1775ffbE"(i8 0)
  br label %bb1

bb1:                                              ; preds = %start
  ret i32 %0
}

; <&T as core::convert::AsRef<U>>::as_ref
; Function Attrs: nonlazybind uwtable
define internal { %"std::ffi::os_str::OsStr"*, i64 } @"_ZN55_$LT$$RF$T$u20$as$u20$core..convert..AsRef$LT$U$GT$$GT$6as_ref17h2f005362f4e05621E"({ [0 x i8]*, i64 }* align 8 dereferenceable(16) %self) unnamed_addr #2 {
start:
  %0 = getelementptr inbounds { [0 x i8]*, i64 }, { [0 x i8]*, i64 }* %self, i32 0, i32 0
  %_2.0 = load [0 x i8]*, [0 x i8]** %0, align 8, !nonnull !3
  %1 = getelementptr inbounds { [0 x i8]*, i64 }, { [0 x i8]*, i64 }* %self, i32 0, i32 1
  %_2.1 = load i64, i64* %1, align 8
; call std::ffi::os_str::<impl core::convert::AsRef<std::ffi::os_str::OsStr> for str>::as_ref
  %2 = call { %"std::ffi::os_str::OsStr"*, i64 } @"_ZN3std3ffi6os_str85_$LT$impl$u20$core..convert..AsRef$LT$std..ffi..os_str..OsStr$GT$$u20$for$u20$str$GT$6as_ref17hde2f0a0458444211E"([0 x i8]* nonnull align 1 %_2.0, i64 %_2.1)
  %3 = extractvalue { %"std::ffi::os_str::OsStr"*, i64 } %2, 0
  %4 = extractvalue { %"std::ffi::os_str::OsStr"*, i64 } %2, 1
  br label %bb1

bb1:                                              ; preds = %start
  %5 = insertvalue { %"std::ffi::os_str::OsStr"*, i64 } undef, %"std::ffi::os_str::OsStr"* %3, 0
  %6 = insertvalue { %"std::ffi::os_str::OsStr"*, i64 } %5, i64 %4, 1
  ret { %"std::ffi::os_str::OsStr"*, i64 } %6
}

; alloc::vec::Vec<T,A>::as_mut_ptr
; Function Attrs: inlinehint nonlazybind uwtable
define internal i8* @"_ZN5alloc3vec16Vec$LT$T$C$A$GT$10as_mut_ptr17h73a634b09e3a9a3eE"(%"alloc::vec::Vec<u8>"* align 8 dereferenceable(24) %self) unnamed_addr #0 {
start:
  %_2 = bitcast %"alloc::vec::Vec<u8>"* %self to { i8*, i64 }*
; call alloc::raw_vec::RawVec<T,A>::ptr
  %ptr = call i8* @"_ZN5alloc7raw_vec19RawVec$LT$T$C$A$GT$3ptr17hd9fed47b376bfc50E"({ i8*, i64 }* align 8 dereferenceable(16) %_2)
  br label %bb1

bb1:                                              ; preds = %start
; call core::ptr::mut_ptr::<impl *mut T>::is_null
  %_5 = call zeroext i1 @"_ZN4core3ptr7mut_ptr31_$LT$impl$u20$$BP$mut$u20$T$GT$7is_null17h97a7f3c021487631E"(i8* %ptr)
  br label %bb2

bb2:                                              ; preds = %bb1
  %_4 = xor i1 %_5, true
  call void @llvm.assume(i1 %_4)
  br label %bb3

bb3:                                              ; preds = %bb2
  ret i8* %ptr
}

; alloc::vec::Vec<T,A>::as_ptr
; Function Attrs: inlinehint nonlazybind uwtable
define internal i8* @"_ZN5alloc3vec16Vec$LT$T$C$A$GT$6as_ptr17h696969ee6822061dE"(%"alloc::vec::Vec<u8>"* align 8 dereferenceable(24) %self) unnamed_addr #0 {
start:
  %_3 = bitcast %"alloc::vec::Vec<u8>"* %self to { i8*, i64 }*
; call alloc::raw_vec::RawVec<T,A>::ptr
  %ptr = call i8* @"_ZN5alloc7raw_vec19RawVec$LT$T$C$A$GT$3ptr17hd9fed47b376bfc50E"({ i8*, i64 }* align 8 dereferenceable(16) %_3)
  br label %bb1

bb1:                                              ; preds = %start
; call core::ptr::mut_ptr::<impl *mut T>::is_null
  %_6 = call zeroext i1 @"_ZN4core3ptr7mut_ptr31_$LT$impl$u20$$BP$mut$u20$T$GT$7is_null17h97a7f3c021487631E"(i8* %ptr)
  br label %bb2

bb2:                                              ; preds = %bb1
  %_5 = xor i1 %_6, true
  call void @llvm.assume(i1 %_5)
  br label %bb3

bb3:                                              ; preds = %bb2
  ret i8* %ptr
}

; alloc::alloc::dealloc
; Function Attrs: inlinehint nonlazybind uwtable
define internal void @_ZN5alloc5alloc7dealloc17hc6783d4087490090E(i8* %ptr, i64 %0, i64 %1) unnamed_addr #0 {
start:
  %layout = alloca { i64, i64 }, align 8
  %2 = getelementptr inbounds { i64, i64 }, { i64, i64 }* %layout, i32 0, i32 0
  store i64 %0, i64* %2, align 8
  %3 = getelementptr inbounds { i64, i64 }, { i64, i64 }* %layout, i32 0, i32 1
  store i64 %1, i64* %3, align 8
; call core::alloc::layout::Layout::size
  %_4 = call i64 @_ZN4core5alloc6layout6Layout4size17h1bcb2e951eefb363E({ i64, i64 }* align 8 dereferenceable(16) %layout)
  br label %bb1

bb1:                                              ; preds = %start
; call core::alloc::layout::Layout::align
  %_6 = call i64 @_ZN4core5alloc6layout6Layout5align17h82298f760ecbc0edE({ i64, i64 }* align 8 dereferenceable(16) %layout)
  br label %bb2

bb2:                                              ; preds = %bb1
  call void @__rust_dealloc(i8* %ptr, i64 %_4, i64 %_6) #10
  br label %bb3

bb3:                                              ; preds = %bb2
  ret void
}

; alloc::raw_vec::RawVec<T,A>::current_memory
; Function Attrs: nonlazybind uwtable
define internal void @"_ZN5alloc7raw_vec19RawVec$LT$T$C$A$GT$14current_memory17h2afc99eb141adfb3E"(%"core::option::Option<(core::ptr::non_null::NonNull<u8>, core::alloc::layout::Layout)>"* noalias nocapture sret(%"core::option::Option<(core::ptr::non_null::NonNull<u8>, core::alloc::layout::Layout)>") dereferenceable(24) %0, { i8*, i64 }* align 8 dereferenceable(16) %self) unnamed_addr #2 {
start:
  %_13 = alloca { i8*, { i64, i64 } }, align 8
  %_2 = alloca i8, align 1
  br label %bb4

bb4:                                              ; preds = %start
  %1 = icmp eq i64 1, 0
  br i1 %1, label %bb1, label %bb2

bb1:                                              ; preds = %bb4
  store i8 1, i8* %_2, align 1
  br label %bb3

bb2:                                              ; preds = %bb4
  %2 = getelementptr inbounds { i8*, i64 }, { i8*, i64 }* %self, i32 0, i32 1
  %_5 = load i64, i64* %2, align 8
  %_4 = icmp eq i64 %_5, 0
  %3 = zext i1 %_4 to i8
  store i8 %3, i8* %_2, align 1
  br label %bb3

bb3:                                              ; preds = %bb1, %bb2
  %4 = load i8, i8* %_2, align 1, !range !4
  %5 = trunc i8 %4 to i1
  br i1 %5, label %bb5, label %bb6

bb6:                                              ; preds = %bb3
  br label %bb7

bb5:                                              ; preds = %bb3
  %6 = bitcast %"core::option::Option<(core::ptr::non_null::NonNull<u8>, core::alloc::layout::Layout)>"* %0 to {}**
  store {}* null, {}** %6, align 8
  br label %bb12

bb12:                                             ; preds = %bb11, %bb5
  ret void

bb7:                                              ; preds = %bb6
  br label %bb8

bb8:                                              ; preds = %bb7
  %7 = getelementptr inbounds { i8*, i64 }, { i8*, i64 }* %self, i32 0, i32 1
  %_9 = load i64, i64* %7, align 8
  %size = mul i64 1, %_9
; call core::alloc::layout::Layout::from_size_align_unchecked
  %8 = call { i64, i64 } @_ZN4core5alloc6layout6Layout25from_size_align_unchecked17hf264996cf21056ecE(i64 %size, i64 1)
  %layout.0 = extractvalue { i64, i64 } %8, 0
  %layout.1 = extractvalue { i64, i64 } %8, 1
  br label %bb9

bb9:                                              ; preds = %bb8
  %9 = bitcast { i8*, i64 }* %self to i8**
  %_16 = load i8*, i8** %9, align 8, !nonnull !3
; call core::ptr::unique::Unique<T>::cast
  %_15 = call nonnull i8* @"_ZN4core3ptr6unique15Unique$LT$T$GT$4cast17hc49374e8055b11c4E"(i8* nonnull %_16)
  br label %bb10

bb10:                                             ; preds = %bb9
; call <T as core::convert::Into<U>>::into
  %_14 = call nonnull i8* @"_ZN50_$LT$T$u20$as$u20$core..convert..Into$LT$U$GT$$GT$4into17h480e50d07f611f54E"(i8* nonnull %_15)
  br label %bb11

bb11:                                             ; preds = %bb10
  %10 = bitcast { i8*, { i64, i64 } }* %_13 to i8**
  store i8* %_14, i8** %10, align 8
  %11 = getelementptr inbounds { i8*, { i64, i64 } }, { i8*, { i64, i64 } }* %_13, i32 0, i32 1
  %12 = getelementptr inbounds { i64, i64 }, { i64, i64 }* %11, i32 0, i32 0
  store i64 %layout.0, i64* %12, align 8
  %13 = getelementptr inbounds { i64, i64 }, { i64, i64 }* %11, i32 0, i32 1
  store i64 %layout.1, i64* %13, align 8
  %14 = bitcast %"core::option::Option<(core::ptr::non_null::NonNull<u8>, core::alloc::layout::Layout)>"* %0 to %"core::option::Option<(core::ptr::non_null::NonNull<u8>, core::alloc::layout::Layout)>::Some"*
  %15 = bitcast %"core::option::Option<(core::ptr::non_null::NonNull<u8>, core::alloc::layout::Layout)>::Some"* %14 to { i8*, { i64, i64 } }*
  %16 = bitcast { i8*, { i64, i64 } }* %15 to i8*
  %17 = bitcast { i8*, { i64, i64 } }* %_13 to i8*
  call void @llvm.memcpy.p0i8.p0i8.i64(i8* align 8 %16, i8* align 8 %17, i64 24, i1 false)
  br label %bb12
}

; alloc::raw_vec::RawVec<T,A>::ptr
; Function Attrs: inlinehint nonlazybind uwtable
define internal i8* @"_ZN5alloc7raw_vec19RawVec$LT$T$C$A$GT$3ptr17hd9fed47b376bfc50E"({ i8*, i64 }* align 8 dereferenceable(16) %self) unnamed_addr #0 {
start:
  %0 = bitcast { i8*, i64 }* %self to i8**
  %_2 = load i8*, i8** %0, align 8, !nonnull !3
; call core::ptr::unique::Unique<T>::as_ptr
  %1 = call i8* @"_ZN4core3ptr6unique15Unique$LT$T$GT$6as_ptr17h082e92a050c03afdE"(i8* nonnull %_2)
  br label %bb1

bb1:                                              ; preds = %start
  ret i8* %1
}

; <alloc::alloc::Global as core::alloc::Allocator>::deallocate
; Function Attrs: inlinehint nonlazybind uwtable
define internal void @"_ZN63_$LT$alloc..alloc..Global$u20$as$u20$core..alloc..Allocator$GT$10deallocate17h44e8d57d014d4ec3E"(%"alloc::alloc::Global"* nonnull align 1 %self, i8* nonnull %ptr, i64 %0, i64 %1) unnamed_addr #0 {
start:
  %layout = alloca { i64, i64 }, align 8
  %2 = getelementptr inbounds { i64, i64 }, { i64, i64 }* %layout, i32 0, i32 0
  store i64 %0, i64* %2, align 8
  %3 = getelementptr inbounds { i64, i64 }, { i64, i64 }* %layout, i32 0, i32 1
  store i64 %1, i64* %3, align 8
; call core::alloc::layout::Layout::size
  %_4 = call i64 @_ZN4core5alloc6layout6Layout4size17h1bcb2e951eefb363E({ i64, i64 }* align 8 dereferenceable(16) %layout)
  br label %bb1

bb1:                                              ; preds = %start
  %4 = icmp eq i64 %_4, 0
  br i1 %4, label %bb5, label %bb2

bb5:                                              ; preds = %bb1
  br label %bb6

bb2:                                              ; preds = %bb1
; call core::ptr::non_null::NonNull<T>::as_ptr
  %_6 = call i8* @"_ZN4core3ptr8non_null16NonNull$LT$T$GT$6as_ptr17hc65c1b1c749f6bacE"(i8* nonnull %ptr)
  br label %bb3

bb3:                                              ; preds = %bb2
  %5 = getelementptr inbounds { i64, i64 }, { i64, i64 }* %layout, i32 0, i32 0
  %_8.0 = load i64, i64* %5, align 8
  %6 = getelementptr inbounds { i64, i64 }, { i64, i64 }* %layout, i32 0, i32 1
  %_8.1 = load i64, i64* %6, align 8, !range !5
; call alloc::alloc::dealloc
  call void @_ZN5alloc5alloc7dealloc17hc6783d4087490090E(i8* %_6, i64 %_8.0, i64 %_8.1)
  br label %bb4

bb4:                                              ; preds = %bb3
  br label %bb6

bb6:                                              ; preds = %bb5, %bb4
  ret void
}

; <std::process::ExitCode as std::process::Termination>::report
; Function Attrs: inlinehint nonlazybind uwtable
define internal i32 @"_ZN68_$LT$std..process..ExitCode$u20$as$u20$std..process..Termination$GT$6report17h3df80fc2f1775ffbE"(i8 %0) unnamed_addr #0 {
start:
  %self = alloca i8, align 1
  store i8 %0, i8* %self, align 1
; call std::sys::unix::process::process_common::ExitCode::as_i32
  %1 = call i32 @_ZN3std3sys4unix7process14process_common8ExitCode6as_i3217h05a465d6b8f2baa6E(i8* align 1 dereferenceable(1) %self)
  br label %bb1

bb1:                                              ; preds = %start
  ret i32 %1
}

; <alloc::vec::Vec<T,A> as core::ops::drop::Drop>::drop
; Function Attrs: nonlazybind uwtable
define internal void @"_ZN70_$LT$alloc..vec..Vec$LT$T$C$A$GT$$u20$as$u20$core..ops..drop..Drop$GT$4drop17he15e7e5d24b6bf32E"(%"alloc::vec::Vec<u8>"* align 8 dereferenceable(24) %self) unnamed_addr #2 {
start:
; call alloc::vec::Vec<T,A>::as_mut_ptr
  %_3 = call i8* @"_ZN5alloc3vec16Vec$LT$T$C$A$GT$10as_mut_ptr17h73a634b09e3a9a3eE"(%"alloc::vec::Vec<u8>"* align 8 dereferenceable(24) %self)
  br label %bb1

bb1:                                              ; preds = %start
  %0 = getelementptr inbounds %"alloc::vec::Vec<u8>", %"alloc::vec::Vec<u8>"* %self, i32 0, i32 1
  %_5 = load i64, i64* %0, align 8
; call core::ptr::slice_from_raw_parts_mut
  %1 = call { [0 x i8]*, i64 } @_ZN4core3ptr24slice_from_raw_parts_mut17hef167c1b330bd2daE(i8* %_3, i64 %_5)
  %_2.0 = extractvalue { [0 x i8]*, i64 } %1, 0
  %_2.1 = extractvalue { [0 x i8]*, i64 } %1, 1
  br label %bb2

bb2:                                              ; preds = %bb1
  br label %bb3

bb3:                                              ; preds = %bb2
  ret void
}

; <alloc::vec::Vec<T,A> as core::ops::deref::Deref>::deref
; Function Attrs: nonlazybind uwtable
define internal { [0 x i8]*, i64 } @"_ZN72_$LT$alloc..vec..Vec$LT$T$C$A$GT$$u20$as$u20$core..ops..deref..Deref$GT$5deref17h27ca76a9b677a0b4E"(%"alloc::vec::Vec<u8>"* align 8 dereferenceable(24) %self) unnamed_addr #2 {
start:
; call alloc::vec::Vec<T,A>::as_ptr
  %_2 = call i8* @"_ZN5alloc3vec16Vec$LT$T$C$A$GT$6as_ptr17h696969ee6822061dE"(%"alloc::vec::Vec<u8>"* align 8 dereferenceable(24) %self)
  br label %bb1

bb1:                                              ; preds = %start
  %0 = getelementptr inbounds %"alloc::vec::Vec<u8>", %"alloc::vec::Vec<u8>"* %self, i32 0, i32 1
  %_4 = load i64, i64* %0, align 8
; call core::slice::raw::from_raw_parts
  %1 = call { [0 x i8]*, i64 } @_ZN4core5slice3raw14from_raw_parts17h3ae06b3599fadee3E(i8* %_2, i64 %_4)
  %2 = extractvalue { [0 x i8]*, i64 } %1, 0
  %3 = extractvalue { [0 x i8]*, i64 } %1, 1
  br label %bb2

bb2:                                              ; preds = %bb1
  %4 = insertvalue { [0 x i8]*, i64 } undef, [0 x i8]* %2, 0
  %5 = insertvalue { [0 x i8]*, i64 } %4, i64 %3, 1
  ret { [0 x i8]*, i64 } %5
}

; <[A] as core::slice::cmp::SlicePartialEq<B>>::equal
; Function Attrs: nonlazybind uwtable
define internal zeroext i1 @"_ZN73_$LT$$u5b$A$u5d$$u20$as$u20$core..slice..cmp..SlicePartialEq$LT$B$GT$$GT$5equal17h61f49d104d7d8f0aE"([0 x i8]* nonnull align 1 %self.0, i64 %self.1, [0 x i8]* nonnull align 1 %other.0, i64 %other.1) unnamed_addr #2 {
start:
  %0 = alloca i8, align 1
  %_3 = icmp ne i64 %self.1, %other.1
  br i1 %_3, label %bb1, label %bb2

bb2:                                              ; preds = %start
; call core::mem::size_of_val
  %size = call i64 @_ZN4core3mem11size_of_val17h632467a9194455ebE([0 x i8]* nonnull align 1 %self.0, i64 %self.1)
  br label %bb3

bb1:                                              ; preds = %start
  store i8 0, i8* %0, align 1
  br label %bb7

bb7:                                              ; preds = %bb6, %bb1
  %1 = load i8, i8* %0, align 1, !range !4
  %2 = trunc i8 %1 to i1
  ret i1 %2

bb3:                                              ; preds = %bb2
; call core::slice::<impl [T]>::as_ptr
  %_12 = call i8* @"_ZN4core5slice29_$LT$impl$u20$$u5b$T$u5d$$GT$6as_ptr17h473708df924f4423E"([0 x i8]* nonnull align 1 %self.0, i64 %self.1)
  br label %bb4

bb4:                                              ; preds = %bb3
; call core::slice::<impl [T]>::as_ptr
  %_15 = call i8* @"_ZN4core5slice29_$LT$impl$u20$$u5b$T$u5d$$GT$6as_ptr17h473708df924f4423E"([0 x i8]* nonnull align 1 %other.0, i64 %other.1)
  br label %bb5

bb5:                                              ; preds = %bb4
  %_10 = call i32 @memcmp(i8* %_12, i8* %_15, i64 %size)
  br label %bb6

bb6:                                              ; preds = %bb5
  %3 = icmp eq i32 %_10, 0
  %4 = zext i1 %3 to i8
  store i8 %4, i8* %0, align 1
  br label %bb7
}

; <alloc::raw_vec::RawVec<T,A> as core::ops::drop::Drop>::drop
; Function Attrs: nonlazybind uwtable
define internal void @"_ZN77_$LT$alloc..raw_vec..RawVec$LT$T$C$A$GT$$u20$as$u20$core..ops..drop..Drop$GT$4drop17hf10592734cc87dd6E"({ i8*, i64 }* align 8 dereferenceable(16) %self) unnamed_addr #2 {
start:
  %_2 = alloca %"core::option::Option<(core::ptr::non_null::NonNull<u8>, core::alloc::layout::Layout)>", align 8
; call alloc::raw_vec::RawVec<T,A>::current_memory
  call void @"_ZN5alloc7raw_vec19RawVec$LT$T$C$A$GT$14current_memory17h2afc99eb141adfb3E"(%"core::option::Option<(core::ptr::non_null::NonNull<u8>, core::alloc::layout::Layout)>"* noalias nocapture sret(%"core::option::Option<(core::ptr::non_null::NonNull<u8>, core::alloc::layout::Layout)>") dereferenceable(24) %_2, { i8*, i64 }* align 8 dereferenceable(16) %self)
  br label %bb1

bb1:                                              ; preds = %start
  %0 = bitcast %"core::option::Option<(core::ptr::non_null::NonNull<u8>, core::alloc::layout::Layout)>"* %_2 to {}**
  %1 = load {}*, {}** %0, align 8
  %2 = icmp eq {}* %1, null
  %_4 = select i1 %2, i64 0, i64 1
  %3 = icmp eq i64 %_4, 1
  br i1 %3, label %bb2, label %bb4

bb2:                                              ; preds = %bb1
  %4 = bitcast %"core::option::Option<(core::ptr::non_null::NonNull<u8>, core::alloc::layout::Layout)>"* %_2 to %"core::option::Option<(core::ptr::non_null::NonNull<u8>, core::alloc::layout::Layout)>::Some"*
  %5 = bitcast %"core::option::Option<(core::ptr::non_null::NonNull<u8>, core::alloc::layout::Layout)>::Some"* %4 to { i8*, { i64, i64 } }*
  %6 = bitcast { i8*, { i64, i64 } }* %5 to i8**
  %ptr = load i8*, i8** %6, align 8, !nonnull !3
  %7 = bitcast %"core::option::Option<(core::ptr::non_null::NonNull<u8>, core::alloc::layout::Layout)>"* %_2 to %"core::option::Option<(core::ptr::non_null::NonNull<u8>, core::alloc::layout::Layout)>::Some"*
  %8 = bitcast %"core::option::Option<(core::ptr::non_null::NonNull<u8>, core::alloc::layout::Layout)>::Some"* %7 to { i8*, { i64, i64 } }*
  %9 = getelementptr inbounds { i8*, { i64, i64 } }, { i8*, { i64, i64 } }* %8, i32 0, i32 1
  %10 = getelementptr inbounds { i64, i64 }, { i64, i64 }* %9, i32 0, i32 0
  %layout.0 = load i64, i64* %10, align 8
  %11 = getelementptr inbounds { i64, i64 }, { i64, i64 }* %9, i32 0, i32 1
  %layout.1 = load i64, i64* %11, align 8, !range !5
  %_7 = bitcast { i8*, i64 }* %self to %"alloc::alloc::Global"*
; call <alloc::alloc::Global as core::alloc::Allocator>::deallocate
  call void @"_ZN63_$LT$alloc..alloc..Global$u20$as$u20$core..alloc..Allocator$GT$10deallocate17h44e8d57d014d4ec3E"(%"alloc::alloc::Global"* nonnull align 1 %_7, i8* nonnull %ptr, i64 %layout.0, i64 %layout.1)
  br label %bb3

bb4:                                              ; preds = %bb3, %bb1
  ret void

bb3:                                              ; preds = %bb2
  br label %bb4
}

; <alloc::string::String as core::cmp::PartialEq<&str>>::ne
; Function Attrs: inlinehint nonlazybind uwtable
define internal zeroext i1 @"_ZN77_$LT$alloc..string..String$u20$as$u20$core..cmp..PartialEq$LT$$RF$str$GT$$GT$2ne17h5bc0d8d256ccd9e1E"(%"alloc::string::String"* align 8 dereferenceable(24) %self, { [0 x i8]*, i64 }* align 8 dereferenceable(16) %other) unnamed_addr #0 {
start:
; call <alloc::string::String as core::ops::index::Index<core::ops::range::RangeFull>>::index
  %0 = call { [0 x i8]*, i64 } @"_ZN100_$LT$alloc..string..String$u20$as$u20$core..ops..index..Index$LT$core..ops..range..RangeFull$GT$$GT$5index17hef1e87c4df442fedE"(%"alloc::string::String"* align 8 dereferenceable(24) %self, %"core::panic::location::Location"* align 8 dereferenceable(24) bitcast (<{ i8*, [16 x i8] }>* @alloc50 to %"core::panic::location::Location"*))
  %_5.0 = extractvalue { [0 x i8]*, i64 } %0, 0
  %_5.1 = extractvalue { [0 x i8]*, i64 } %0, 1
  br label %bb1

bb1:                                              ; preds = %start
  %1 = getelementptr inbounds { [0 x i8]*, i64 }, { [0 x i8]*, i64 }* %other, i32 0, i32 0
  %_11.0 = load [0 x i8]*, [0 x i8]** %1, align 8, !nonnull !3
  %2 = getelementptr inbounds { [0 x i8]*, i64 }, { [0 x i8]*, i64 }* %other, i32 0, i32 1
  %_11.1 = load i64, i64* %2, align 8
; call core::str::traits::<impl core::ops::index::Index<I> for str>::index
  %3 = call { [0 x i8]*, i64 } @"_ZN4core3str6traits66_$LT$impl$u20$core..ops..index..Index$LT$I$GT$$u20$for$u20$str$GT$5index17h08bbb7ee457fa250E"([0 x i8]* nonnull align 1 %_11.0, i64 %_11.1, %"core::panic::location::Location"* align 8 dereferenceable(24) bitcast (<{ i8*, [16 x i8] }>* @alloc50 to %"core::panic::location::Location"*))
  %_10.0 = extractvalue { [0 x i8]*, i64 } %3, 0
  %_10.1 = extractvalue { [0 x i8]*, i64 } %3, 1
  br label %bb2

bb2:                                              ; preds = %bb1
; call core::str::traits::<impl core::cmp::PartialEq for str>::ne
  %4 = call zeroext i1 @"_ZN4core3str6traits54_$LT$impl$u20$core..cmp..PartialEq$u20$for$u20$str$GT$2ne17h2e282e79b459d883E"([0 x i8]* nonnull align 1 %_5.0, i64 %_5.1, [0 x i8]* nonnull align 1 %_10.0, i64 %_10.1)
  br label %bb3

bb3:                                              ; preds = %bb2
  ret i1 %4
}

; build_script_build::main
; Function Attrs: nonlazybind uwtable
define internal void @_ZN18build_script_build4main17hd80f7e58ba75da94E() unnamed_addr #2 personality i32 (i32, i32, i64, %"unwind::libunwind::_Unwind_Exception"*, %"unwind::libunwind::_Unwind_Context"*)* @rust_eh_personality {
start:
  %0 = alloca { i8*, i32 }, align 8
  %_16 = alloca %"core::fmt::Arguments", align 8
  %_11 = alloca %"core::result::Result<alloc::string::String, std::env::VarError>", align 8
  %lvl = alloca %"alloc::string::String", align 8
  %_2 = alloca %"core::fmt::Arguments", align 8
; call core::fmt::Arguments::new_v1
  call void @_ZN4core3fmt9Arguments6new_v117h3a85c4253b490724E(%"core::fmt::Arguments"* noalias nocapture sret(%"core::fmt::Arguments") dereferenceable(48) %_2, [0 x { [0 x i8]*, i64 }]* nonnull align 8 bitcast (<{ i8*, [8 x i8] }>* @alloc3 to [0 x { [0 x i8]*, i64 }]*), i64 1, [0 x { i8*, i64* }]* nonnull align 8 bitcast (<{ [0 x i8] }>* @alloc14 to [0 x { i8*, i64* }]*), i64 0)
  br label %bb1

bb1:                                              ; preds = %start
; call std::io::stdio::_print
  call void @_ZN3std2io5stdio6_print17h68c20082d25e6dc7E(%"core::fmt::Arguments"* noalias nocapture dereferenceable(48) %_2)
  br label %bb2

bb2:                                              ; preds = %bb1
; call std::env::var
  call void @_ZN3std3env3var17h73e2ff6f4947071dE(%"core::result::Result<alloc::string::String, std::env::VarError>"* noalias nocapture sret(%"core::result::Result<alloc::string::String, std::env::VarError>") dereferenceable(32) %_11, [0 x i8]* nonnull align 1 bitcast (<{ [9 x i8] }>* @alloc51 to [0 x i8]*), i64 9)
  br label %bb3

bb3:                                              ; preds = %bb2
; call core::result::Result<T,E>::unwrap
  call void @"_ZN4core6result19Result$LT$T$C$E$GT$6unwrap17h7587ad8502fc3818E"(%"alloc::string::String"* noalias nocapture sret(%"alloc::string::String") dereferenceable(24) %lvl, %"core::result::Result<alloc::string::String, std::env::VarError>"* noalias nocapture dereferenceable(32) %_11, %"core::panic::location::Location"* align 8 dereferenceable(24) bitcast (<{ i8*, [16 x i8] }>* @alloc53 to %"core::panic::location::Location"*))
  br label %bb4

bb4:                                              ; preds = %bb3
; invoke <alloc::string::String as core::cmp::PartialEq<&str>>::ne
  %_12 = invoke zeroext i1 @"_ZN77_$LT$alloc..string..String$u20$as$u20$core..cmp..PartialEq$LT$$RF$str$GT$$GT$2ne17h5bc0d8d256ccd9e1E"(%"alloc::string::String"* align 8 dereferenceable(24) %lvl, { [0 x i8]*, i64 }* align 8 dereferenceable(16) bitcast (<{ i8*, [8 x i8] }>* @alloc9 to { [0 x i8]*, i64 }*))
          to label %bb5 unwind label %cleanup

bb5:                                              ; preds = %bb4
  br i1 %_12, label %bb6, label %bb8

bb10:                                             ; preds = %cleanup
; call core::ptr::drop_in_place<alloc::string::String>
  call void @"_ZN4core3ptr42drop_in_place$LT$alloc..string..String$GT$17h89c55cf58fcbf49aE"(%"alloc::string::String"* %lvl) #9
  br label %bb11

cleanup:                                          ; preds = %bb7, %bb6, %bb4
  %1 = landingpad { i8*, i32 }
          cleanup
  %2 = extractvalue { i8*, i32 } %1, 0
  %3 = extractvalue { i8*, i32 } %1, 1
  %4 = getelementptr inbounds { i8*, i32 }, { i8*, i32 }* %0, i32 0, i32 0
  store i8* %2, i8** %4, align 8
  %5 = getelementptr inbounds { i8*, i32 }, { i8*, i32 }* %0, i32 0, i32 1
  store i32 %3, i32* %5, align 8
  br label %bb10

bb8:                                              ; preds = %bb12, %bb5
; call core::ptr::drop_in_place<alloc::string::String>
  call void @"_ZN4core3ptr42drop_in_place$LT$alloc..string..String$GT$17h89c55cf58fcbf49aE"(%"alloc::string::String"* %lvl)
  br label %bb9

bb6:                                              ; preds = %bb5
; invoke core::fmt::Arguments::new_v1
  invoke void @_ZN4core3fmt9Arguments6new_v117h3a85c4253b490724E(%"core::fmt::Arguments"* noalias nocapture sret(%"core::fmt::Arguments") dereferenceable(48) %_16, [0 x { [0 x i8]*, i64 }]* nonnull align 8 bitcast (<{ i8*, [8 x i8] }>* @alloc12 to [0 x { [0 x i8]*, i64 }]*), i64 1, [0 x { i8*, i64* }]* nonnull align 8 bitcast (<{ [0 x i8] }>* @alloc14 to [0 x { i8*, i64* }]*), i64 0)
          to label %bb7 unwind label %cleanup

bb7:                                              ; preds = %bb6
; invoke std::io::stdio::_print
  invoke void @_ZN3std2io5stdio6_print17h68c20082d25e6dc7E(%"core::fmt::Arguments"* noalias nocapture dereferenceable(48) %_16)
          to label %bb12 unwind label %cleanup

bb12:                                             ; preds = %bb7
  br label %bb8

bb11:                                             ; preds = %bb10
  %6 = bitcast { i8*, i32 }* %0 to i8**
  %7 = load i8*, i8** %6, align 8
  %8 = getelementptr inbounds { i8*, i32 }, { i8*, i32 }* %0, i32 0, i32 1
  %9 = load i32, i32* %8, align 8
  %10 = insertvalue { i8*, i32 } undef, i8* %7, 0
  %11 = insertvalue { i8*, i32 } %10, i32 %9, 1
  resume { i8*, i32 } %11

bb9:                                              ; preds = %bb8
  ret void
}

; Function Attrs: nonlazybind uwtable
declare i32 @rust_eh_personality(i32, i32, i64, %"unwind::libunwind::_Unwind_Exception"*, %"unwind::libunwind::_Unwind_Context"*) unnamed_addr #2

; std::rt::lang_start_internal
; Function Attrs: nonlazybind uwtable
declare i64 @_ZN3std2rt19lang_start_internal17h75965f95c98f11d8E({}* nonnull align 1, [3 x i64]* align 8 dereferenceable(24), i64, i8**) unnamed_addr #2

; std::env::_var
; Function Attrs: nonlazybind uwtable
declare void @_ZN3std3env4_var17he1594e4854f7d5e9E(%"core::result::Result<alloc::string::String, std::env::VarError>"* noalias nocapture sret(%"core::result::Result<alloc::string::String, std::env::VarError>") dereferenceable(32), %"std::ffi::os_str::OsStr"* nonnull align 1, i64) unnamed_addr #2

; core::panicking::panic
; Function Attrs: cold noinline noreturn nonlazybind uwtable
declare void @_ZN4core9panicking5panic17hac91d6d33ac66361E([0 x i8]* nonnull align 1, i64, %"core::panic::location::Location"* align 8 dereferenceable(24)) unnamed_addr #3

; Function Attrs: argmemonly nofree nounwind willreturn
declare void @llvm.memcpy.p0i8.p0i8.i64(i8* noalias nocapture writeonly, i8* noalias nocapture readonly, i64, i1 immarg) #4

; <std::env::VarError as core::fmt::Debug>::fmt
; Function Attrs: nonlazybind uwtable
declare zeroext i1 @"_ZN55_$LT$std..env..VarError$u20$as$u20$core..fmt..Debug$GT$3fmt17hd28f418a0de5ba91E"(%"std::env::VarError"* align 8 dereferenceable(24), %"core::fmt::Formatter"* align 8 dereferenceable(64)) unnamed_addr #2

; core::result::unwrap_failed
; Function Attrs: cold noinline noreturn nonlazybind uwtable
declare void @_ZN4core6result13unwrap_failed17hddb26cddfa4f23d4E([0 x i8]* nonnull align 1, i64, {}* nonnull align 1, [3 x i64]* align 8 dereferenceable(24), %"core::panic::location::Location"* align 8 dereferenceable(24)) unnamed_addr #3

; Function Attrs: inaccessiblememonly nofree nosync nounwind willreturn
declare void @llvm.assume(i1 noundef) #5

; Function Attrs: nounwind nonlazybind uwtable
declare void @__rust_dealloc(i8*, i64, i64) unnamed_addr #6

; Function Attrs: nonlazybind uwtable
declare i32 @memcmp(i8*, i8*, i64) unnamed_addr #2

; std::io::stdio::_print
; Function Attrs: nonlazybind uwtable
declare void @_ZN3std2io5stdio6_print17h68c20082d25e6dc7E(%"core::fmt::Arguments"* noalias nocapture dereferenceable(48)) unnamed_addr #2

; Function Attrs: nonlazybind
define i32 @main(i32 %0, i8** %1) unnamed_addr #7 {
top:
  %2 = sext i32 %0 to i64
; call std::rt::lang_start
  %3 = call i64 @_ZN3std2rt10lang_start17he145ccedbf7b985cE(void ()* @_ZN18build_script_build4main17hd80f7e58ba75da94E, i64 %2, i8** %1)
  %4 = trunc i64 %3 to i32
  ret i32 %4
}

attributes #0 = { inlinehint nonlazybind uwtable "probe-stack"="__rust_probestack" "target-cpu"="x86-64" }
attributes #1 = { noinline nonlazybind uwtable "probe-stack"="__rust_probestack" "target-cpu"="x86-64" }
attributes #2 = { nonlazybind uwtable "probe-stack"="__rust_probestack" "target-cpu"="x86-64" }
attributes #3 = { cold noinline noreturn nonlazybind uwtable "probe-stack"="__rust_probestack" "target-cpu"="x86-64" }
attributes #4 = { argmemonly nofree nounwind willreturn }
attributes #5 = { inaccessiblememonly nofree nosync nounwind willreturn }
attributes #6 = { nounwind nonlazybind uwtable "probe-stack"="__rust_probestack" "target-cpu"="x86-64" }
attributes #7 = { nonlazybind "target-cpu"="x86-64" }
attributes #8 = { noreturn }
attributes #9 = { noinline }
attributes #10 = { nounwind }

!llvm.module.flags = !{!0, !1, !2}

!0 = !{i32 7, !"PIC Level", i32 2}
!1 = !{i32 7, !"PIE Level", i32 2}
!2 = !{i32 2, !"RtLibUseGOT", i32 1}
!3 = !{}
!4 = !{i8 0, i8 2}
!5 = !{i64 1, i64 0}
!6 = !{i32 3209156}
!7 = !{i64 0, i64 2}
